
build/kernel:     file format elf32-i386


Disassembly of section .text:

80100000 <multiboot_header>:
80100000:	02 b0 ad 1b 00 00    	add    0x1bad(%eax),%dh
80100006:	00 00                	add    %al,(%eax)
80100008:	fe 4f 52             	decb   0x52(%edi)
8010000b:	e4                   	.byte 0xe4

8010000c <entry>:

# Primary kernel entry point execution starts here with paging disabled.
.globl entry
entry:
  # Enable Page Size Extension (PSE) to allow 4MB pages.
  movl    %cr4, %eax
8010000c:	0f 20 e0             	mov    %cr4,%eax
  orl     $(CR4_PSE), %eax
8010000f:	83 c8 10             	or     $0x10,%eax
  movl    %eax, %cr4
80100012:	0f 22 e0             	mov    %eax,%cr4
  
  # Load the physical address of the initial page directory into CR3.
  movl    $(V2P_WO(entrypgdir)), %eax
80100015:	b8 00 10 11 00       	mov    $0x111000,%eax
  movl    %eax, %cr3
8010001a:	0f 22 d8             	mov    %eax,%cr3
  
  # Enable Paging (PG) and Write Protect (WP) bits in CR0.
  movl    %cr0, %eax
8010001d:	0f 20 c0             	mov    %cr0,%eax
  orl     $(CR0_PG|CR0_WP), %eax
80100020:	0d 00 00 01 80       	or     $0x80010000,%eax
  movl    %eax, %cr0
80100025:	0f 22 c0             	mov    %eax,%cr0

  # Initialize the kernel stack pointer.
  movl $(stack + KSTACKSIZE), %esp
80100028:	bc 20 79 15 80       	mov    $0x80157920,%esp

  # Transition to high-memory virtual addresses and hand over control to main().
  # An indirect jump is used to force an absolute address jump rather than PC-relative.
  mov $main, %eax
8010002d:	b8 b0 3f 10 80       	mov    $0x80103fb0,%eax
  jmp *%eax
80100032:	ff e0                	jmp    *%eax

80100034 <vector0>:
# generated by vectors.go - do not edit
# handlers
.globl alltraps
.globl vector0
vector0:
  pushl $0
80100034:	6a 00                	push   $0x0
  pushl $0
80100036:	6a 00                	push   $0x0
  jmp alltraps
80100038:	e9 fa 68 00 00       	jmp    80106937 <alltraps>

8010003d <vector1>:
.globl vector1
vector1:
  pushl $0
8010003d:	6a 00                	push   $0x0
  pushl $1
8010003f:	6a 01                	push   $0x1
  jmp alltraps
80100041:	e9 f1 68 00 00       	jmp    80106937 <alltraps>

80100046 <vector2>:
.globl vector2
vector2:
  pushl $0
80100046:	6a 00                	push   $0x0
  pushl $2
80100048:	6a 02                	push   $0x2
  jmp alltraps
8010004a:	e9 e8 68 00 00       	jmp    80106937 <alltraps>

8010004f <vector3>:
.globl vector3
vector3:
  pushl $0
8010004f:	6a 00                	push   $0x0
  pushl $3
80100051:	6a 03                	push   $0x3
  jmp alltraps
80100053:	e9 df 68 00 00       	jmp    80106937 <alltraps>

80100058 <vector4>:
.globl vector4
vector4:
  pushl $0
80100058:	6a 00                	push   $0x0
  pushl $4
8010005a:	6a 04                	push   $0x4
  jmp alltraps
8010005c:	e9 d6 68 00 00       	jmp    80106937 <alltraps>

80100061 <vector5>:
.globl vector5
vector5:
  pushl $0
80100061:	6a 00                	push   $0x0
  pushl $5
80100063:	6a 05                	push   $0x5
  jmp alltraps
80100065:	e9 cd 68 00 00       	jmp    80106937 <alltraps>

8010006a <vector6>:
.globl vector6
vector6:
  pushl $0
8010006a:	6a 00                	push   $0x0
  pushl $6
8010006c:	6a 06                	push   $0x6
  jmp alltraps
8010006e:	e9 c4 68 00 00       	jmp    80106937 <alltraps>

80100073 <vector7>:
.globl vector7
vector7:
  pushl $0
80100073:	6a 00                	push   $0x0
  pushl $7
80100075:	6a 07                	push   $0x7
  jmp alltraps
80100077:	e9 bb 68 00 00       	jmp    80106937 <alltraps>

8010007c <vector8>:
.globl vector8
vector8:
  pushl $8
8010007c:	6a 08                	push   $0x8
  jmp alltraps
8010007e:	e9 b4 68 00 00       	jmp    80106937 <alltraps>

80100083 <vector9>:
.globl vector9
vector9:
  pushl $0
80100083:	6a 00                	push   $0x0
  pushl $9
80100085:	6a 09                	push   $0x9
  jmp alltraps
80100087:	e9 ab 68 00 00       	jmp    80106937 <alltraps>

8010008c <vector10>:
.globl vector10
vector10:
  pushl $10
8010008c:	6a 0a                	push   $0xa
  jmp alltraps
8010008e:	e9 a4 68 00 00       	jmp    80106937 <alltraps>

80100093 <vector11>:
.globl vector11
vector11:
  pushl $11
80100093:	6a 0b                	push   $0xb
  jmp alltraps
80100095:	e9 9d 68 00 00       	jmp    80106937 <alltraps>

8010009a <vector12>:
.globl vector12
vector12:
  pushl $12
8010009a:	6a 0c                	push   $0xc
  jmp alltraps
8010009c:	e9 96 68 00 00       	jmp    80106937 <alltraps>

801000a1 <vector13>:
.globl vector13
vector13:
  pushl $13
801000a1:	6a 0d                	push   $0xd
  jmp alltraps
801000a3:	e9 8f 68 00 00       	jmp    80106937 <alltraps>

801000a8 <vector14>:
.globl vector14
vector14:
  pushl $14
801000a8:	6a 0e                	push   $0xe
  jmp alltraps
801000aa:	e9 88 68 00 00       	jmp    80106937 <alltraps>

801000af <vector15>:
.globl vector15
vector15:
  pushl $0
801000af:	6a 00                	push   $0x0
  pushl $15
801000b1:	6a 0f                	push   $0xf
  jmp alltraps
801000b3:	e9 7f 68 00 00       	jmp    80106937 <alltraps>

801000b8 <vector16>:
.globl vector16
vector16:
  pushl $0
801000b8:	6a 00                	push   $0x0
  pushl $16
801000ba:	6a 10                	push   $0x10
  jmp alltraps
801000bc:	e9 76 68 00 00       	jmp    80106937 <alltraps>

801000c1 <vector17>:
.globl vector17
vector17:
  pushl $17
801000c1:	6a 11                	push   $0x11
  jmp alltraps
801000c3:	e9 6f 68 00 00       	jmp    80106937 <alltraps>

801000c8 <vector18>:
.globl vector18
vector18:
  pushl $0
801000c8:	6a 00                	push   $0x0
  pushl $18
801000ca:	6a 12                	push   $0x12
  jmp alltraps
801000cc:	e9 66 68 00 00       	jmp    80106937 <alltraps>

801000d1 <vector19>:
.globl vector19
vector19:
  pushl $0
801000d1:	6a 00                	push   $0x0
  pushl $19
801000d3:	6a 13                	push   $0x13
  jmp alltraps
801000d5:	e9 5d 68 00 00       	jmp    80106937 <alltraps>

801000da <vector20>:
.globl vector20
vector20:
  pushl $0
801000da:	6a 00                	push   $0x0
  pushl $20
801000dc:	6a 14                	push   $0x14
  jmp alltraps
801000de:	e9 54 68 00 00       	jmp    80106937 <alltraps>

801000e3 <vector21>:
.globl vector21
vector21:
  pushl $0
801000e3:	6a 00                	push   $0x0
  pushl $21
801000e5:	6a 15                	push   $0x15
  jmp alltraps
801000e7:	e9 4b 68 00 00       	jmp    80106937 <alltraps>

801000ec <vector22>:
.globl vector22
vector22:
  pushl $0
801000ec:	6a 00                	push   $0x0
  pushl $22
801000ee:	6a 16                	push   $0x16
  jmp alltraps
801000f0:	e9 42 68 00 00       	jmp    80106937 <alltraps>

801000f5 <vector23>:
.globl vector23
vector23:
  pushl $0
801000f5:	6a 00                	push   $0x0
  pushl $23
801000f7:	6a 17                	push   $0x17
  jmp alltraps
801000f9:	e9 39 68 00 00       	jmp    80106937 <alltraps>

801000fe <vector24>:
.globl vector24
vector24:
  pushl $0
801000fe:	6a 00                	push   $0x0
  pushl $24
80100100:	6a 18                	push   $0x18
  jmp alltraps
80100102:	e9 30 68 00 00       	jmp    80106937 <alltraps>

80100107 <vector25>:
.globl vector25
vector25:
  pushl $0
80100107:	6a 00                	push   $0x0
  pushl $25
80100109:	6a 19                	push   $0x19
  jmp alltraps
8010010b:	e9 27 68 00 00       	jmp    80106937 <alltraps>

80100110 <vector26>:
.globl vector26
vector26:
  pushl $0
80100110:	6a 00                	push   $0x0
  pushl $26
80100112:	6a 1a                	push   $0x1a
  jmp alltraps
80100114:	e9 1e 68 00 00       	jmp    80106937 <alltraps>

80100119 <vector27>:
.globl vector27
vector27:
  pushl $0
80100119:	6a 00                	push   $0x0
  pushl $27
8010011b:	6a 1b                	push   $0x1b
  jmp alltraps
8010011d:	e9 15 68 00 00       	jmp    80106937 <alltraps>

80100122 <vector28>:
.globl vector28
vector28:
  pushl $0
80100122:	6a 00                	push   $0x0
  pushl $28
80100124:	6a 1c                	push   $0x1c
  jmp alltraps
80100126:	e9 0c 68 00 00       	jmp    80106937 <alltraps>

8010012b <vector29>:
.globl vector29
vector29:
  pushl $0
8010012b:	6a 00                	push   $0x0
  pushl $29
8010012d:	6a 1d                	push   $0x1d
  jmp alltraps
8010012f:	e9 03 68 00 00       	jmp    80106937 <alltraps>

80100134 <vector30>:
.globl vector30
vector30:
  pushl $0
80100134:	6a 00                	push   $0x0
  pushl $30
80100136:	6a 1e                	push   $0x1e
  jmp alltraps
80100138:	e9 fa 67 00 00       	jmp    80106937 <alltraps>

8010013d <vector31>:
.globl vector31
vector31:
  pushl $0
8010013d:	6a 00                	push   $0x0
  pushl $31
8010013f:	6a 1f                	push   $0x1f
  jmp alltraps
80100141:	e9 f1 67 00 00       	jmp    80106937 <alltraps>

80100146 <vector32>:
.globl vector32
vector32:
  pushl $0
80100146:	6a 00                	push   $0x0
  pushl $32
80100148:	6a 20                	push   $0x20
  jmp alltraps
8010014a:	e9 e8 67 00 00       	jmp    80106937 <alltraps>

8010014f <vector33>:
.globl vector33
vector33:
  pushl $0
8010014f:	6a 00                	push   $0x0
  pushl $33
80100151:	6a 21                	push   $0x21
  jmp alltraps
80100153:	e9 df 67 00 00       	jmp    80106937 <alltraps>

80100158 <vector34>:
.globl vector34
vector34:
  pushl $0
80100158:	6a 00                	push   $0x0
  pushl $34
8010015a:	6a 22                	push   $0x22
  jmp alltraps
8010015c:	e9 d6 67 00 00       	jmp    80106937 <alltraps>

80100161 <vector35>:
.globl vector35
vector35:
  pushl $0
80100161:	6a 00                	push   $0x0
  pushl $35
80100163:	6a 23                	push   $0x23
  jmp alltraps
80100165:	e9 cd 67 00 00       	jmp    80106937 <alltraps>

8010016a <vector36>:
.globl vector36
vector36:
  pushl $0
8010016a:	6a 00                	push   $0x0
  pushl $36
8010016c:	6a 24                	push   $0x24
  jmp alltraps
8010016e:	e9 c4 67 00 00       	jmp    80106937 <alltraps>

80100173 <vector37>:
.globl vector37
vector37:
  pushl $0
80100173:	6a 00                	push   $0x0
  pushl $37
80100175:	6a 25                	push   $0x25
  jmp alltraps
80100177:	e9 bb 67 00 00       	jmp    80106937 <alltraps>

8010017c <vector38>:
.globl vector38
vector38:
  pushl $0
8010017c:	6a 00                	push   $0x0
  pushl $38
8010017e:	6a 26                	push   $0x26
  jmp alltraps
80100180:	e9 b2 67 00 00       	jmp    80106937 <alltraps>

80100185 <vector39>:
.globl vector39
vector39:
  pushl $0
80100185:	6a 00                	push   $0x0
  pushl $39
80100187:	6a 27                	push   $0x27
  jmp alltraps
80100189:	e9 a9 67 00 00       	jmp    80106937 <alltraps>

8010018e <vector40>:
.globl vector40
vector40:
  pushl $0
8010018e:	6a 00                	push   $0x0
  pushl $40
80100190:	6a 28                	push   $0x28
  jmp alltraps
80100192:	e9 a0 67 00 00       	jmp    80106937 <alltraps>

80100197 <vector41>:
.globl vector41
vector41:
  pushl $0
80100197:	6a 00                	push   $0x0
  pushl $41
80100199:	6a 29                	push   $0x29
  jmp alltraps
8010019b:	e9 97 67 00 00       	jmp    80106937 <alltraps>

801001a0 <vector42>:
.globl vector42
vector42:
  pushl $0
801001a0:	6a 00                	push   $0x0
  pushl $42
801001a2:	6a 2a                	push   $0x2a
  jmp alltraps
801001a4:	e9 8e 67 00 00       	jmp    80106937 <alltraps>

801001a9 <vector43>:
.globl vector43
vector43:
  pushl $0
801001a9:	6a 00                	push   $0x0
  pushl $43
801001ab:	6a 2b                	push   $0x2b
  jmp alltraps
801001ad:	e9 85 67 00 00       	jmp    80106937 <alltraps>

801001b2 <vector44>:
.globl vector44
vector44:
  pushl $0
801001b2:	6a 00                	push   $0x0
  pushl $44
801001b4:	6a 2c                	push   $0x2c
  jmp alltraps
801001b6:	e9 7c 67 00 00       	jmp    80106937 <alltraps>

801001bb <vector45>:
.globl vector45
vector45:
  pushl $0
801001bb:	6a 00                	push   $0x0
  pushl $45
801001bd:	6a 2d                	push   $0x2d
  jmp alltraps
801001bf:	e9 73 67 00 00       	jmp    80106937 <alltraps>

801001c4 <vector46>:
.globl vector46
vector46:
  pushl $0
801001c4:	6a 00                	push   $0x0
  pushl $46
801001c6:	6a 2e                	push   $0x2e
  jmp alltraps
801001c8:	e9 6a 67 00 00       	jmp    80106937 <alltraps>

801001cd <vector47>:
.globl vector47
vector47:
  pushl $0
801001cd:	6a 00                	push   $0x0
  pushl $47
801001cf:	6a 2f                	push   $0x2f
  jmp alltraps
801001d1:	e9 61 67 00 00       	jmp    80106937 <alltraps>

801001d6 <vector48>:
.globl vector48
vector48:
  pushl $0
801001d6:	6a 00                	push   $0x0
  pushl $48
801001d8:	6a 30                	push   $0x30
  jmp alltraps
801001da:	e9 58 67 00 00       	jmp    80106937 <alltraps>

801001df <vector49>:
.globl vector49
vector49:
  pushl $0
801001df:	6a 00                	push   $0x0
  pushl $49
801001e1:	6a 31                	push   $0x31
  jmp alltraps
801001e3:	e9 4f 67 00 00       	jmp    80106937 <alltraps>

801001e8 <vector50>:
.globl vector50
vector50:
  pushl $0
801001e8:	6a 00                	push   $0x0
  pushl $50
801001ea:	6a 32                	push   $0x32
  jmp alltraps
801001ec:	e9 46 67 00 00       	jmp    80106937 <alltraps>

801001f1 <vector51>:
.globl vector51
vector51:
  pushl $0
801001f1:	6a 00                	push   $0x0
  pushl $51
801001f3:	6a 33                	push   $0x33
  jmp alltraps
801001f5:	e9 3d 67 00 00       	jmp    80106937 <alltraps>

801001fa <vector52>:
.globl vector52
vector52:
  pushl $0
801001fa:	6a 00                	push   $0x0
  pushl $52
801001fc:	6a 34                	push   $0x34
  jmp alltraps
801001fe:	e9 34 67 00 00       	jmp    80106937 <alltraps>

80100203 <vector53>:
.globl vector53
vector53:
  pushl $0
80100203:	6a 00                	push   $0x0
  pushl $53
80100205:	6a 35                	push   $0x35
  jmp alltraps
80100207:	e9 2b 67 00 00       	jmp    80106937 <alltraps>

8010020c <vector54>:
.globl vector54
vector54:
  pushl $0
8010020c:	6a 00                	push   $0x0
  pushl $54
8010020e:	6a 36                	push   $0x36
  jmp alltraps
80100210:	e9 22 67 00 00       	jmp    80106937 <alltraps>

80100215 <vector55>:
.globl vector55
vector55:
  pushl $0
80100215:	6a 00                	push   $0x0
  pushl $55
80100217:	6a 37                	push   $0x37
  jmp alltraps
80100219:	e9 19 67 00 00       	jmp    80106937 <alltraps>

8010021e <vector56>:
.globl vector56
vector56:
  pushl $0
8010021e:	6a 00                	push   $0x0
  pushl $56
80100220:	6a 38                	push   $0x38
  jmp alltraps
80100222:	e9 10 67 00 00       	jmp    80106937 <alltraps>

80100227 <vector57>:
.globl vector57
vector57:
  pushl $0
80100227:	6a 00                	push   $0x0
  pushl $57
80100229:	6a 39                	push   $0x39
  jmp alltraps
8010022b:	e9 07 67 00 00       	jmp    80106937 <alltraps>

80100230 <vector58>:
.globl vector58
vector58:
  pushl $0
80100230:	6a 00                	push   $0x0
  pushl $58
80100232:	6a 3a                	push   $0x3a
  jmp alltraps
80100234:	e9 fe 66 00 00       	jmp    80106937 <alltraps>

80100239 <vector59>:
.globl vector59
vector59:
  pushl $0
80100239:	6a 00                	push   $0x0
  pushl $59
8010023b:	6a 3b                	push   $0x3b
  jmp alltraps
8010023d:	e9 f5 66 00 00       	jmp    80106937 <alltraps>

80100242 <vector60>:
.globl vector60
vector60:
  pushl $0
80100242:	6a 00                	push   $0x0
  pushl $60
80100244:	6a 3c                	push   $0x3c
  jmp alltraps
80100246:	e9 ec 66 00 00       	jmp    80106937 <alltraps>

8010024b <vector61>:
.globl vector61
vector61:
  pushl $0
8010024b:	6a 00                	push   $0x0
  pushl $61
8010024d:	6a 3d                	push   $0x3d
  jmp alltraps
8010024f:	e9 e3 66 00 00       	jmp    80106937 <alltraps>

80100254 <vector62>:
.globl vector62
vector62:
  pushl $0
80100254:	6a 00                	push   $0x0
  pushl $62
80100256:	6a 3e                	push   $0x3e
  jmp alltraps
80100258:	e9 da 66 00 00       	jmp    80106937 <alltraps>

8010025d <vector63>:
.globl vector63
vector63:
  pushl $0
8010025d:	6a 00                	push   $0x0
  pushl $63
8010025f:	6a 3f                	push   $0x3f
  jmp alltraps
80100261:	e9 d1 66 00 00       	jmp    80106937 <alltraps>

80100266 <vector64>:
.globl vector64
vector64:
  pushl $0
80100266:	6a 00                	push   $0x0
  pushl $64
80100268:	6a 40                	push   $0x40
  jmp alltraps
8010026a:	e9 c8 66 00 00       	jmp    80106937 <alltraps>

8010026f <vector65>:
.globl vector65
vector65:
  pushl $0
8010026f:	6a 00                	push   $0x0
  pushl $65
80100271:	6a 41                	push   $0x41
  jmp alltraps
80100273:	e9 bf 66 00 00       	jmp    80106937 <alltraps>

80100278 <vector66>:
.globl vector66
vector66:
  pushl $0
80100278:	6a 00                	push   $0x0
  pushl $66
8010027a:	6a 42                	push   $0x42
  jmp alltraps
8010027c:	e9 b6 66 00 00       	jmp    80106937 <alltraps>

80100281 <vector67>:
.globl vector67
vector67:
  pushl $0
80100281:	6a 00                	push   $0x0
  pushl $67
80100283:	6a 43                	push   $0x43
  jmp alltraps
80100285:	e9 ad 66 00 00       	jmp    80106937 <alltraps>

8010028a <vector68>:
.globl vector68
vector68:
  pushl $0
8010028a:	6a 00                	push   $0x0
  pushl $68
8010028c:	6a 44                	push   $0x44
  jmp alltraps
8010028e:	e9 a4 66 00 00       	jmp    80106937 <alltraps>

80100293 <vector69>:
.globl vector69
vector69:
  pushl $0
80100293:	6a 00                	push   $0x0
  pushl $69
80100295:	6a 45                	push   $0x45
  jmp alltraps
80100297:	e9 9b 66 00 00       	jmp    80106937 <alltraps>

8010029c <vector70>:
.globl vector70
vector70:
  pushl $0
8010029c:	6a 00                	push   $0x0
  pushl $70
8010029e:	6a 46                	push   $0x46
  jmp alltraps
801002a0:	e9 92 66 00 00       	jmp    80106937 <alltraps>

801002a5 <vector71>:
.globl vector71
vector71:
  pushl $0
801002a5:	6a 00                	push   $0x0
  pushl $71
801002a7:	6a 47                	push   $0x47
  jmp alltraps
801002a9:	e9 89 66 00 00       	jmp    80106937 <alltraps>

801002ae <vector72>:
.globl vector72
vector72:
  pushl $0
801002ae:	6a 00                	push   $0x0
  pushl $72
801002b0:	6a 48                	push   $0x48
  jmp alltraps
801002b2:	e9 80 66 00 00       	jmp    80106937 <alltraps>

801002b7 <vector73>:
.globl vector73
vector73:
  pushl $0
801002b7:	6a 00                	push   $0x0
  pushl $73
801002b9:	6a 49                	push   $0x49
  jmp alltraps
801002bb:	e9 77 66 00 00       	jmp    80106937 <alltraps>

801002c0 <vector74>:
.globl vector74
vector74:
  pushl $0
801002c0:	6a 00                	push   $0x0
  pushl $74
801002c2:	6a 4a                	push   $0x4a
  jmp alltraps
801002c4:	e9 6e 66 00 00       	jmp    80106937 <alltraps>

801002c9 <vector75>:
.globl vector75
vector75:
  pushl $0
801002c9:	6a 00                	push   $0x0
  pushl $75
801002cb:	6a 4b                	push   $0x4b
  jmp alltraps
801002cd:	e9 65 66 00 00       	jmp    80106937 <alltraps>

801002d2 <vector76>:
.globl vector76
vector76:
  pushl $0
801002d2:	6a 00                	push   $0x0
  pushl $76
801002d4:	6a 4c                	push   $0x4c
  jmp alltraps
801002d6:	e9 5c 66 00 00       	jmp    80106937 <alltraps>

801002db <vector77>:
.globl vector77
vector77:
  pushl $0
801002db:	6a 00                	push   $0x0
  pushl $77
801002dd:	6a 4d                	push   $0x4d
  jmp alltraps
801002df:	e9 53 66 00 00       	jmp    80106937 <alltraps>

801002e4 <vector78>:
.globl vector78
vector78:
  pushl $0
801002e4:	6a 00                	push   $0x0
  pushl $78
801002e6:	6a 4e                	push   $0x4e
  jmp alltraps
801002e8:	e9 4a 66 00 00       	jmp    80106937 <alltraps>

801002ed <vector79>:
.globl vector79
vector79:
  pushl $0
801002ed:	6a 00                	push   $0x0
  pushl $79
801002ef:	6a 4f                	push   $0x4f
  jmp alltraps
801002f1:	e9 41 66 00 00       	jmp    80106937 <alltraps>

801002f6 <vector80>:
.globl vector80
vector80:
  pushl $0
801002f6:	6a 00                	push   $0x0
  pushl $80
801002f8:	6a 50                	push   $0x50
  jmp alltraps
801002fa:	e9 38 66 00 00       	jmp    80106937 <alltraps>

801002ff <vector81>:
.globl vector81
vector81:
  pushl $0
801002ff:	6a 00                	push   $0x0
  pushl $81
80100301:	6a 51                	push   $0x51
  jmp alltraps
80100303:	e9 2f 66 00 00       	jmp    80106937 <alltraps>

80100308 <vector82>:
.globl vector82
vector82:
  pushl $0
80100308:	6a 00                	push   $0x0
  pushl $82
8010030a:	6a 52                	push   $0x52
  jmp alltraps
8010030c:	e9 26 66 00 00       	jmp    80106937 <alltraps>

80100311 <vector83>:
.globl vector83
vector83:
  pushl $0
80100311:	6a 00                	push   $0x0
  pushl $83
80100313:	6a 53                	push   $0x53
  jmp alltraps
80100315:	e9 1d 66 00 00       	jmp    80106937 <alltraps>

8010031a <vector84>:
.globl vector84
vector84:
  pushl $0
8010031a:	6a 00                	push   $0x0
  pushl $84
8010031c:	6a 54                	push   $0x54
  jmp alltraps
8010031e:	e9 14 66 00 00       	jmp    80106937 <alltraps>

80100323 <vector85>:
.globl vector85
vector85:
  pushl $0
80100323:	6a 00                	push   $0x0
  pushl $85
80100325:	6a 55                	push   $0x55
  jmp alltraps
80100327:	e9 0b 66 00 00       	jmp    80106937 <alltraps>

8010032c <vector86>:
.globl vector86
vector86:
  pushl $0
8010032c:	6a 00                	push   $0x0
  pushl $86
8010032e:	6a 56                	push   $0x56
  jmp alltraps
80100330:	e9 02 66 00 00       	jmp    80106937 <alltraps>

80100335 <vector87>:
.globl vector87
vector87:
  pushl $0
80100335:	6a 00                	push   $0x0
  pushl $87
80100337:	6a 57                	push   $0x57
  jmp alltraps
80100339:	e9 f9 65 00 00       	jmp    80106937 <alltraps>

8010033e <vector88>:
.globl vector88
vector88:
  pushl $0
8010033e:	6a 00                	push   $0x0
  pushl $88
80100340:	6a 58                	push   $0x58
  jmp alltraps
80100342:	e9 f0 65 00 00       	jmp    80106937 <alltraps>

80100347 <vector89>:
.globl vector89
vector89:
  pushl $0
80100347:	6a 00                	push   $0x0
  pushl $89
80100349:	6a 59                	push   $0x59
  jmp alltraps
8010034b:	e9 e7 65 00 00       	jmp    80106937 <alltraps>

80100350 <vector90>:
.globl vector90
vector90:
  pushl $0
80100350:	6a 00                	push   $0x0
  pushl $90
80100352:	6a 5a                	push   $0x5a
  jmp alltraps
80100354:	e9 de 65 00 00       	jmp    80106937 <alltraps>

80100359 <vector91>:
.globl vector91
vector91:
  pushl $0
80100359:	6a 00                	push   $0x0
  pushl $91
8010035b:	6a 5b                	push   $0x5b
  jmp alltraps
8010035d:	e9 d5 65 00 00       	jmp    80106937 <alltraps>

80100362 <vector92>:
.globl vector92
vector92:
  pushl $0
80100362:	6a 00                	push   $0x0
  pushl $92
80100364:	6a 5c                	push   $0x5c
  jmp alltraps
80100366:	e9 cc 65 00 00       	jmp    80106937 <alltraps>

8010036b <vector93>:
.globl vector93
vector93:
  pushl $0
8010036b:	6a 00                	push   $0x0
  pushl $93
8010036d:	6a 5d                	push   $0x5d
  jmp alltraps
8010036f:	e9 c3 65 00 00       	jmp    80106937 <alltraps>

80100374 <vector94>:
.globl vector94
vector94:
  pushl $0
80100374:	6a 00                	push   $0x0
  pushl $94
80100376:	6a 5e                	push   $0x5e
  jmp alltraps
80100378:	e9 ba 65 00 00       	jmp    80106937 <alltraps>

8010037d <vector95>:
.globl vector95
vector95:
  pushl $0
8010037d:	6a 00                	push   $0x0
  pushl $95
8010037f:	6a 5f                	push   $0x5f
  jmp alltraps
80100381:	e9 b1 65 00 00       	jmp    80106937 <alltraps>

80100386 <vector96>:
.globl vector96
vector96:
  pushl $0
80100386:	6a 00                	push   $0x0
  pushl $96
80100388:	6a 60                	push   $0x60
  jmp alltraps
8010038a:	e9 a8 65 00 00       	jmp    80106937 <alltraps>

8010038f <vector97>:
.globl vector97
vector97:
  pushl $0
8010038f:	6a 00                	push   $0x0
  pushl $97
80100391:	6a 61                	push   $0x61
  jmp alltraps
80100393:	e9 9f 65 00 00       	jmp    80106937 <alltraps>

80100398 <vector98>:
.globl vector98
vector98:
  pushl $0
80100398:	6a 00                	push   $0x0
  pushl $98
8010039a:	6a 62                	push   $0x62
  jmp alltraps
8010039c:	e9 96 65 00 00       	jmp    80106937 <alltraps>

801003a1 <vector99>:
.globl vector99
vector99:
  pushl $0
801003a1:	6a 00                	push   $0x0
  pushl $99
801003a3:	6a 63                	push   $0x63
  jmp alltraps
801003a5:	e9 8d 65 00 00       	jmp    80106937 <alltraps>

801003aa <vector100>:
.globl vector100
vector100:
  pushl $0
801003aa:	6a 00                	push   $0x0
  pushl $100
801003ac:	6a 64                	push   $0x64
  jmp alltraps
801003ae:	e9 84 65 00 00       	jmp    80106937 <alltraps>

801003b3 <vector101>:
.globl vector101
vector101:
  pushl $0
801003b3:	6a 00                	push   $0x0
  pushl $101
801003b5:	6a 65                	push   $0x65
  jmp alltraps
801003b7:	e9 7b 65 00 00       	jmp    80106937 <alltraps>

801003bc <vector102>:
.globl vector102
vector102:
  pushl $0
801003bc:	6a 00                	push   $0x0
  pushl $102
801003be:	6a 66                	push   $0x66
  jmp alltraps
801003c0:	e9 72 65 00 00       	jmp    80106937 <alltraps>

801003c5 <vector103>:
.globl vector103
vector103:
  pushl $0
801003c5:	6a 00                	push   $0x0
  pushl $103
801003c7:	6a 67                	push   $0x67
  jmp alltraps
801003c9:	e9 69 65 00 00       	jmp    80106937 <alltraps>

801003ce <vector104>:
.globl vector104
vector104:
  pushl $0
801003ce:	6a 00                	push   $0x0
  pushl $104
801003d0:	6a 68                	push   $0x68
  jmp alltraps
801003d2:	e9 60 65 00 00       	jmp    80106937 <alltraps>

801003d7 <vector105>:
.globl vector105
vector105:
  pushl $0
801003d7:	6a 00                	push   $0x0
  pushl $105
801003d9:	6a 69                	push   $0x69
  jmp alltraps
801003db:	e9 57 65 00 00       	jmp    80106937 <alltraps>

801003e0 <vector106>:
.globl vector106
vector106:
  pushl $0
801003e0:	6a 00                	push   $0x0
  pushl $106
801003e2:	6a 6a                	push   $0x6a
  jmp alltraps
801003e4:	e9 4e 65 00 00       	jmp    80106937 <alltraps>

801003e9 <vector107>:
.globl vector107
vector107:
  pushl $0
801003e9:	6a 00                	push   $0x0
  pushl $107
801003eb:	6a 6b                	push   $0x6b
  jmp alltraps
801003ed:	e9 45 65 00 00       	jmp    80106937 <alltraps>

801003f2 <vector108>:
.globl vector108
vector108:
  pushl $0
801003f2:	6a 00                	push   $0x0
  pushl $108
801003f4:	6a 6c                	push   $0x6c
  jmp alltraps
801003f6:	e9 3c 65 00 00       	jmp    80106937 <alltraps>

801003fb <vector109>:
.globl vector109
vector109:
  pushl $0
801003fb:	6a 00                	push   $0x0
  pushl $109
801003fd:	6a 6d                	push   $0x6d
  jmp alltraps
801003ff:	e9 33 65 00 00       	jmp    80106937 <alltraps>

80100404 <vector110>:
.globl vector110
vector110:
  pushl $0
80100404:	6a 00                	push   $0x0
  pushl $110
80100406:	6a 6e                	push   $0x6e
  jmp alltraps
80100408:	e9 2a 65 00 00       	jmp    80106937 <alltraps>

8010040d <vector111>:
.globl vector111
vector111:
  pushl $0
8010040d:	6a 00                	push   $0x0
  pushl $111
8010040f:	6a 6f                	push   $0x6f
  jmp alltraps
80100411:	e9 21 65 00 00       	jmp    80106937 <alltraps>

80100416 <vector112>:
.globl vector112
vector112:
  pushl $0
80100416:	6a 00                	push   $0x0
  pushl $112
80100418:	6a 70                	push   $0x70
  jmp alltraps
8010041a:	e9 18 65 00 00       	jmp    80106937 <alltraps>

8010041f <vector113>:
.globl vector113
vector113:
  pushl $0
8010041f:	6a 00                	push   $0x0
  pushl $113
80100421:	6a 71                	push   $0x71
  jmp alltraps
80100423:	e9 0f 65 00 00       	jmp    80106937 <alltraps>

80100428 <vector114>:
.globl vector114
vector114:
  pushl $0
80100428:	6a 00                	push   $0x0
  pushl $114
8010042a:	6a 72                	push   $0x72
  jmp alltraps
8010042c:	e9 06 65 00 00       	jmp    80106937 <alltraps>

80100431 <vector115>:
.globl vector115
vector115:
  pushl $0
80100431:	6a 00                	push   $0x0
  pushl $115
80100433:	6a 73                	push   $0x73
  jmp alltraps
80100435:	e9 fd 64 00 00       	jmp    80106937 <alltraps>

8010043a <vector116>:
.globl vector116
vector116:
  pushl $0
8010043a:	6a 00                	push   $0x0
  pushl $116
8010043c:	6a 74                	push   $0x74
  jmp alltraps
8010043e:	e9 f4 64 00 00       	jmp    80106937 <alltraps>

80100443 <vector117>:
.globl vector117
vector117:
  pushl $0
80100443:	6a 00                	push   $0x0
  pushl $117
80100445:	6a 75                	push   $0x75
  jmp alltraps
80100447:	e9 eb 64 00 00       	jmp    80106937 <alltraps>

8010044c <vector118>:
.globl vector118
vector118:
  pushl $0
8010044c:	6a 00                	push   $0x0
  pushl $118
8010044e:	6a 76                	push   $0x76
  jmp alltraps
80100450:	e9 e2 64 00 00       	jmp    80106937 <alltraps>

80100455 <vector119>:
.globl vector119
vector119:
  pushl $0
80100455:	6a 00                	push   $0x0
  pushl $119
80100457:	6a 77                	push   $0x77
  jmp alltraps
80100459:	e9 d9 64 00 00       	jmp    80106937 <alltraps>

8010045e <vector120>:
.globl vector120
vector120:
  pushl $0
8010045e:	6a 00                	push   $0x0
  pushl $120
80100460:	6a 78                	push   $0x78
  jmp alltraps
80100462:	e9 d0 64 00 00       	jmp    80106937 <alltraps>

80100467 <vector121>:
.globl vector121
vector121:
  pushl $0
80100467:	6a 00                	push   $0x0
  pushl $121
80100469:	6a 79                	push   $0x79
  jmp alltraps
8010046b:	e9 c7 64 00 00       	jmp    80106937 <alltraps>

80100470 <vector122>:
.globl vector122
vector122:
  pushl $0
80100470:	6a 00                	push   $0x0
  pushl $122
80100472:	6a 7a                	push   $0x7a
  jmp alltraps
80100474:	e9 be 64 00 00       	jmp    80106937 <alltraps>

80100479 <vector123>:
.globl vector123
vector123:
  pushl $0
80100479:	6a 00                	push   $0x0
  pushl $123
8010047b:	6a 7b                	push   $0x7b
  jmp alltraps
8010047d:	e9 b5 64 00 00       	jmp    80106937 <alltraps>

80100482 <vector124>:
.globl vector124
vector124:
  pushl $0
80100482:	6a 00                	push   $0x0
  pushl $124
80100484:	6a 7c                	push   $0x7c
  jmp alltraps
80100486:	e9 ac 64 00 00       	jmp    80106937 <alltraps>

8010048b <vector125>:
.globl vector125
vector125:
  pushl $0
8010048b:	6a 00                	push   $0x0
  pushl $125
8010048d:	6a 7d                	push   $0x7d
  jmp alltraps
8010048f:	e9 a3 64 00 00       	jmp    80106937 <alltraps>

80100494 <vector126>:
.globl vector126
vector126:
  pushl $0
80100494:	6a 00                	push   $0x0
  pushl $126
80100496:	6a 7e                	push   $0x7e
  jmp alltraps
80100498:	e9 9a 64 00 00       	jmp    80106937 <alltraps>

8010049d <vector127>:
.globl vector127
vector127:
  pushl $0
8010049d:	6a 00                	push   $0x0
  pushl $127
8010049f:	6a 7f                	push   $0x7f
  jmp alltraps
801004a1:	e9 91 64 00 00       	jmp    80106937 <alltraps>

801004a6 <vector128>:
.globl vector128
vector128:
  pushl $0
801004a6:	6a 00                	push   $0x0
  pushl $128
801004a8:	68 80 00 00 00       	push   $0x80
  jmp alltraps
801004ad:	e9 85 64 00 00       	jmp    80106937 <alltraps>

801004b2 <vector129>:
.globl vector129
vector129:
  pushl $0
801004b2:	6a 00                	push   $0x0
  pushl $129
801004b4:	68 81 00 00 00       	push   $0x81
  jmp alltraps
801004b9:	e9 79 64 00 00       	jmp    80106937 <alltraps>

801004be <vector130>:
.globl vector130
vector130:
  pushl $0
801004be:	6a 00                	push   $0x0
  pushl $130
801004c0:	68 82 00 00 00       	push   $0x82
  jmp alltraps
801004c5:	e9 6d 64 00 00       	jmp    80106937 <alltraps>

801004ca <vector131>:
.globl vector131
vector131:
  pushl $0
801004ca:	6a 00                	push   $0x0
  pushl $131
801004cc:	68 83 00 00 00       	push   $0x83
  jmp alltraps
801004d1:	e9 61 64 00 00       	jmp    80106937 <alltraps>

801004d6 <vector132>:
.globl vector132
vector132:
  pushl $0
801004d6:	6a 00                	push   $0x0
  pushl $132
801004d8:	68 84 00 00 00       	push   $0x84
  jmp alltraps
801004dd:	e9 55 64 00 00       	jmp    80106937 <alltraps>

801004e2 <vector133>:
.globl vector133
vector133:
  pushl $0
801004e2:	6a 00                	push   $0x0
  pushl $133
801004e4:	68 85 00 00 00       	push   $0x85
  jmp alltraps
801004e9:	e9 49 64 00 00       	jmp    80106937 <alltraps>

801004ee <vector134>:
.globl vector134
vector134:
  pushl $0
801004ee:	6a 00                	push   $0x0
  pushl $134
801004f0:	68 86 00 00 00       	push   $0x86
  jmp alltraps
801004f5:	e9 3d 64 00 00       	jmp    80106937 <alltraps>

801004fa <vector135>:
.globl vector135
vector135:
  pushl $0
801004fa:	6a 00                	push   $0x0
  pushl $135
801004fc:	68 87 00 00 00       	push   $0x87
  jmp alltraps
80100501:	e9 31 64 00 00       	jmp    80106937 <alltraps>

80100506 <vector136>:
.globl vector136
vector136:
  pushl $0
80100506:	6a 00                	push   $0x0
  pushl $136
80100508:	68 88 00 00 00       	push   $0x88
  jmp alltraps
8010050d:	e9 25 64 00 00       	jmp    80106937 <alltraps>

80100512 <vector137>:
.globl vector137
vector137:
  pushl $0
80100512:	6a 00                	push   $0x0
  pushl $137
80100514:	68 89 00 00 00       	push   $0x89
  jmp alltraps
80100519:	e9 19 64 00 00       	jmp    80106937 <alltraps>

8010051e <vector138>:
.globl vector138
vector138:
  pushl $0
8010051e:	6a 00                	push   $0x0
  pushl $138
80100520:	68 8a 00 00 00       	push   $0x8a
  jmp alltraps
80100525:	e9 0d 64 00 00       	jmp    80106937 <alltraps>

8010052a <vector139>:
.globl vector139
vector139:
  pushl $0
8010052a:	6a 00                	push   $0x0
  pushl $139
8010052c:	68 8b 00 00 00       	push   $0x8b
  jmp alltraps
80100531:	e9 01 64 00 00       	jmp    80106937 <alltraps>

80100536 <vector140>:
.globl vector140
vector140:
  pushl $0
80100536:	6a 00                	push   $0x0
  pushl $140
80100538:	68 8c 00 00 00       	push   $0x8c
  jmp alltraps
8010053d:	e9 f5 63 00 00       	jmp    80106937 <alltraps>

80100542 <vector141>:
.globl vector141
vector141:
  pushl $0
80100542:	6a 00                	push   $0x0
  pushl $141
80100544:	68 8d 00 00 00       	push   $0x8d
  jmp alltraps
80100549:	e9 e9 63 00 00       	jmp    80106937 <alltraps>

8010054e <vector142>:
.globl vector142
vector142:
  pushl $0
8010054e:	6a 00                	push   $0x0
  pushl $142
80100550:	68 8e 00 00 00       	push   $0x8e
  jmp alltraps
80100555:	e9 dd 63 00 00       	jmp    80106937 <alltraps>

8010055a <vector143>:
.globl vector143
vector143:
  pushl $0
8010055a:	6a 00                	push   $0x0
  pushl $143
8010055c:	68 8f 00 00 00       	push   $0x8f
  jmp alltraps
80100561:	e9 d1 63 00 00       	jmp    80106937 <alltraps>

80100566 <vector144>:
.globl vector144
vector144:
  pushl $0
80100566:	6a 00                	push   $0x0
  pushl $144
80100568:	68 90 00 00 00       	push   $0x90
  jmp alltraps
8010056d:	e9 c5 63 00 00       	jmp    80106937 <alltraps>

80100572 <vector145>:
.globl vector145
vector145:
  pushl $0
80100572:	6a 00                	push   $0x0
  pushl $145
80100574:	68 91 00 00 00       	push   $0x91
  jmp alltraps
80100579:	e9 b9 63 00 00       	jmp    80106937 <alltraps>

8010057e <vector146>:
.globl vector146
vector146:
  pushl $0
8010057e:	6a 00                	push   $0x0
  pushl $146
80100580:	68 92 00 00 00       	push   $0x92
  jmp alltraps
80100585:	e9 ad 63 00 00       	jmp    80106937 <alltraps>

8010058a <vector147>:
.globl vector147
vector147:
  pushl $0
8010058a:	6a 00                	push   $0x0
  pushl $147
8010058c:	68 93 00 00 00       	push   $0x93
  jmp alltraps
80100591:	e9 a1 63 00 00       	jmp    80106937 <alltraps>

80100596 <vector148>:
.globl vector148
vector148:
  pushl $0
80100596:	6a 00                	push   $0x0
  pushl $148
80100598:	68 94 00 00 00       	push   $0x94
  jmp alltraps
8010059d:	e9 95 63 00 00       	jmp    80106937 <alltraps>

801005a2 <vector149>:
.globl vector149
vector149:
  pushl $0
801005a2:	6a 00                	push   $0x0
  pushl $149
801005a4:	68 95 00 00 00       	push   $0x95
  jmp alltraps
801005a9:	e9 89 63 00 00       	jmp    80106937 <alltraps>

801005ae <vector150>:
.globl vector150
vector150:
  pushl $0
801005ae:	6a 00                	push   $0x0
  pushl $150
801005b0:	68 96 00 00 00       	push   $0x96
  jmp alltraps
801005b5:	e9 7d 63 00 00       	jmp    80106937 <alltraps>

801005ba <vector151>:
.globl vector151
vector151:
  pushl $0
801005ba:	6a 00                	push   $0x0
  pushl $151
801005bc:	68 97 00 00 00       	push   $0x97
  jmp alltraps
801005c1:	e9 71 63 00 00       	jmp    80106937 <alltraps>

801005c6 <vector152>:
.globl vector152
vector152:
  pushl $0
801005c6:	6a 00                	push   $0x0
  pushl $152
801005c8:	68 98 00 00 00       	push   $0x98
  jmp alltraps
801005cd:	e9 65 63 00 00       	jmp    80106937 <alltraps>

801005d2 <vector153>:
.globl vector153
vector153:
  pushl $0
801005d2:	6a 00                	push   $0x0
  pushl $153
801005d4:	68 99 00 00 00       	push   $0x99
  jmp alltraps
801005d9:	e9 59 63 00 00       	jmp    80106937 <alltraps>

801005de <vector154>:
.globl vector154
vector154:
  pushl $0
801005de:	6a 00                	push   $0x0
  pushl $154
801005e0:	68 9a 00 00 00       	push   $0x9a
  jmp alltraps
801005e5:	e9 4d 63 00 00       	jmp    80106937 <alltraps>

801005ea <vector155>:
.globl vector155
vector155:
  pushl $0
801005ea:	6a 00                	push   $0x0
  pushl $155
801005ec:	68 9b 00 00 00       	push   $0x9b
  jmp alltraps
801005f1:	e9 41 63 00 00       	jmp    80106937 <alltraps>

801005f6 <vector156>:
.globl vector156
vector156:
  pushl $0
801005f6:	6a 00                	push   $0x0
  pushl $156
801005f8:	68 9c 00 00 00       	push   $0x9c
  jmp alltraps
801005fd:	e9 35 63 00 00       	jmp    80106937 <alltraps>

80100602 <vector157>:
.globl vector157
vector157:
  pushl $0
80100602:	6a 00                	push   $0x0
  pushl $157
80100604:	68 9d 00 00 00       	push   $0x9d
  jmp alltraps
80100609:	e9 29 63 00 00       	jmp    80106937 <alltraps>

8010060e <vector158>:
.globl vector158
vector158:
  pushl $0
8010060e:	6a 00                	push   $0x0
  pushl $158
80100610:	68 9e 00 00 00       	push   $0x9e
  jmp alltraps
80100615:	e9 1d 63 00 00       	jmp    80106937 <alltraps>

8010061a <vector159>:
.globl vector159
vector159:
  pushl $0
8010061a:	6a 00                	push   $0x0
  pushl $159
8010061c:	68 9f 00 00 00       	push   $0x9f
  jmp alltraps
80100621:	e9 11 63 00 00       	jmp    80106937 <alltraps>

80100626 <vector160>:
.globl vector160
vector160:
  pushl $0
80100626:	6a 00                	push   $0x0
  pushl $160
80100628:	68 a0 00 00 00       	push   $0xa0
  jmp alltraps
8010062d:	e9 05 63 00 00       	jmp    80106937 <alltraps>

80100632 <vector161>:
.globl vector161
vector161:
  pushl $0
80100632:	6a 00                	push   $0x0
  pushl $161
80100634:	68 a1 00 00 00       	push   $0xa1
  jmp alltraps
80100639:	e9 f9 62 00 00       	jmp    80106937 <alltraps>

8010063e <vector162>:
.globl vector162
vector162:
  pushl $0
8010063e:	6a 00                	push   $0x0
  pushl $162
80100640:	68 a2 00 00 00       	push   $0xa2
  jmp alltraps
80100645:	e9 ed 62 00 00       	jmp    80106937 <alltraps>

8010064a <vector163>:
.globl vector163
vector163:
  pushl $0
8010064a:	6a 00                	push   $0x0
  pushl $163
8010064c:	68 a3 00 00 00       	push   $0xa3
  jmp alltraps
80100651:	e9 e1 62 00 00       	jmp    80106937 <alltraps>

80100656 <vector164>:
.globl vector164
vector164:
  pushl $0
80100656:	6a 00                	push   $0x0
  pushl $164
80100658:	68 a4 00 00 00       	push   $0xa4
  jmp alltraps
8010065d:	e9 d5 62 00 00       	jmp    80106937 <alltraps>

80100662 <vector165>:
.globl vector165
vector165:
  pushl $0
80100662:	6a 00                	push   $0x0
  pushl $165
80100664:	68 a5 00 00 00       	push   $0xa5
  jmp alltraps
80100669:	e9 c9 62 00 00       	jmp    80106937 <alltraps>

8010066e <vector166>:
.globl vector166
vector166:
  pushl $0
8010066e:	6a 00                	push   $0x0
  pushl $166
80100670:	68 a6 00 00 00       	push   $0xa6
  jmp alltraps
80100675:	e9 bd 62 00 00       	jmp    80106937 <alltraps>

8010067a <vector167>:
.globl vector167
vector167:
  pushl $0
8010067a:	6a 00                	push   $0x0
  pushl $167
8010067c:	68 a7 00 00 00       	push   $0xa7
  jmp alltraps
80100681:	e9 b1 62 00 00       	jmp    80106937 <alltraps>

80100686 <vector168>:
.globl vector168
vector168:
  pushl $0
80100686:	6a 00                	push   $0x0
  pushl $168
80100688:	68 a8 00 00 00       	push   $0xa8
  jmp alltraps
8010068d:	e9 a5 62 00 00       	jmp    80106937 <alltraps>

80100692 <vector169>:
.globl vector169
vector169:
  pushl $0
80100692:	6a 00                	push   $0x0
  pushl $169
80100694:	68 a9 00 00 00       	push   $0xa9
  jmp alltraps
80100699:	e9 99 62 00 00       	jmp    80106937 <alltraps>

8010069e <vector170>:
.globl vector170
vector170:
  pushl $0
8010069e:	6a 00                	push   $0x0
  pushl $170
801006a0:	68 aa 00 00 00       	push   $0xaa
  jmp alltraps
801006a5:	e9 8d 62 00 00       	jmp    80106937 <alltraps>

801006aa <vector171>:
.globl vector171
vector171:
  pushl $0
801006aa:	6a 00                	push   $0x0
  pushl $171
801006ac:	68 ab 00 00 00       	push   $0xab
  jmp alltraps
801006b1:	e9 81 62 00 00       	jmp    80106937 <alltraps>

801006b6 <vector172>:
.globl vector172
vector172:
  pushl $0
801006b6:	6a 00                	push   $0x0
  pushl $172
801006b8:	68 ac 00 00 00       	push   $0xac
  jmp alltraps
801006bd:	e9 75 62 00 00       	jmp    80106937 <alltraps>

801006c2 <vector173>:
.globl vector173
vector173:
  pushl $0
801006c2:	6a 00                	push   $0x0
  pushl $173
801006c4:	68 ad 00 00 00       	push   $0xad
  jmp alltraps
801006c9:	e9 69 62 00 00       	jmp    80106937 <alltraps>

801006ce <vector174>:
.globl vector174
vector174:
  pushl $0
801006ce:	6a 00                	push   $0x0
  pushl $174
801006d0:	68 ae 00 00 00       	push   $0xae
  jmp alltraps
801006d5:	e9 5d 62 00 00       	jmp    80106937 <alltraps>

801006da <vector175>:
.globl vector175
vector175:
  pushl $0
801006da:	6a 00                	push   $0x0
  pushl $175
801006dc:	68 af 00 00 00       	push   $0xaf
  jmp alltraps
801006e1:	e9 51 62 00 00       	jmp    80106937 <alltraps>

801006e6 <vector176>:
.globl vector176
vector176:
  pushl $0
801006e6:	6a 00                	push   $0x0
  pushl $176
801006e8:	68 b0 00 00 00       	push   $0xb0
  jmp alltraps
801006ed:	e9 45 62 00 00       	jmp    80106937 <alltraps>

801006f2 <vector177>:
.globl vector177
vector177:
  pushl $0
801006f2:	6a 00                	push   $0x0
  pushl $177
801006f4:	68 b1 00 00 00       	push   $0xb1
  jmp alltraps
801006f9:	e9 39 62 00 00       	jmp    80106937 <alltraps>

801006fe <vector178>:
.globl vector178
vector178:
  pushl $0
801006fe:	6a 00                	push   $0x0
  pushl $178
80100700:	68 b2 00 00 00       	push   $0xb2
  jmp alltraps
80100705:	e9 2d 62 00 00       	jmp    80106937 <alltraps>

8010070a <vector179>:
.globl vector179
vector179:
  pushl $0
8010070a:	6a 00                	push   $0x0
  pushl $179
8010070c:	68 b3 00 00 00       	push   $0xb3
  jmp alltraps
80100711:	e9 21 62 00 00       	jmp    80106937 <alltraps>

80100716 <vector180>:
.globl vector180
vector180:
  pushl $0
80100716:	6a 00                	push   $0x0
  pushl $180
80100718:	68 b4 00 00 00       	push   $0xb4
  jmp alltraps
8010071d:	e9 15 62 00 00       	jmp    80106937 <alltraps>

80100722 <vector181>:
.globl vector181
vector181:
  pushl $0
80100722:	6a 00                	push   $0x0
  pushl $181
80100724:	68 b5 00 00 00       	push   $0xb5
  jmp alltraps
80100729:	e9 09 62 00 00       	jmp    80106937 <alltraps>

8010072e <vector182>:
.globl vector182
vector182:
  pushl $0
8010072e:	6a 00                	push   $0x0
  pushl $182
80100730:	68 b6 00 00 00       	push   $0xb6
  jmp alltraps
80100735:	e9 fd 61 00 00       	jmp    80106937 <alltraps>

8010073a <vector183>:
.globl vector183
vector183:
  pushl $0
8010073a:	6a 00                	push   $0x0
  pushl $183
8010073c:	68 b7 00 00 00       	push   $0xb7
  jmp alltraps
80100741:	e9 f1 61 00 00       	jmp    80106937 <alltraps>

80100746 <vector184>:
.globl vector184
vector184:
  pushl $0
80100746:	6a 00                	push   $0x0
  pushl $184
80100748:	68 b8 00 00 00       	push   $0xb8
  jmp alltraps
8010074d:	e9 e5 61 00 00       	jmp    80106937 <alltraps>

80100752 <vector185>:
.globl vector185
vector185:
  pushl $0
80100752:	6a 00                	push   $0x0
  pushl $185
80100754:	68 b9 00 00 00       	push   $0xb9
  jmp alltraps
80100759:	e9 d9 61 00 00       	jmp    80106937 <alltraps>

8010075e <vector186>:
.globl vector186
vector186:
  pushl $0
8010075e:	6a 00                	push   $0x0
  pushl $186
80100760:	68 ba 00 00 00       	push   $0xba
  jmp alltraps
80100765:	e9 cd 61 00 00       	jmp    80106937 <alltraps>

8010076a <vector187>:
.globl vector187
vector187:
  pushl $0
8010076a:	6a 00                	push   $0x0
  pushl $187
8010076c:	68 bb 00 00 00       	push   $0xbb
  jmp alltraps
80100771:	e9 c1 61 00 00       	jmp    80106937 <alltraps>

80100776 <vector188>:
.globl vector188
vector188:
  pushl $0
80100776:	6a 00                	push   $0x0
  pushl $188
80100778:	68 bc 00 00 00       	push   $0xbc
  jmp alltraps
8010077d:	e9 b5 61 00 00       	jmp    80106937 <alltraps>

80100782 <vector189>:
.globl vector189
vector189:
  pushl $0
80100782:	6a 00                	push   $0x0
  pushl $189
80100784:	68 bd 00 00 00       	push   $0xbd
  jmp alltraps
80100789:	e9 a9 61 00 00       	jmp    80106937 <alltraps>

8010078e <vector190>:
.globl vector190
vector190:
  pushl $0
8010078e:	6a 00                	push   $0x0
  pushl $190
80100790:	68 be 00 00 00       	push   $0xbe
  jmp alltraps
80100795:	e9 9d 61 00 00       	jmp    80106937 <alltraps>

8010079a <vector191>:
.globl vector191
vector191:
  pushl $0
8010079a:	6a 00                	push   $0x0
  pushl $191
8010079c:	68 bf 00 00 00       	push   $0xbf
  jmp alltraps
801007a1:	e9 91 61 00 00       	jmp    80106937 <alltraps>

801007a6 <vector192>:
.globl vector192
vector192:
  pushl $0
801007a6:	6a 00                	push   $0x0
  pushl $192
801007a8:	68 c0 00 00 00       	push   $0xc0
  jmp alltraps
801007ad:	e9 85 61 00 00       	jmp    80106937 <alltraps>

801007b2 <vector193>:
.globl vector193
vector193:
  pushl $0
801007b2:	6a 00                	push   $0x0
  pushl $193
801007b4:	68 c1 00 00 00       	push   $0xc1
  jmp alltraps
801007b9:	e9 79 61 00 00       	jmp    80106937 <alltraps>

801007be <vector194>:
.globl vector194
vector194:
  pushl $0
801007be:	6a 00                	push   $0x0
  pushl $194
801007c0:	68 c2 00 00 00       	push   $0xc2
  jmp alltraps
801007c5:	e9 6d 61 00 00       	jmp    80106937 <alltraps>

801007ca <vector195>:
.globl vector195
vector195:
  pushl $0
801007ca:	6a 00                	push   $0x0
  pushl $195
801007cc:	68 c3 00 00 00       	push   $0xc3
  jmp alltraps
801007d1:	e9 61 61 00 00       	jmp    80106937 <alltraps>

801007d6 <vector196>:
.globl vector196
vector196:
  pushl $0
801007d6:	6a 00                	push   $0x0
  pushl $196
801007d8:	68 c4 00 00 00       	push   $0xc4
  jmp alltraps
801007dd:	e9 55 61 00 00       	jmp    80106937 <alltraps>

801007e2 <vector197>:
.globl vector197
vector197:
  pushl $0
801007e2:	6a 00                	push   $0x0
  pushl $197
801007e4:	68 c5 00 00 00       	push   $0xc5
  jmp alltraps
801007e9:	e9 49 61 00 00       	jmp    80106937 <alltraps>

801007ee <vector198>:
.globl vector198
vector198:
  pushl $0
801007ee:	6a 00                	push   $0x0
  pushl $198
801007f0:	68 c6 00 00 00       	push   $0xc6
  jmp alltraps
801007f5:	e9 3d 61 00 00       	jmp    80106937 <alltraps>

801007fa <vector199>:
.globl vector199
vector199:
  pushl $0
801007fa:	6a 00                	push   $0x0
  pushl $199
801007fc:	68 c7 00 00 00       	push   $0xc7
  jmp alltraps
80100801:	e9 31 61 00 00       	jmp    80106937 <alltraps>

80100806 <vector200>:
.globl vector200
vector200:
  pushl $0
80100806:	6a 00                	push   $0x0
  pushl $200
80100808:	68 c8 00 00 00       	push   $0xc8
  jmp alltraps
8010080d:	e9 25 61 00 00       	jmp    80106937 <alltraps>

80100812 <vector201>:
.globl vector201
vector201:
  pushl $0
80100812:	6a 00                	push   $0x0
  pushl $201
80100814:	68 c9 00 00 00       	push   $0xc9
  jmp alltraps
80100819:	e9 19 61 00 00       	jmp    80106937 <alltraps>

8010081e <vector202>:
.globl vector202
vector202:
  pushl $0
8010081e:	6a 00                	push   $0x0
  pushl $202
80100820:	68 ca 00 00 00       	push   $0xca
  jmp alltraps
80100825:	e9 0d 61 00 00       	jmp    80106937 <alltraps>

8010082a <vector203>:
.globl vector203
vector203:
  pushl $0
8010082a:	6a 00                	push   $0x0
  pushl $203
8010082c:	68 cb 00 00 00       	push   $0xcb
  jmp alltraps
80100831:	e9 01 61 00 00       	jmp    80106937 <alltraps>

80100836 <vector204>:
.globl vector204
vector204:
  pushl $0
80100836:	6a 00                	push   $0x0
  pushl $204
80100838:	68 cc 00 00 00       	push   $0xcc
  jmp alltraps
8010083d:	e9 f5 60 00 00       	jmp    80106937 <alltraps>

80100842 <vector205>:
.globl vector205
vector205:
  pushl $0
80100842:	6a 00                	push   $0x0
  pushl $205
80100844:	68 cd 00 00 00       	push   $0xcd
  jmp alltraps
80100849:	e9 e9 60 00 00       	jmp    80106937 <alltraps>

8010084e <vector206>:
.globl vector206
vector206:
  pushl $0
8010084e:	6a 00                	push   $0x0
  pushl $206
80100850:	68 ce 00 00 00       	push   $0xce
  jmp alltraps
80100855:	e9 dd 60 00 00       	jmp    80106937 <alltraps>

8010085a <vector207>:
.globl vector207
vector207:
  pushl $0
8010085a:	6a 00                	push   $0x0
  pushl $207
8010085c:	68 cf 00 00 00       	push   $0xcf
  jmp alltraps
80100861:	e9 d1 60 00 00       	jmp    80106937 <alltraps>

80100866 <vector208>:
.globl vector208
vector208:
  pushl $0
80100866:	6a 00                	push   $0x0
  pushl $208
80100868:	68 d0 00 00 00       	push   $0xd0
  jmp alltraps
8010086d:	e9 c5 60 00 00       	jmp    80106937 <alltraps>

80100872 <vector209>:
.globl vector209
vector209:
  pushl $0
80100872:	6a 00                	push   $0x0
  pushl $209
80100874:	68 d1 00 00 00       	push   $0xd1
  jmp alltraps
80100879:	e9 b9 60 00 00       	jmp    80106937 <alltraps>

8010087e <vector210>:
.globl vector210
vector210:
  pushl $0
8010087e:	6a 00                	push   $0x0
  pushl $210
80100880:	68 d2 00 00 00       	push   $0xd2
  jmp alltraps
80100885:	e9 ad 60 00 00       	jmp    80106937 <alltraps>

8010088a <vector211>:
.globl vector211
vector211:
  pushl $0
8010088a:	6a 00                	push   $0x0
  pushl $211
8010088c:	68 d3 00 00 00       	push   $0xd3
  jmp alltraps
80100891:	e9 a1 60 00 00       	jmp    80106937 <alltraps>

80100896 <vector212>:
.globl vector212
vector212:
  pushl $0
80100896:	6a 00                	push   $0x0
  pushl $212
80100898:	68 d4 00 00 00       	push   $0xd4
  jmp alltraps
8010089d:	e9 95 60 00 00       	jmp    80106937 <alltraps>

801008a2 <vector213>:
.globl vector213
vector213:
  pushl $0
801008a2:	6a 00                	push   $0x0
  pushl $213
801008a4:	68 d5 00 00 00       	push   $0xd5
  jmp alltraps
801008a9:	e9 89 60 00 00       	jmp    80106937 <alltraps>

801008ae <vector214>:
.globl vector214
vector214:
  pushl $0
801008ae:	6a 00                	push   $0x0
  pushl $214
801008b0:	68 d6 00 00 00       	push   $0xd6
  jmp alltraps
801008b5:	e9 7d 60 00 00       	jmp    80106937 <alltraps>

801008ba <vector215>:
.globl vector215
vector215:
  pushl $0
801008ba:	6a 00                	push   $0x0
  pushl $215
801008bc:	68 d7 00 00 00       	push   $0xd7
  jmp alltraps
801008c1:	e9 71 60 00 00       	jmp    80106937 <alltraps>

801008c6 <vector216>:
.globl vector216
vector216:
  pushl $0
801008c6:	6a 00                	push   $0x0
  pushl $216
801008c8:	68 d8 00 00 00       	push   $0xd8
  jmp alltraps
801008cd:	e9 65 60 00 00       	jmp    80106937 <alltraps>

801008d2 <vector217>:
.globl vector217
vector217:
  pushl $0
801008d2:	6a 00                	push   $0x0
  pushl $217
801008d4:	68 d9 00 00 00       	push   $0xd9
  jmp alltraps
801008d9:	e9 59 60 00 00       	jmp    80106937 <alltraps>

801008de <vector218>:
.globl vector218
vector218:
  pushl $0
801008de:	6a 00                	push   $0x0
  pushl $218
801008e0:	68 da 00 00 00       	push   $0xda
  jmp alltraps
801008e5:	e9 4d 60 00 00       	jmp    80106937 <alltraps>

801008ea <vector219>:
.globl vector219
vector219:
  pushl $0
801008ea:	6a 00                	push   $0x0
  pushl $219
801008ec:	68 db 00 00 00       	push   $0xdb
  jmp alltraps
801008f1:	e9 41 60 00 00       	jmp    80106937 <alltraps>

801008f6 <vector220>:
.globl vector220
vector220:
  pushl $0
801008f6:	6a 00                	push   $0x0
  pushl $220
801008f8:	68 dc 00 00 00       	push   $0xdc
  jmp alltraps
801008fd:	e9 35 60 00 00       	jmp    80106937 <alltraps>

80100902 <vector221>:
.globl vector221
vector221:
  pushl $0
80100902:	6a 00                	push   $0x0
  pushl $221
80100904:	68 dd 00 00 00       	push   $0xdd
  jmp alltraps
80100909:	e9 29 60 00 00       	jmp    80106937 <alltraps>

8010090e <vector222>:
.globl vector222
vector222:
  pushl $0
8010090e:	6a 00                	push   $0x0
  pushl $222
80100910:	68 de 00 00 00       	push   $0xde
  jmp alltraps
80100915:	e9 1d 60 00 00       	jmp    80106937 <alltraps>

8010091a <vector223>:
.globl vector223
vector223:
  pushl $0
8010091a:	6a 00                	push   $0x0
  pushl $223
8010091c:	68 df 00 00 00       	push   $0xdf
  jmp alltraps
80100921:	e9 11 60 00 00       	jmp    80106937 <alltraps>

80100926 <vector224>:
.globl vector224
vector224:
  pushl $0
80100926:	6a 00                	push   $0x0
  pushl $224
80100928:	68 e0 00 00 00       	push   $0xe0
  jmp alltraps
8010092d:	e9 05 60 00 00       	jmp    80106937 <alltraps>

80100932 <vector225>:
.globl vector225
vector225:
  pushl $0
80100932:	6a 00                	push   $0x0
  pushl $225
80100934:	68 e1 00 00 00       	push   $0xe1
  jmp alltraps
80100939:	e9 f9 5f 00 00       	jmp    80106937 <alltraps>

8010093e <vector226>:
.globl vector226
vector226:
  pushl $0
8010093e:	6a 00                	push   $0x0
  pushl $226
80100940:	68 e2 00 00 00       	push   $0xe2
  jmp alltraps
80100945:	e9 ed 5f 00 00       	jmp    80106937 <alltraps>

8010094a <vector227>:
.globl vector227
vector227:
  pushl $0
8010094a:	6a 00                	push   $0x0
  pushl $227
8010094c:	68 e3 00 00 00       	push   $0xe3
  jmp alltraps
80100951:	e9 e1 5f 00 00       	jmp    80106937 <alltraps>

80100956 <vector228>:
.globl vector228
vector228:
  pushl $0
80100956:	6a 00                	push   $0x0
  pushl $228
80100958:	68 e4 00 00 00       	push   $0xe4
  jmp alltraps
8010095d:	e9 d5 5f 00 00       	jmp    80106937 <alltraps>

80100962 <vector229>:
.globl vector229
vector229:
  pushl $0
80100962:	6a 00                	push   $0x0
  pushl $229
80100964:	68 e5 00 00 00       	push   $0xe5
  jmp alltraps
80100969:	e9 c9 5f 00 00       	jmp    80106937 <alltraps>

8010096e <vector230>:
.globl vector230
vector230:
  pushl $0
8010096e:	6a 00                	push   $0x0
  pushl $230
80100970:	68 e6 00 00 00       	push   $0xe6
  jmp alltraps
80100975:	e9 bd 5f 00 00       	jmp    80106937 <alltraps>

8010097a <vector231>:
.globl vector231
vector231:
  pushl $0
8010097a:	6a 00                	push   $0x0
  pushl $231
8010097c:	68 e7 00 00 00       	push   $0xe7
  jmp alltraps
80100981:	e9 b1 5f 00 00       	jmp    80106937 <alltraps>

80100986 <vector232>:
.globl vector232
vector232:
  pushl $0
80100986:	6a 00                	push   $0x0
  pushl $232
80100988:	68 e8 00 00 00       	push   $0xe8
  jmp alltraps
8010098d:	e9 a5 5f 00 00       	jmp    80106937 <alltraps>

80100992 <vector233>:
.globl vector233
vector233:
  pushl $0
80100992:	6a 00                	push   $0x0
  pushl $233
80100994:	68 e9 00 00 00       	push   $0xe9
  jmp alltraps
80100999:	e9 99 5f 00 00       	jmp    80106937 <alltraps>

8010099e <vector234>:
.globl vector234
vector234:
  pushl $0
8010099e:	6a 00                	push   $0x0
  pushl $234
801009a0:	68 ea 00 00 00       	push   $0xea
  jmp alltraps
801009a5:	e9 8d 5f 00 00       	jmp    80106937 <alltraps>

801009aa <vector235>:
.globl vector235
vector235:
  pushl $0
801009aa:	6a 00                	push   $0x0
  pushl $235
801009ac:	68 eb 00 00 00       	push   $0xeb
  jmp alltraps
801009b1:	e9 81 5f 00 00       	jmp    80106937 <alltraps>

801009b6 <vector236>:
.globl vector236
vector236:
  pushl $0
801009b6:	6a 00                	push   $0x0
  pushl $236
801009b8:	68 ec 00 00 00       	push   $0xec
  jmp alltraps
801009bd:	e9 75 5f 00 00       	jmp    80106937 <alltraps>

801009c2 <vector237>:
.globl vector237
vector237:
  pushl $0
801009c2:	6a 00                	push   $0x0
  pushl $237
801009c4:	68 ed 00 00 00       	push   $0xed
  jmp alltraps
801009c9:	e9 69 5f 00 00       	jmp    80106937 <alltraps>

801009ce <vector238>:
.globl vector238
vector238:
  pushl $0
801009ce:	6a 00                	push   $0x0
  pushl $238
801009d0:	68 ee 00 00 00       	push   $0xee
  jmp alltraps
801009d5:	e9 5d 5f 00 00       	jmp    80106937 <alltraps>

801009da <vector239>:
.globl vector239
vector239:
  pushl $0
801009da:	6a 00                	push   $0x0
  pushl $239
801009dc:	68 ef 00 00 00       	push   $0xef
  jmp alltraps
801009e1:	e9 51 5f 00 00       	jmp    80106937 <alltraps>

801009e6 <vector240>:
.globl vector240
vector240:
  pushl $0
801009e6:	6a 00                	push   $0x0
  pushl $240
801009e8:	68 f0 00 00 00       	push   $0xf0
  jmp alltraps
801009ed:	e9 45 5f 00 00       	jmp    80106937 <alltraps>

801009f2 <vector241>:
.globl vector241
vector241:
  pushl $0
801009f2:	6a 00                	push   $0x0
  pushl $241
801009f4:	68 f1 00 00 00       	push   $0xf1
  jmp alltraps
801009f9:	e9 39 5f 00 00       	jmp    80106937 <alltraps>

801009fe <vector242>:
.globl vector242
vector242:
  pushl $0
801009fe:	6a 00                	push   $0x0
  pushl $242
80100a00:	68 f2 00 00 00       	push   $0xf2
  jmp alltraps
80100a05:	e9 2d 5f 00 00       	jmp    80106937 <alltraps>

80100a0a <vector243>:
.globl vector243
vector243:
  pushl $0
80100a0a:	6a 00                	push   $0x0
  pushl $243
80100a0c:	68 f3 00 00 00       	push   $0xf3
  jmp alltraps
80100a11:	e9 21 5f 00 00       	jmp    80106937 <alltraps>

80100a16 <vector244>:
.globl vector244
vector244:
  pushl $0
80100a16:	6a 00                	push   $0x0
  pushl $244
80100a18:	68 f4 00 00 00       	push   $0xf4
  jmp alltraps
80100a1d:	e9 15 5f 00 00       	jmp    80106937 <alltraps>

80100a22 <vector245>:
.globl vector245
vector245:
  pushl $0
80100a22:	6a 00                	push   $0x0
  pushl $245
80100a24:	68 f5 00 00 00       	push   $0xf5
  jmp alltraps
80100a29:	e9 09 5f 00 00       	jmp    80106937 <alltraps>

80100a2e <vector246>:
.globl vector246
vector246:
  pushl $0
80100a2e:	6a 00                	push   $0x0
  pushl $246
80100a30:	68 f6 00 00 00       	push   $0xf6
  jmp alltraps
80100a35:	e9 fd 5e 00 00       	jmp    80106937 <alltraps>

80100a3a <vector247>:
.globl vector247
vector247:
  pushl $0
80100a3a:	6a 00                	push   $0x0
  pushl $247
80100a3c:	68 f7 00 00 00       	push   $0xf7
  jmp alltraps
80100a41:	e9 f1 5e 00 00       	jmp    80106937 <alltraps>

80100a46 <vector248>:
.globl vector248
vector248:
  pushl $0
80100a46:	6a 00                	push   $0x0
  pushl $248
80100a48:	68 f8 00 00 00       	push   $0xf8
  jmp alltraps
80100a4d:	e9 e5 5e 00 00       	jmp    80106937 <alltraps>

80100a52 <vector249>:
.globl vector249
vector249:
  pushl $0
80100a52:	6a 00                	push   $0x0
  pushl $249
80100a54:	68 f9 00 00 00       	push   $0xf9
  jmp alltraps
80100a59:	e9 d9 5e 00 00       	jmp    80106937 <alltraps>

80100a5e <vector250>:
.globl vector250
vector250:
  pushl $0
80100a5e:	6a 00                	push   $0x0
  pushl $250
80100a60:	68 fa 00 00 00       	push   $0xfa
  jmp alltraps
80100a65:	e9 cd 5e 00 00       	jmp    80106937 <alltraps>

80100a6a <vector251>:
.globl vector251
vector251:
  pushl $0
80100a6a:	6a 00                	push   $0x0
  pushl $251
80100a6c:	68 fb 00 00 00       	push   $0xfb
  jmp alltraps
80100a71:	e9 c1 5e 00 00       	jmp    80106937 <alltraps>

80100a76 <vector252>:
.globl vector252
vector252:
  pushl $0
80100a76:	6a 00                	push   $0x0
  pushl $252
80100a78:	68 fc 00 00 00       	push   $0xfc
  jmp alltraps
80100a7d:	e9 b5 5e 00 00       	jmp    80106937 <alltraps>

80100a82 <vector253>:
.globl vector253
vector253:
  pushl $0
80100a82:	6a 00                	push   $0x0
  pushl $253
80100a84:	68 fd 00 00 00       	push   $0xfd
  jmp alltraps
80100a89:	e9 a9 5e 00 00       	jmp    80106937 <alltraps>

80100a8e <vector254>:
.globl vector254
vector254:
  pushl $0
80100a8e:	6a 00                	push   $0x0
  pushl $254
80100a90:	68 fe 00 00 00       	push   $0xfe
  jmp alltraps
80100a95:	e9 9d 5e 00 00       	jmp    80106937 <alltraps>

80100a9a <vector255>:
.globl vector255
vector255:
  pushl $0
80100a9a:	6a 00                	push   $0x0
  pushl $255
80100a9c:	68 ff 00 00 00       	push   $0xff
  jmp alltraps
80100aa1:	e9 91 5e 00 00       	jmp    80106937 <alltraps>
80100aa6:	66 90                	xchg   %ax,%ax
80100aa8:	66 90                	xchg   %ax,%ax
80100aaa:	66 90                	xchg   %ax,%ax
80100aac:	66 90                	xchg   %ax,%ax
80100aae:	66 90                	xchg   %ax,%ax

80100ab0 <binit>:
	// Linked list of all buffers, through prev/next.
	// head.next is most recently used.
	struct buf head;
} bcache;

void binit(void) {
80100ab0:	55                   	push   %ebp
80100ab1:	89 e5                	mov    %esp,%ebp
80100ab3:	53                   	push   %ebx

	// PAGEBREAK!
	// Create linked list of buffers
	bcache.head.prev = &bcache.head;
	bcache.head.next = &bcache.head;
	for (b = bcache.buf; b < bcache.buf + NBUF; b++) {
80100ab4:	bb d4 f9 11 80       	mov    $0x8011f9d4,%ebx
void binit(void) {
80100ab9:	83 ec 0c             	sub    $0xc,%esp
	initlock(&bcache.lock, "bcache");
80100abc:	68 80 b1 10 80       	push   $0x8010b180
80100ac1:	68 a0 f9 11 80       	push   $0x8011f9a0
80100ac6:	e8 b5 48 00 00       	call   80105380 <initlock>
	bcache.head.next = &bcache.head;
80100acb:	83 c4 10             	add    $0x10,%esp
80100ace:	b8 9c f4 12 80       	mov    $0x8012f49c,%eax
	bcache.head.prev = &bcache.head;
80100ad3:	c7 05 ec f4 12 80 9c 	movl   $0x8012f49c,0x8012f4ec
80100ada:	f4 12 80 
	bcache.head.next = &bcache.head;
80100add:	c7 05 f0 f4 12 80 9c 	movl   $0x8012f49c,0x8012f4f0
80100ae4:	f4 12 80 
	for (b = bcache.buf; b < bcache.buf + NBUF; b++) {
80100ae7:	eb 09                	jmp    80100af2 <binit+0x42>
80100ae9:	8d b4 26 00 00 00 00 	lea    0x0(%esi,%eiz,1),%esi
80100af0:	89 d3                	mov    %edx,%ebx
		b->next = bcache.head.next;
80100af2:	89 43 54             	mov    %eax,0x54(%ebx)
		b->prev = &bcache.head;
		initsleeplock(&b->lock, "buffer");
80100af5:	83 ec 08             	sub    $0x8,%esp
80100af8:	8d 43 0c             	lea    0xc(%ebx),%eax
		b->prev = &bcache.head;
80100afb:	c7 43 50 9c f4 12 80 	movl   $0x8012f49c,0x50(%ebx)
		initsleeplock(&b->lock, "buffer");
80100b02:	68 87 b1 10 80       	push   $0x8010b187
80100b07:	50                   	push   %eax
80100b08:	e8 43 47 00 00       	call   80105250 <initsleeplock>
		bcache.head.next->prev = b;
80100b0d:	a1 f0 f4 12 80       	mov    0x8012f4f0,%eax
	for (b = bcache.buf; b < bcache.buf + NBUF; b++) {
80100b12:	8d 93 5c 08 00 00    	lea    0x85c(%ebx),%edx
80100b18:	83 c4 10             	add    $0x10,%esp
		bcache.head.next->prev = b;
80100b1b:	89 58 50             	mov    %ebx,0x50(%eax)
		bcache.head.next = b;
80100b1e:	89 d8                	mov    %ebx,%eax
80100b20:	89 1d f0 f4 12 80    	mov    %ebx,0x8012f4f0
	for (b = bcache.buf; b < bcache.buf + NBUF; b++) {
80100b26:	81 fb 40 ec 12 80    	cmp    $0x8012ec40,%ebx
80100b2c:	75 c2                	jne    80100af0 <binit+0x40>
	}
}
80100b2e:	8b 5d fc             	mov    -0x4(%ebp),%ebx
80100b31:	c9                   	leave
80100b32:	c3                   	ret
80100b33:	2e 8d b4 26 00 00 00 	lea    %cs:0x0(%esi,%eiz,1),%esi
80100b3a:	00 
80100b3b:	2e 8d 74 26 00       	lea    %cs:0x0(%esi,%eiz,1),%esi

80100b40 <bread>:
	}
	panic("bget: no buffers");
}

// Return a locked buf with the contents of the indicated block.
struct buf *bread(uint dev, uint blockno) {
80100b40:	55                   	push   %ebp
80100b41:	89 e5                	mov    %esp,%ebp
80100b43:	57                   	push   %edi
80100b44:	56                   	push   %esi
80100b45:	53                   	push   %ebx
80100b46:	83 ec 18             	sub    $0x18,%esp
80100b49:	8b 75 08             	mov    0x8(%ebp),%esi
80100b4c:	8b 7d 0c             	mov    0xc(%ebp),%edi
	acquire(&bcache.lock);
80100b4f:	68 a0 f9 11 80       	push   $0x8011f9a0
80100b54:	e8 17 4a 00 00       	call   80105570 <acquire>
	for (b = bcache.head.next; b != &bcache.head; b = b->next) {
80100b59:	8b 1d f0 f4 12 80    	mov    0x8012f4f0,%ebx
80100b5f:	83 c4 10             	add    $0x10,%esp
80100b62:	81 fb 9c f4 12 80    	cmp    $0x8012f49c,%ebx
80100b68:	75 11                	jne    80100b7b <bread+0x3b>
80100b6a:	eb 24                	jmp    80100b90 <bread+0x50>
80100b6c:	8d 74 26 00          	lea    0x0(%esi,%eiz,1),%esi
80100b70:	8b 5b 54             	mov    0x54(%ebx),%ebx
80100b73:	81 fb 9c f4 12 80    	cmp    $0x8012f49c,%ebx
80100b79:	74 15                	je     80100b90 <bread+0x50>
		if (b->dev == dev && b->blockno == blockno) {
80100b7b:	3b 73 04             	cmp    0x4(%ebx),%esi
80100b7e:	75 f0                	jne    80100b70 <bread+0x30>
80100b80:	3b 7b 08             	cmp    0x8(%ebx),%edi
80100b83:	75 eb                	jne    80100b70 <bread+0x30>
			b->refcnt++;
80100b85:	83 43 4c 01          	addl   $0x1,0x4c(%ebx)
			release(&bcache.lock);
80100b89:	eb 3f                	jmp    80100bca <bread+0x8a>
80100b8b:	2e 8d 74 26 00       	lea    %cs:0x0(%esi,%eiz,1),%esi
	for (b = bcache.head.prev; b != &bcache.head; b = b->prev) {
80100b90:	8b 1d ec f4 12 80    	mov    0x8012f4ec,%ebx
80100b96:	81 fb 9c f4 12 80    	cmp    $0x8012f49c,%ebx
80100b9c:	75 0d                	jne    80100bab <bread+0x6b>
80100b9e:	eb 6e                	jmp    80100c0e <bread+0xce>
80100ba0:	8b 5b 50             	mov    0x50(%ebx),%ebx
80100ba3:	81 fb 9c f4 12 80    	cmp    $0x8012f49c,%ebx
80100ba9:	74 63                	je     80100c0e <bread+0xce>
		if (b->refcnt == 0 && (b->flags & B_DIRTY) == 0) {
80100bab:	8b 43 4c             	mov    0x4c(%ebx),%eax
80100bae:	85 c0                	test   %eax,%eax
80100bb0:	75 ee                	jne    80100ba0 <bread+0x60>
80100bb2:	f6 03 04             	testb  $0x4,(%ebx)
80100bb5:	75 e9                	jne    80100ba0 <bread+0x60>
			b->dev = dev;
80100bb7:	89 73 04             	mov    %esi,0x4(%ebx)
			b->blockno = blockno;
80100bba:	89 7b 08             	mov    %edi,0x8(%ebx)
			b->flags = 0;
80100bbd:	c7 03 00 00 00 00    	movl   $0x0,(%ebx)
			b->refcnt = 1;
80100bc3:	c7 43 4c 01 00 00 00 	movl   $0x1,0x4c(%ebx)
			release(&bcache.lock);
80100bca:	83 ec 0c             	sub    $0xc,%esp
80100bcd:	68 a0 f9 11 80       	push   $0x8011f9a0
80100bd2:	e8 39 49 00 00       	call   80105510 <release>
			acquiresleep(&b->lock);
80100bd7:	8d 43 0c             	lea    0xc(%ebx),%eax
80100bda:	89 04 24             	mov    %eax,(%esp)
80100bdd:	e8 ae 46 00 00       	call   80105290 <acquiresleep>
			return b;
80100be2:	83 c4 10             	add    $0x10,%esp
	struct buf *b;

	b = bget(dev, blockno);
	if ((b->flags & B_VALID) == 0) {
80100be5:	f6 03 02             	testb  $0x2,(%ebx)
80100be8:	74 0e                	je     80100bf8 <bread+0xb8>
		iderw(b);
	}
	return b;
}
80100bea:	8d 65 f4             	lea    -0xc(%ebp),%esp
80100bed:	89 d8                	mov    %ebx,%eax
80100bef:	5b                   	pop    %ebx
80100bf0:	5e                   	pop    %esi
80100bf1:	5f                   	pop    %edi
80100bf2:	5d                   	pop    %ebp
80100bf3:	c3                   	ret
80100bf4:	8d 74 26 00          	lea    0x0(%esi,%eiz,1),%esi
		iderw(b);
80100bf8:	83 ec 0c             	sub    $0xc,%esp
80100bfb:	53                   	push   %ebx
80100bfc:	e8 bf 25 00 00       	call   801031c0 <iderw>
80100c01:	83 c4 10             	add    $0x10,%esp
}
80100c04:	8d 65 f4             	lea    -0xc(%ebp),%esp
80100c07:	89 d8                	mov    %ebx,%eax
80100c09:	5b                   	pop    %ebx
80100c0a:	5e                   	pop    %esi
80100c0b:	5f                   	pop    %edi
80100c0c:	5d                   	pop    %ebp
80100c0d:	c3                   	ret
	panic("bget: no buffers");
80100c0e:	83 ec 0c             	sub    $0xc,%esp
80100c11:	68 8e b1 10 80       	push   $0x8010b18e
80100c16:	e8 d5 01 00 00       	call   80100df0 <panic>
80100c1b:	2e 8d 74 26 00       	lea    %cs:0x0(%esi,%eiz,1),%esi

80100c20 <bwrite>:

// Write b's contents to disk.  Must be locked.
void bwrite(struct buf *b) {
80100c20:	55                   	push   %ebp
80100c21:	89 e5                	mov    %esp,%ebp
80100c23:	53                   	push   %ebx
80100c24:	83 ec 10             	sub    $0x10,%esp
80100c27:	8b 5d 08             	mov    0x8(%ebp),%ebx
	if (!holdingsleep(&b->lock))
80100c2a:	8d 43 0c             	lea    0xc(%ebx),%eax
80100c2d:	50                   	push   %eax
80100c2e:	e8 fd 46 00 00       	call   80105330 <holdingsleep>
80100c33:	83 c4 10             	add    $0x10,%esp
80100c36:	85 c0                	test   %eax,%eax
80100c38:	74 0f                	je     80100c49 <bwrite+0x29>
		panic("bwrite");
	b->flags |= B_DIRTY;
80100c3a:	83 0b 04             	orl    $0x4,(%ebx)
	iderw(b);
80100c3d:	89 5d 08             	mov    %ebx,0x8(%ebp)
}
80100c40:	8b 5d fc             	mov    -0x4(%ebp),%ebx
80100c43:	c9                   	leave
	iderw(b);
80100c44:	e9 77 25 00 00       	jmp    801031c0 <iderw>
		panic("bwrite");
80100c49:	83 ec 0c             	sub    $0xc,%esp
80100c4c:	68 9f b1 10 80       	push   $0x8010b19f
80100c51:	e8 9a 01 00 00       	call   80100df0 <panic>
80100c56:	2e 8d b4 26 00 00 00 	lea    %cs:0x0(%esi,%eiz,1),%esi
80100c5d:	00 
80100c5e:	66 90                	xchg   %ax,%ax

80100c60 <brelse>:

// Release a locked buffer.
// Move to the head of the MRU list.
void brelse(struct buf *b) {
80100c60:	55                   	push   %ebp
80100c61:	89 e5                	mov    %esp,%ebp
80100c63:	56                   	push   %esi
80100c64:	53                   	push   %ebx
80100c65:	8b 5d 08             	mov    0x8(%ebp),%ebx
	if (!holdingsleep(&b->lock))
80100c68:	8d 73 0c             	lea    0xc(%ebx),%esi
80100c6b:	83 ec 0c             	sub    $0xc,%esp
80100c6e:	56                   	push   %esi
80100c6f:	e8 bc 46 00 00       	call   80105330 <holdingsleep>
80100c74:	83 c4 10             	add    $0x10,%esp
80100c77:	85 c0                	test   %eax,%eax
80100c79:	74 63                	je     80100cde <brelse+0x7e>
		panic("brelse");

	releasesleep(&b->lock);
80100c7b:	83 ec 0c             	sub    $0xc,%esp
80100c7e:	56                   	push   %esi
80100c7f:	e8 6c 46 00 00       	call   801052f0 <releasesleep>

	acquire(&bcache.lock);
80100c84:	c7 04 24 a0 f9 11 80 	movl   $0x8011f9a0,(%esp)
80100c8b:	e8 e0 48 00 00       	call   80105570 <acquire>
	b->refcnt--;
80100c90:	8b 43 4c             	mov    0x4c(%ebx),%eax
	if (b->refcnt == 0) {
80100c93:	83 c4 10             	add    $0x10,%esp
	b->refcnt--;
80100c96:	83 e8 01             	sub    $0x1,%eax
80100c99:	89 43 4c             	mov    %eax,0x4c(%ebx)
	if (b->refcnt == 0) {
80100c9c:	85 c0                	test   %eax,%eax
80100c9e:	75 2c                	jne    80100ccc <brelse+0x6c>
		// no one is waiting for it.
		b->next->prev = b->prev;
80100ca0:	8b 53 54             	mov    0x54(%ebx),%edx
80100ca3:	8b 43 50             	mov    0x50(%ebx),%eax
80100ca6:	89 42 50             	mov    %eax,0x50(%edx)
		b->prev->next = b->next;
80100ca9:	8b 53 54             	mov    0x54(%ebx),%edx
80100cac:	89 50 54             	mov    %edx,0x54(%eax)
		b->next = bcache.head.next;
80100caf:	a1 f0 f4 12 80       	mov    0x8012f4f0,%eax
		b->prev = &bcache.head;
80100cb4:	c7 43 50 9c f4 12 80 	movl   $0x8012f49c,0x50(%ebx)
		b->next = bcache.head.next;
80100cbb:	89 43 54             	mov    %eax,0x54(%ebx)
		bcache.head.next->prev = b;
80100cbe:	a1 f0 f4 12 80       	mov    0x8012f4f0,%eax
80100cc3:	89 58 50             	mov    %ebx,0x50(%eax)
		bcache.head.next = b;
80100cc6:	89 1d f0 f4 12 80    	mov    %ebx,0x8012f4f0
	}

	release(&bcache.lock);
80100ccc:	c7 45 08 a0 f9 11 80 	movl   $0x8011f9a0,0x8(%ebp)
}
80100cd3:	8d 65 f8             	lea    -0x8(%ebp),%esp
80100cd6:	5b                   	pop    %ebx
80100cd7:	5e                   	pop    %esi
80100cd8:	5d                   	pop    %ebp
	release(&bcache.lock);
80100cd9:	e9 32 48 00 00       	jmp    80105510 <release>
		panic("brelse");
80100cde:	83 ec 0c             	sub    $0xc,%esp
80100ce1:	68 a6 b1 10 80       	push   $0x8010b1a6
80100ce6:	e8 05 01 00 00       	call   80100df0 <panic>
80100ceb:	66 90                	xchg   %ax,%ax
80100ced:	66 90                	xchg   %ax,%ax
80100cef:	90                   	nop

80100cf0 <consoleread>:
	if (doprocdump) {
		procdump(); // now call procdump() wo. cons.lock held
	}
}

int consoleread(struct inode *ip, char *dst, int n) {
80100cf0:	55                   	push   %ebp
80100cf1:	89 e5                	mov    %esp,%ebp
80100cf3:	57                   	push   %edi
80100cf4:	56                   	push   %esi
80100cf5:	53                   	push   %ebx
80100cf6:	83 ec 18             	sub    $0x18,%esp
80100cf9:	8b 5d 10             	mov    0x10(%ebp),%ebx
80100cfc:	8b 75 0c             	mov    0xc(%ebp),%esi
	uint target;
	int c;

	iunlock(ip);
80100cff:	ff 75 08             	push   0x8(%ebp)
	target = n;
80100d02:	89 df                	mov    %ebx,%edi
	iunlock(ip);
80100d04:	e8 57 18 00 00       	call   80102560 <iunlock>
	acquire(&cons.lock);
80100d09:	c7 04 24 a0 fd 12 80 	movl   $0x8012fda0,(%esp)
80100d10:	e8 5b 48 00 00       	call   80105570 <acquire>
	while (n > 0) {
80100d15:	83 c4 10             	add    $0x10,%esp
80100d18:	85 db                	test   %ebx,%ebx
80100d1a:	0f 8e 94 00 00 00    	jle    80100db4 <consoleread+0xc4>
		while (input.r == input.w) {
80100d20:	a1 80 fd 12 80       	mov    0x8012fd80,%eax
80100d25:	39 05 84 fd 12 80    	cmp    %eax,0x8012fd84
80100d2b:	74 25                	je     80100d52 <consoleread+0x62>
80100d2d:	eb 59                	jmp    80100d88 <consoleread+0x98>
80100d2f:	90                   	nop
			if (myproc()->killed) {
				release(&cons.lock);
				ilock(ip);
				return -1;
			}
			sleep(&input.r, &cons.lock);
80100d30:	83 ec 08             	sub    $0x8,%esp
80100d33:	68 a0 fd 12 80       	push   $0x8012fda0
80100d38:	68 80 fd 12 80       	push   $0x8012fd80
80100d3d:	e8 8e 42 00 00       	call   80104fd0 <sleep>
		while (input.r == input.w) {
80100d42:	a1 80 fd 12 80       	mov    0x8012fd80,%eax
80100d47:	83 c4 10             	add    $0x10,%esp
80100d4a:	3b 05 84 fd 12 80    	cmp    0x8012fd84,%eax
80100d50:	75 36                	jne    80100d88 <consoleread+0x98>
			if (myproc()->killed) {
80100d52:	e8 99 3b 00 00       	call   801048f0 <myproc>
80100d57:	8b 48 24             	mov    0x24(%eax),%ecx
80100d5a:	85 c9                	test   %ecx,%ecx
80100d5c:	74 d2                	je     80100d30 <consoleread+0x40>
				release(&cons.lock);
80100d5e:	83 ec 0c             	sub    $0xc,%esp
80100d61:	68 a0 fd 12 80       	push   $0x8012fda0
80100d66:	e8 a5 47 00 00       	call   80105510 <release>
				ilock(ip);
80100d6b:	5a                   	pop    %edx
80100d6c:	ff 75 08             	push   0x8(%ebp)
80100d6f:	e8 0c 17 00 00       	call   80102480 <ilock>
				return -1;
80100d74:	83 c4 10             	add    $0x10,%esp
	}
	release(&cons.lock);
	ilock(ip);

	return target - n;
}
80100d77:	8d 65 f4             	lea    -0xc(%ebp),%esp
				return -1;
80100d7a:	b8 ff ff ff ff       	mov    $0xffffffff,%eax
}
80100d7f:	5b                   	pop    %ebx
80100d80:	5e                   	pop    %esi
80100d81:	5f                   	pop    %edi
80100d82:	5d                   	pop    %ebp
80100d83:	c3                   	ret
80100d84:	8d 74 26 00          	lea    0x0(%esi,%eiz,1),%esi
		c = input.buf[input.r++ % INPUT_BUF];
80100d88:	8d 50 01             	lea    0x1(%eax),%edx
80100d8b:	89 15 80 fd 12 80    	mov    %edx,0x8012fd80
80100d91:	89 c2                	mov    %eax,%edx
80100d93:	83 e2 7f             	and    $0x7f,%edx
80100d96:	0f be 8a 00 fd 12 80 	movsbl -0x7fed0300(%edx),%ecx
		if (c == C('D')) { // EOF
80100d9d:	80 f9 04             	cmp    $0x4,%cl
80100da0:	74 37                	je     80100dd9 <consoleread+0xe9>
		*dst++ = c;
80100da2:	83 c6 01             	add    $0x1,%esi
		--n;
80100da5:	83 eb 01             	sub    $0x1,%ebx
		*dst++ = c;
80100da8:	88 4e ff             	mov    %cl,-0x1(%esi)
		if (c == '\n')
80100dab:	83 f9 0a             	cmp    $0xa,%ecx
80100dae:	0f 85 64 ff ff ff    	jne    80100d18 <consoleread+0x28>
	release(&cons.lock);
80100db4:	83 ec 0c             	sub    $0xc,%esp
80100db7:	68 a0 fd 12 80       	push   $0x8012fda0
80100dbc:	e8 4f 47 00 00       	call   80105510 <release>
	ilock(ip);
80100dc1:	58                   	pop    %eax
80100dc2:	ff 75 08             	push   0x8(%ebp)
80100dc5:	e8 b6 16 00 00       	call   80102480 <ilock>
	return target - n;
80100dca:	89 f8                	mov    %edi,%eax
80100dcc:	83 c4 10             	add    $0x10,%esp
}
80100dcf:	8d 65 f4             	lea    -0xc(%ebp),%esp
	return target - n;
80100dd2:	29 d8                	sub    %ebx,%eax
}
80100dd4:	5b                   	pop    %ebx
80100dd5:	5e                   	pop    %esi
80100dd6:	5f                   	pop    %edi
80100dd7:	5d                   	pop    %ebp
80100dd8:	c3                   	ret
			if (n < target) {
80100dd9:	39 fb                	cmp    %edi,%ebx
80100ddb:	73 d7                	jae    80100db4 <consoleread+0xc4>
				input.r--;
80100ddd:	a3 80 fd 12 80       	mov    %eax,0x8012fd80
80100de2:	eb d0                	jmp    80100db4 <consoleread+0xc4>
80100de4:	2e 8d b4 26 00 00 00 	lea    %cs:0x0(%esi,%eiz,1),%esi
80100deb:	00 
80100dec:	8d 74 26 00          	lea    0x0(%esi,%eiz,1),%esi

80100df0 <panic>:
void panic(char *s) {
80100df0:	55                   	push   %ebp
80100df1:	89 e5                	mov    %esp,%ebp
80100df3:	56                   	push   %esi
80100df4:	53                   	push   %ebx
80100df5:	83 ec 30             	sub    $0x30,%esp

static inline void loadgs(ushort v) {
	asm volatile("movw %0, %%gs" : : "r"(v));
}

static inline void cli(void) { asm volatile("cli"); }
80100df8:	fa                   	cli
	cons.locking = 0;
80100df9:	c7 05 d4 fd 12 80 00 	movl   $0x0,0x8012fdd4
80100e00:	00 00 00 
	getcallerpcs(&s, pcs);
80100e03:	8d 5d d0             	lea    -0x30(%ebp),%ebx
80100e06:	8d 75 f8             	lea    -0x8(%ebp),%esi
	cprintf("lapicid %d: panic: ", lapicid());
80100e09:	e8 32 2a 00 00       	call   80103840 <lapicid>
80100e0e:	83 ec 08             	sub    $0x8,%esp
80100e11:	50                   	push   %eax
80100e12:	68 ad b1 10 80       	push   $0x8010b1ad
80100e17:	e8 04 03 00 00       	call   80101120 <cprintf>
	cprintf(s);
80100e1c:	58                   	pop    %eax
80100e1d:	ff 75 08             	push   0x8(%ebp)
80100e20:	e8 fb 02 00 00       	call   80101120 <cprintf>
	cprintf("\n");
80100e25:	c7 04 24 a5 b7 10 80 	movl   $0x8010b7a5,(%esp)
80100e2c:	e8 ef 02 00 00       	call   80101120 <cprintf>
	getcallerpcs(&s, pcs);
80100e31:	8d 45 08             	lea    0x8(%ebp),%eax
80100e34:	5a                   	pop    %edx
80100e35:	59                   	pop    %ecx
80100e36:	53                   	push   %ebx
80100e37:	50                   	push   %eax
80100e38:	e8 63 45 00 00       	call   801053a0 <getcallerpcs>
	for (i = 0; i < 10; i++)
80100e3d:	83 c4 10             	add    $0x10,%esp
		cprintf(" %p", pcs[i]);
80100e40:	83 ec 08             	sub    $0x8,%esp
80100e43:	ff 33                	push   (%ebx)
	for (i = 0; i < 10; i++)
80100e45:	83 c3 04             	add    $0x4,%ebx
		cprintf(" %p", pcs[i]);
80100e48:	68 c1 b1 10 80       	push   $0x8010b1c1
80100e4d:	e8 ce 02 00 00       	call   80101120 <cprintf>
	for (i = 0; i < 10; i++)
80100e52:	83 c4 10             	add    $0x10,%esp
80100e55:	39 f3                	cmp    %esi,%ebx
80100e57:	75 e7                	jne    80100e40 <panic+0x50>
	panicked = 1; // freeze other CPU
80100e59:	c7 05 d8 fd 12 80 01 	movl   $0x1,0x8012fdd8
80100e60:	00 00 00 
	for (;;)
80100e63:	eb fe                	jmp    80100e63 <panic+0x73>
80100e65:	2e 8d b4 26 00 00 00 	lea    %cs:0x0(%esi,%eiz,1),%esi
80100e6c:	00 
80100e6d:	8d 76 00             	lea    0x0(%esi),%esi

80100e70 <consputc.part.0>:
void consputc(int c) {
80100e70:	55                   	push   %ebp
80100e71:	89 e5                	mov    %esp,%ebp
80100e73:	57                   	push   %edi
80100e74:	56                   	push   %esi
80100e75:	53                   	push   %ebx
80100e76:	83 ec 1c             	sub    $0x1c,%esp
	if (c == BACKSPACE) {
80100e79:	3d 00 01 00 00       	cmp    $0x100,%eax
80100e7e:	0f 84 cc 00 00 00    	je     80100f50 <consputc.part.0+0xe0>
		uartputc(c);
80100e84:	83 ec 0c             	sub    $0xc,%esp
	asm volatile("out %0,%1" : : "a"(data), "d"(port));
80100e87:	bf d4 03 00 00       	mov    $0x3d4,%edi
80100e8c:	89 c3                	mov    %eax,%ebx
80100e8e:	50                   	push   %eax
80100e8f:	e8 4c 5f 00 00       	call   80106de0 <uartputc>
80100e94:	b8 0e 00 00 00       	mov    $0xe,%eax
80100e99:	89 fa                	mov    %edi,%edx
80100e9b:	ee                   	out    %al,(%dx)
	asm volatile("in %1,%0" : "=a"(data) : "d"(port));
80100e9c:	be d5 03 00 00       	mov    $0x3d5,%esi
80100ea1:	89 f2                	mov    %esi,%edx
80100ea3:	ec                   	in     (%dx),%al
	pos = inb(CRTPORT + 1) << 8;
80100ea4:	0f b6 c8             	movzbl %al,%ecx
	asm volatile("out %0,%1" : : "a"(data), "d"(port));
80100ea7:	89 fa                	mov    %edi,%edx
80100ea9:	b8 0f 00 00 00       	mov    $0xf,%eax
80100eae:	c1 e1 08             	shl    $0x8,%ecx
80100eb1:	ee                   	out    %al,(%dx)
	asm volatile("in %1,%0" : "=a"(data) : "d"(port));
80100eb2:	89 f2                	mov    %esi,%edx
80100eb4:	ec                   	in     (%dx),%al
	pos |= inb(CRTPORT + 1);
80100eb5:	0f b6 c0             	movzbl %al,%eax
	if (c == '\n')
80100eb8:	83 c4 10             	add    $0x10,%esp
	pos |= inb(CRTPORT + 1);
80100ebb:	09 c8                	or     %ecx,%eax
	if (c == '\n')
80100ebd:	83 fb 0a             	cmp    $0xa,%ebx
80100ec0:	75 76                	jne    80100f38 <consputc.part.0+0xc8>
		pos += 80 - pos % 80;
80100ec2:	ba cd cc cc cc       	mov    $0xcccccccd,%edx
80100ec7:	f7 e2                	mul    %edx
80100ec9:	c1 ea 06             	shr    $0x6,%edx
80100ecc:	8d 04 92             	lea    (%edx,%edx,4),%eax
80100ecf:	c1 e0 04             	shl    $0x4,%eax
80100ed2:	8d 70 50             	lea    0x50(%eax),%esi
	if (pos < 0 || pos > 25 * 80)
80100ed5:	81 fe d0 07 00 00    	cmp    $0x7d0,%esi
80100edb:	0f 8f 2f 01 00 00    	jg     80101010 <consputc.part.0+0x1a0>
	if ((pos / 80) >= 24) { // Scroll up.
80100ee1:	81 fe 7f 07 00 00    	cmp    $0x77f,%esi
80100ee7:	0f 8f c3 00 00 00    	jg     80100fb0 <consputc.part.0+0x140>
	outb(CRTPORT + 1, pos >> 8);
80100eed:	89 f0                	mov    %esi,%eax
	crt[pos] = ' ' | 0x0700;
80100eef:	8d b4 36 00 80 0b 80 	lea    -0x7ff48000(%esi,%esi,1),%esi
	outb(CRTPORT + 1, pos);
80100ef6:	88 45 e7             	mov    %al,-0x19(%ebp)
	outb(CRTPORT + 1, pos >> 8);
80100ef9:	0f b6 fc             	movzbl %ah,%edi
	asm volatile("out %0,%1" : : "a"(data), "d"(port));
80100efc:	bb d4 03 00 00       	mov    $0x3d4,%ebx
80100f01:	b8 0e 00 00 00       	mov    $0xe,%eax
80100f06:	89 da                	mov    %ebx,%edx
80100f08:	ee                   	out    %al,(%dx)
80100f09:	b9 d5 03 00 00       	mov    $0x3d5,%ecx
80100f0e:	89 f8                	mov    %edi,%eax
80100f10:	89 ca                	mov    %ecx,%edx
80100f12:	ee                   	out    %al,(%dx)
80100f13:	b8 0f 00 00 00       	mov    $0xf,%eax
80100f18:	89 da                	mov    %ebx,%edx
80100f1a:	ee                   	out    %al,(%dx)
80100f1b:	0f b6 45 e7          	movzbl -0x19(%ebp),%eax
80100f1f:	89 ca                	mov    %ecx,%edx
80100f21:	ee                   	out    %al,(%dx)
	crt[pos] = ' ' | 0x0700;
80100f22:	b8 20 07 00 00       	mov    $0x720,%eax
80100f27:	66 89 06             	mov    %ax,(%esi)
}
80100f2a:	8d 65 f4             	lea    -0xc(%ebp),%esp
80100f2d:	5b                   	pop    %ebx
80100f2e:	5e                   	pop    %esi
80100f2f:	5f                   	pop    %edi
80100f30:	5d                   	pop    %ebp
80100f31:	c3                   	ret
80100f32:	8d b6 00 00 00 00    	lea    0x0(%esi),%esi
		crt[pos++] = (c & 0xff) | 0x0700; // black on white
80100f38:	0f b6 db             	movzbl %bl,%ebx
80100f3b:	8d 70 01             	lea    0x1(%eax),%esi
80100f3e:	80 cf 07             	or     $0x7,%bh
80100f41:	66 89 9c 00 00 80 0b 	mov    %bx,-0x7ff48000(%eax,%eax,1)
80100f48:	80 
80100f49:	eb 8a                	jmp    80100ed5 <consputc.part.0+0x65>
80100f4b:	2e 8d 74 26 00       	lea    %cs:0x0(%esi,%eiz,1),%esi
		uartputc('\b');
80100f50:	83 ec 0c             	sub    $0xc,%esp
80100f53:	be d4 03 00 00       	mov    $0x3d4,%esi
80100f58:	6a 08                	push   $0x8
80100f5a:	e8 81 5e 00 00       	call   80106de0 <uartputc>
		uartputc(' ');
80100f5f:	c7 04 24 20 00 00 00 	movl   $0x20,(%esp)
80100f66:	e8 75 5e 00 00       	call   80106de0 <uartputc>
		uartputc('\b');
80100f6b:	c7 04 24 08 00 00 00 	movl   $0x8,(%esp)
80100f72:	e8 69 5e 00 00       	call   80106de0 <uartputc>
80100f77:	b8 0e 00 00 00       	mov    $0xe,%eax
80100f7c:	89 f2                	mov    %esi,%edx
80100f7e:	ee                   	out    %al,(%dx)
	asm volatile("in %1,%0" : "=a"(data) : "d"(port));
80100f7f:	bb d5 03 00 00       	mov    $0x3d5,%ebx
80100f84:	89 da                	mov    %ebx,%edx
80100f86:	ec                   	in     (%dx),%al
	pos = inb(CRTPORT + 1) << 8;
80100f87:	0f b6 c8             	movzbl %al,%ecx
	asm volatile("out %0,%1" : : "a"(data), "d"(port));
80100f8a:	89 f2                	mov    %esi,%edx
80100f8c:	b8 0f 00 00 00       	mov    $0xf,%eax
80100f91:	c1 e1 08             	shl    $0x8,%ecx
80100f94:	ee                   	out    %al,(%dx)
	asm volatile("in %1,%0" : "=a"(data) : "d"(port));
80100f95:	89 da                	mov    %ebx,%edx
80100f97:	ec                   	in     (%dx),%al
	pos |= inb(CRTPORT + 1);
80100f98:	0f b6 f0             	movzbl %al,%esi
		if (pos > 0)
80100f9b:	83 c4 10             	add    $0x10,%esp
80100f9e:	09 ce                	or     %ecx,%esi
80100fa0:	74 5e                	je     80101000 <consputc.part.0+0x190>
			--pos;
80100fa2:	83 ee 01             	sub    $0x1,%esi
80100fa5:	e9 2b ff ff ff       	jmp    80100ed5 <consputc.part.0+0x65>
80100faa:	8d b6 00 00 00 00    	lea    0x0(%esi),%esi
		memmove(crt, crt + 80, sizeof(crt[0]) * 23 * 80);
80100fb0:	83 ec 04             	sub    $0x4,%esp
		pos -= 80;
80100fb3:	8d 5e b0             	lea    -0x50(%esi),%ebx
		memset(crt + pos, 0, sizeof(crt[0]) * (24 * 80 - pos));
80100fb6:	8d b4 36 60 7f 0b 80 	lea    -0x7ff480a0(%esi,%esi,1),%esi
	outb(CRTPORT + 1, pos);
80100fbd:	bf 07 00 00 00       	mov    $0x7,%edi
		memmove(crt, crt + 80, sizeof(crt[0]) * 23 * 80);
80100fc2:	68 60 0e 00 00       	push   $0xe60
80100fc7:	68 a0 80 0b 80       	push   $0x800b80a0
80100fcc:	68 00 80 0b 80       	push   $0x800b8000
80100fd1:	e8 2a 47 00 00       	call   80105700 <memmove>
		memset(crt + pos, 0, sizeof(crt[0]) * (24 * 80 - pos));
80100fd6:	b8 80 07 00 00       	mov    $0x780,%eax
80100fdb:	83 c4 0c             	add    $0xc,%esp
80100fde:	29 d8                	sub    %ebx,%eax
80100fe0:	01 c0                	add    %eax,%eax
80100fe2:	50                   	push   %eax
80100fe3:	6a 00                	push   $0x0
80100fe5:	56                   	push   %esi
80100fe6:	e8 85 46 00 00       	call   80105670 <memset>
	outb(CRTPORT + 1, pos);
80100feb:	88 5d e7             	mov    %bl,-0x19(%ebp)
80100fee:	83 c4 10             	add    $0x10,%esp
80100ff1:	e9 06 ff ff ff       	jmp    80100efc <consputc.part.0+0x8c>
80100ff6:	2e 8d b4 26 00 00 00 	lea    %cs:0x0(%esi,%eiz,1),%esi
80100ffd:	00 
80100ffe:	66 90                	xchg   %ax,%ax
80101000:	c6 45 e7 00          	movb   $0x0,-0x19(%ebp)
80101004:	be 00 80 0b 80       	mov    $0x800b8000,%esi
80101009:	31 ff                	xor    %edi,%edi
8010100b:	e9 ec fe ff ff       	jmp    80100efc <consputc.part.0+0x8c>
		panic("pos under/overflow");
80101010:	83 ec 0c             	sub    $0xc,%esp
80101013:	68 c5 b1 10 80       	push   $0x8010b1c5
80101018:	e8 d3 fd ff ff       	call   80100df0 <panic>
8010101d:	8d 76 00             	lea    0x0(%esi),%esi

80101020 <consolewrite>:

int consolewrite(struct inode *ip, char *buf, int n) {
80101020:	55                   	push   %ebp
80101021:	89 e5                	mov    %esp,%ebp
80101023:	57                   	push   %edi
80101024:	56                   	push   %esi
80101025:	53                   	push   %ebx
80101026:	83 ec 18             	sub    $0x18,%esp
80101029:	8b 75 10             	mov    0x10(%ebp),%esi
	int i;

	iunlock(ip);
8010102c:	ff 75 08             	push   0x8(%ebp)
8010102f:	e8 2c 15 00 00       	call   80102560 <iunlock>
	acquire(&cons.lock);
80101034:	c7 04 24 a0 fd 12 80 	movl   $0x8012fda0,(%esp)
8010103b:	e8 30 45 00 00       	call   80105570 <acquire>
	for (i = 0; i < n; i++)
80101040:	83 c4 10             	add    $0x10,%esp
80101043:	85 f6                	test   %esi,%esi
80101045:	7e 25                	jle    8010106c <consolewrite+0x4c>
80101047:	8b 5d 0c             	mov    0xc(%ebp),%ebx
8010104a:	8d 3c 33             	lea    (%ebx,%esi,1),%edi
	if (panicked) {
8010104d:	8b 15 d8 fd 12 80    	mov    0x8012fdd8,%edx
		consputc(buf[i] & 0xff);
80101053:	0f b6 03             	movzbl (%ebx),%eax
	if (panicked) {
80101056:	85 d2                	test   %edx,%edx
80101058:	74 06                	je     80101060 <consolewrite+0x40>
static inline void cli(void) { asm volatile("cli"); }
8010105a:	fa                   	cli
		for (;;)
8010105b:	eb fe                	jmp    8010105b <consolewrite+0x3b>
8010105d:	8d 76 00             	lea    0x0(%esi),%esi
80101060:	e8 0b fe ff ff       	call   80100e70 <consputc.part.0>
	for (i = 0; i < n; i++)
80101065:	83 c3 01             	add    $0x1,%ebx
80101068:	39 fb                	cmp    %edi,%ebx
8010106a:	75 e1                	jne    8010104d <consolewrite+0x2d>
	release(&cons.lock);
8010106c:	83 ec 0c             	sub    $0xc,%esp
8010106f:	68 a0 fd 12 80       	push   $0x8012fda0
80101074:	e8 97 44 00 00       	call   80105510 <release>
	ilock(ip);
80101079:	58                   	pop    %eax
8010107a:	ff 75 08             	push   0x8(%ebp)
8010107d:	e8 fe 13 00 00       	call   80102480 <ilock>

	return n;
}
80101082:	8d 65 f4             	lea    -0xc(%ebp),%esp
80101085:	89 f0                	mov    %esi,%eax
80101087:	5b                   	pop    %ebx
80101088:	5e                   	pop    %esi
80101089:	5f                   	pop    %edi
8010108a:	5d                   	pop    %ebp
8010108b:	c3                   	ret
8010108c:	8d 74 26 00          	lea    0x0(%esi,%eiz,1),%esi

80101090 <printint>:
static void printint(int xx, int base, int sign) {
80101090:	55                   	push   %ebp
80101091:	89 e5                	mov    %esp,%ebp
80101093:	57                   	push   %edi
80101094:	56                   	push   %esi
80101095:	53                   	push   %ebx
80101096:	89 d3                	mov    %edx,%ebx
80101098:	83 ec 2c             	sub    $0x2c,%esp
	if (sign && (sign = xx < 0))
8010109b:	85 c0                	test   %eax,%eax
8010109d:	79 05                	jns    801010a4 <printint+0x14>
8010109f:	83 e1 01             	and    $0x1,%ecx
801010a2:	75 64                	jne    80101108 <printint+0x78>
		x = xx;
801010a4:	c7 45 d4 00 00 00 00 	movl   $0x0,-0x2c(%ebp)
801010ab:	89 c1                	mov    %eax,%ecx
	i = 0;
801010ad:	31 f6                	xor    %esi,%esi
801010af:	90                   	nop
		buf[i++] = digits[x % base];
801010b0:	89 c8                	mov    %ecx,%eax
801010b2:	31 d2                	xor    %edx,%edx
801010b4:	89 f7                	mov    %esi,%edi
801010b6:	f7 f3                	div    %ebx
801010b8:	8d 76 01             	lea    0x1(%esi),%esi
801010bb:	0f b6 92 38 b8 10 80 	movzbl -0x7fef47c8(%edx),%edx
801010c2:	88 54 35 d7          	mov    %dl,-0x29(%ebp,%esi,1)
	} while ((x /= base) != 0);
801010c6:	89 ca                	mov    %ecx,%edx
801010c8:	89 c1                	mov    %eax,%ecx
801010ca:	39 da                	cmp    %ebx,%edx
801010cc:	73 e2                	jae    801010b0 <printint+0x20>
	if (sign)
801010ce:	8b 4d d4             	mov    -0x2c(%ebp),%ecx
801010d1:	85 c9                	test   %ecx,%ecx
801010d3:	74 07                	je     801010dc <printint+0x4c>
		buf[i++] = '-';
801010d5:	c6 44 35 d8 2d       	movb   $0x2d,-0x28(%ebp,%esi,1)
	while (--i >= 0)
801010da:	89 f7                	mov    %esi,%edi
801010dc:	8d 5d d8             	lea    -0x28(%ebp),%ebx
801010df:	01 df                	add    %ebx,%edi
	if (panicked) {
801010e1:	8b 15 d8 fd 12 80    	mov    0x8012fdd8,%edx
		consputc(buf[i]);
801010e7:	0f be 07             	movsbl (%edi),%eax
	if (panicked) {
801010ea:	85 d2                	test   %edx,%edx
801010ec:	74 0a                	je     801010f8 <printint+0x68>
801010ee:	fa                   	cli
		for (;;)
801010ef:	eb fe                	jmp    801010ef <printint+0x5f>
801010f1:	8d b4 26 00 00 00 00 	lea    0x0(%esi,%eiz,1),%esi
801010f8:	e8 73 fd ff ff       	call   80100e70 <consputc.part.0>
	while (--i >= 0)
801010fd:	8d 47 ff             	lea    -0x1(%edi),%eax
80101100:	39 df                	cmp    %ebx,%edi
80101102:	74 11                	je     80101115 <printint+0x85>
80101104:	89 c7                	mov    %eax,%edi
80101106:	eb d9                	jmp    801010e1 <printint+0x51>
		x = -xx;
80101108:	f7 d8                	neg    %eax
	if (sign && (sign = xx < 0))
8010110a:	c7 45 d4 01 00 00 00 	movl   $0x1,-0x2c(%ebp)
		x = -xx;
80101111:	89 c1                	mov    %eax,%ecx
80101113:	eb 98                	jmp    801010ad <printint+0x1d>
}
80101115:	83 c4 2c             	add    $0x2c,%esp
80101118:	5b                   	pop    %ebx
80101119:	5e                   	pop    %esi
8010111a:	5f                   	pop    %edi
8010111b:	5d                   	pop    %ebp
8010111c:	c3                   	ret
8010111d:	8d 76 00             	lea    0x0(%esi),%esi

80101120 <cprintf>:
void cprintf(char *fmt, ...) {
80101120:	55                   	push   %ebp
80101121:	89 e5                	mov    %esp,%ebp
80101123:	57                   	push   %edi
80101124:	56                   	push   %esi
80101125:	53                   	push   %ebx
80101126:	83 ec 1c             	sub    $0x1c,%esp
	locking = cons.locking;
80101129:	8b 3d d4 fd 12 80    	mov    0x8012fdd4,%edi
	if (fmt == 0)
8010112f:	8b 75 08             	mov    0x8(%ebp),%esi
	if (locking)
80101132:	85 ff                	test   %edi,%edi
80101134:	0f 85 06 01 00 00    	jne    80101240 <cprintf+0x120>
	if (fmt == 0)
8010113a:	85 f6                	test   %esi,%esi
8010113c:	0f 84 b7 01 00 00    	je     801012f9 <cprintf+0x1d9>
	for (i = 0; (c = fmt[i] & 0xff) != 0; i++) {
80101142:	0f b6 06             	movzbl (%esi),%eax
80101145:	85 c0                	test   %eax,%eax
80101147:	74 5f                	je     801011a8 <cprintf+0x88>
	argp = (uint *)(void *)(&fmt + 1);
80101149:	8d 55 0c             	lea    0xc(%ebp),%edx
	for (i = 0; (c = fmt[i] & 0xff) != 0; i++) {
8010114c:	89 7d e4             	mov    %edi,-0x1c(%ebp)
8010114f:	31 db                	xor    %ebx,%ebx
80101151:	89 d7                	mov    %edx,%edi
		if (c != '%') {
80101153:	83 f8 25             	cmp    $0x25,%eax
80101156:	75 58                	jne    801011b0 <cprintf+0x90>
		c = fmt[++i] & 0xff;
80101158:	83 c3 01             	add    $0x1,%ebx
8010115b:	0f b6 0c 1e          	movzbl (%esi,%ebx,1),%ecx
		if (c == 0)
8010115f:	85 c9                	test   %ecx,%ecx
80101161:	74 3a                	je     8010119d <cprintf+0x7d>
		switch (c) {
80101163:	83 f9 70             	cmp    $0x70,%ecx
80101166:	0f 84 b4 00 00 00    	je     80101220 <cprintf+0x100>
8010116c:	7f 72                	jg     801011e0 <cprintf+0xc0>
8010116e:	83 f9 25             	cmp    $0x25,%ecx
80101171:	74 4d                	je     801011c0 <cprintf+0xa0>
80101173:	83 f9 64             	cmp    $0x64,%ecx
80101176:	75 76                	jne    801011ee <cprintf+0xce>
			printint(*argp++, 10, 1);
80101178:	8d 47 04             	lea    0x4(%edi),%eax
8010117b:	b9 01 00 00 00       	mov    $0x1,%ecx
80101180:	ba 0a 00 00 00       	mov    $0xa,%edx
80101185:	89 45 e0             	mov    %eax,-0x20(%ebp)
80101188:	8b 07                	mov    (%edi),%eax
8010118a:	e8 01 ff ff ff       	call   80101090 <printint>
8010118f:	8b 7d e0             	mov    -0x20(%ebp),%edi
	for (i = 0; (c = fmt[i] & 0xff) != 0; i++) {
80101192:	83 c3 01             	add    $0x1,%ebx
80101195:	0f b6 04 1e          	movzbl (%esi,%ebx,1),%eax
80101199:	85 c0                	test   %eax,%eax
8010119b:	75 b6                	jne    80101153 <cprintf+0x33>
8010119d:	8b 7d e4             	mov    -0x1c(%ebp),%edi
	if (locking)
801011a0:	85 ff                	test   %edi,%edi
801011a2:	0f 85 bb 00 00 00    	jne    80101263 <cprintf+0x143>
}
801011a8:	8d 65 f4             	lea    -0xc(%ebp),%esp
801011ab:	5b                   	pop    %ebx
801011ac:	5e                   	pop    %esi
801011ad:	5f                   	pop    %edi
801011ae:	5d                   	pop    %ebp
801011af:	c3                   	ret
	if (panicked) {
801011b0:	8b 0d d8 fd 12 80    	mov    0x8012fdd8,%ecx
801011b6:	85 c9                	test   %ecx,%ecx
801011b8:	74 19                	je     801011d3 <cprintf+0xb3>
801011ba:	fa                   	cli
		for (;;)
801011bb:	eb fe                	jmp    801011bb <cprintf+0x9b>
801011bd:	8d 76 00             	lea    0x0(%esi),%esi
	if (panicked) {
801011c0:	8b 0d d8 fd 12 80    	mov    0x8012fdd8,%ecx
801011c6:	85 c9                	test   %ecx,%ecx
801011c8:	0f 85 f2 00 00 00    	jne    801012c0 <cprintf+0x1a0>
801011ce:	b8 25 00 00 00       	mov    $0x25,%eax
801011d3:	e8 98 fc ff ff       	call   80100e70 <consputc.part.0>
			break;
801011d8:	eb b8                	jmp    80101192 <cprintf+0x72>
801011da:	8d b6 00 00 00 00    	lea    0x0(%esi),%esi
		switch (c) {
801011e0:	83 f9 73             	cmp    $0x73,%ecx
801011e3:	0f 84 8f 00 00 00    	je     80101278 <cprintf+0x158>
801011e9:	83 f9 78             	cmp    $0x78,%ecx
801011ec:	74 32                	je     80101220 <cprintf+0x100>
	if (panicked) {
801011ee:	8b 15 d8 fd 12 80    	mov    0x8012fdd8,%edx
801011f4:	85 d2                	test   %edx,%edx
801011f6:	0f 85 b8 00 00 00    	jne    801012b4 <cprintf+0x194>
801011fc:	b8 25 00 00 00       	mov    $0x25,%eax
80101201:	89 4d e0             	mov    %ecx,-0x20(%ebp)
80101204:	e8 67 fc ff ff       	call   80100e70 <consputc.part.0>
80101209:	a1 d8 fd 12 80       	mov    0x8012fdd8,%eax
8010120e:	8b 4d e0             	mov    -0x20(%ebp),%ecx
80101211:	85 c0                	test   %eax,%eax
80101213:	0f 84 cd 00 00 00    	je     801012e6 <cprintf+0x1c6>
80101219:	fa                   	cli
		for (;;)
8010121a:	eb fe                	jmp    8010121a <cprintf+0xfa>
8010121c:	8d 74 26 00          	lea    0x0(%esi,%eiz,1),%esi
			printint(*argp++, 16, 0);
80101220:	8d 47 04             	lea    0x4(%edi),%eax
80101223:	31 c9                	xor    %ecx,%ecx
80101225:	ba 10 00 00 00       	mov    $0x10,%edx
8010122a:	89 45 e0             	mov    %eax,-0x20(%ebp)
8010122d:	8b 07                	mov    (%edi),%eax
8010122f:	e8 5c fe ff ff       	call   80101090 <printint>
80101234:	8b 7d e0             	mov    -0x20(%ebp),%edi
			break;
80101237:	e9 56 ff ff ff       	jmp    80101192 <cprintf+0x72>
8010123c:	8d 74 26 00          	lea    0x0(%esi,%eiz,1),%esi
		acquire(&cons.lock);
80101240:	83 ec 0c             	sub    $0xc,%esp
80101243:	68 a0 fd 12 80       	push   $0x8012fda0
80101248:	e8 23 43 00 00       	call   80105570 <acquire>
	if (fmt == 0)
8010124d:	83 c4 10             	add    $0x10,%esp
80101250:	85 f6                	test   %esi,%esi
80101252:	0f 84 a1 00 00 00    	je     801012f9 <cprintf+0x1d9>
	for (i = 0; (c = fmt[i] & 0xff) != 0; i++) {
80101258:	0f b6 06             	movzbl (%esi),%eax
8010125b:	85 c0                	test   %eax,%eax
8010125d:	0f 85 e6 fe ff ff    	jne    80101149 <cprintf+0x29>
		release(&cons.lock);
80101263:	83 ec 0c             	sub    $0xc,%esp
80101266:	68 a0 fd 12 80       	push   $0x8012fda0
8010126b:	e8 a0 42 00 00       	call   80105510 <release>
80101270:	83 c4 10             	add    $0x10,%esp
80101273:	e9 30 ff ff ff       	jmp    801011a8 <cprintf+0x88>
			if ((s = (char *)*argp++) == 0)
80101278:	8b 17                	mov    (%edi),%edx
8010127a:	8d 47 04             	lea    0x4(%edi),%eax
8010127d:	85 d2                	test   %edx,%edx
8010127f:	74 27                	je     801012a8 <cprintf+0x188>
			for (; *s; s++)
80101281:	0f b6 0a             	movzbl (%edx),%ecx
			if ((s = (char *)*argp++) == 0)
80101284:	89 d7                	mov    %edx,%edi
			for (; *s; s++)
80101286:	84 c9                	test   %cl,%cl
80101288:	74 68                	je     801012f2 <cprintf+0x1d2>
8010128a:	89 5d e0             	mov    %ebx,-0x20(%ebp)
8010128d:	89 fb                	mov    %edi,%ebx
8010128f:	89 f7                	mov    %esi,%edi
80101291:	89 c6                	mov    %eax,%esi
80101293:	0f be c1             	movsbl %cl,%eax
	if (panicked) {
80101296:	8b 15 d8 fd 12 80    	mov    0x8012fdd8,%edx
8010129c:	85 d2                	test   %edx,%edx
8010129e:	74 28                	je     801012c8 <cprintf+0x1a8>
801012a0:	fa                   	cli
		for (;;)
801012a1:	eb fe                	jmp    801012a1 <cprintf+0x181>
801012a3:	2e 8d 74 26 00       	lea    %cs:0x0(%esi,%eiz,1),%esi
801012a8:	b9 28 00 00 00       	mov    $0x28,%ecx
				s = "(null)";
801012ad:	bf d8 b1 10 80       	mov    $0x8010b1d8,%edi
801012b2:	eb d6                	jmp    8010128a <cprintf+0x16a>
801012b4:	fa                   	cli
		for (;;)
801012b5:	eb fe                	jmp    801012b5 <cprintf+0x195>
801012b7:	2e 8d b4 26 00 00 00 	lea    %cs:0x0(%esi,%eiz,1),%esi
801012be:	00 
801012bf:	90                   	nop
801012c0:	fa                   	cli
801012c1:	eb fe                	jmp    801012c1 <cprintf+0x1a1>
801012c3:	2e 8d 74 26 00       	lea    %cs:0x0(%esi,%eiz,1),%esi
801012c8:	e8 a3 fb ff ff       	call   80100e70 <consputc.part.0>
			for (; *s; s++)
801012cd:	0f be 43 01          	movsbl 0x1(%ebx),%eax
801012d1:	83 c3 01             	add    $0x1,%ebx
801012d4:	84 c0                	test   %al,%al
801012d6:	75 be                	jne    80101296 <cprintf+0x176>
			if ((s = (char *)*argp++) == 0)
801012d8:	89 f0                	mov    %esi,%eax
801012da:	8b 5d e0             	mov    -0x20(%ebp),%ebx
801012dd:	89 fe                	mov    %edi,%esi
801012df:	89 c7                	mov    %eax,%edi
801012e1:	e9 ac fe ff ff       	jmp    80101192 <cprintf+0x72>
801012e6:	89 c8                	mov    %ecx,%eax
801012e8:	e8 83 fb ff ff       	call   80100e70 <consputc.part.0>
			break;
801012ed:	e9 a0 fe ff ff       	jmp    80101192 <cprintf+0x72>
			if ((s = (char *)*argp++) == 0)
801012f2:	89 c7                	mov    %eax,%edi
801012f4:	e9 99 fe ff ff       	jmp    80101192 <cprintf+0x72>
		panic("null fmt");
801012f9:	83 ec 0c             	sub    $0xc,%esp
801012fc:	68 df b1 10 80       	push   $0x8010b1df
80101301:	e8 ea fa ff ff       	call   80100df0 <panic>
80101306:	2e 8d b4 26 00 00 00 	lea    %cs:0x0(%esi,%eiz,1),%esi
8010130d:	00 
8010130e:	66 90                	xchg   %ax,%ax

80101310 <consoleintr>:
void consoleintr(int (*getc)(void)) {
80101310:	55                   	push   %ebp
80101311:	89 e5                	mov    %esp,%ebp
80101313:	57                   	push   %edi
	int c, doprocdump = 0;
80101314:	31 ff                	xor    %edi,%edi
void consoleintr(int (*getc)(void)) {
80101316:	56                   	push   %esi
80101317:	53                   	push   %ebx
80101318:	83 ec 18             	sub    $0x18,%esp
8010131b:	8b 75 08             	mov    0x8(%ebp),%esi
	acquire(&cons.lock);
8010131e:	68 a0 fd 12 80       	push   $0x8012fda0
80101323:	e8 48 42 00 00       	call   80105570 <acquire>
	while ((c = getc()) >= 0) {
80101328:	83 c4 10             	add    $0x10,%esp
8010132b:	ff d6                	call   *%esi
8010132d:	89 c3                	mov    %eax,%ebx
8010132f:	85 c0                	test   %eax,%eax
80101331:	78 22                	js     80101355 <consoleintr+0x45>
		switch (c) {
80101333:	83 fb 15             	cmp    $0x15,%ebx
80101336:	74 47                	je     8010137f <consoleintr+0x6f>
80101338:	7f 76                	jg     801013b0 <consoleintr+0xa0>
8010133a:	83 fb 08             	cmp    $0x8,%ebx
8010133d:	74 76                	je     801013b5 <consoleintr+0xa5>
8010133f:	83 fb 10             	cmp    $0x10,%ebx
80101342:	0f 85 f8 00 00 00    	jne    80101440 <consoleintr+0x130>
	while ((c = getc()) >= 0) {
80101348:	ff d6                	call   *%esi
		switch (c) {
8010134a:	bf 01 00 00 00       	mov    $0x1,%edi
	while ((c = getc()) >= 0) {
8010134f:	89 c3                	mov    %eax,%ebx
80101351:	85 c0                	test   %eax,%eax
80101353:	79 de                	jns    80101333 <consoleintr+0x23>
	release(&cons.lock);
80101355:	83 ec 0c             	sub    $0xc,%esp
80101358:	68 a0 fd 12 80       	push   $0x8012fda0
8010135d:	e8 ae 41 00 00       	call   80105510 <release>
	if (doprocdump) {
80101362:	83 c4 10             	add    $0x10,%esp
80101365:	85 ff                	test   %edi,%edi
80101367:	0f 85 4b 01 00 00    	jne    801014b8 <consoleintr+0x1a8>
}
8010136d:	8d 65 f4             	lea    -0xc(%ebp),%esp
80101370:	5b                   	pop    %ebx
80101371:	5e                   	pop    %esi
80101372:	5f                   	pop    %edi
80101373:	5d                   	pop    %ebp
80101374:	c3                   	ret
80101375:	b8 00 01 00 00       	mov    $0x100,%eax
8010137a:	e8 f1 fa ff ff       	call   80100e70 <consputc.part.0>
			while (input.e != input.w &&
8010137f:	a1 88 fd 12 80       	mov    0x8012fd88,%eax
80101384:	3b 05 84 fd 12 80    	cmp    0x8012fd84,%eax
8010138a:	74 9f                	je     8010132b <consoleintr+0x1b>
			       input.buf[(input.e - 1) % INPUT_BUF] != '\n') {
8010138c:	83 e8 01             	sub    $0x1,%eax
8010138f:	89 c2                	mov    %eax,%edx
80101391:	83 e2 7f             	and    $0x7f,%edx
			while (input.e != input.w &&
80101394:	80 ba 00 fd 12 80 0a 	cmpb   $0xa,-0x7fed0300(%edx)
8010139b:	74 8e                	je     8010132b <consoleintr+0x1b>
	if (panicked) {
8010139d:	8b 15 d8 fd 12 80    	mov    0x8012fdd8,%edx
				input.e--;
801013a3:	a3 88 fd 12 80       	mov    %eax,0x8012fd88
	if (panicked) {
801013a8:	85 d2                	test   %edx,%edx
801013aa:	74 c9                	je     80101375 <consoleintr+0x65>
801013ac:	fa                   	cli
		for (;;)
801013ad:	eb fe                	jmp    801013ad <consoleintr+0x9d>
801013af:	90                   	nop
		switch (c) {
801013b0:	83 fb 7f             	cmp    $0x7f,%ebx
801013b3:	75 2b                	jne    801013e0 <consoleintr+0xd0>
			if (input.e != input.w) {
801013b5:	a1 88 fd 12 80       	mov    0x8012fd88,%eax
801013ba:	3b 05 84 fd 12 80    	cmp    0x8012fd84,%eax
801013c0:	0f 84 65 ff ff ff    	je     8010132b <consoleintr+0x1b>
				input.e--;
801013c6:	83 e8 01             	sub    $0x1,%eax
801013c9:	a3 88 fd 12 80       	mov    %eax,0x8012fd88
	if (panicked) {
801013ce:	a1 d8 fd 12 80       	mov    0x8012fdd8,%eax
801013d3:	85 c0                	test   %eax,%eax
801013d5:	0f 84 ce 00 00 00    	je     801014a9 <consoleintr+0x199>
801013db:	fa                   	cli
		for (;;)
801013dc:	eb fe                	jmp    801013dc <consoleintr+0xcc>
801013de:	66 90                	xchg   %ax,%ax
			if (c != 0 && input.e - input.r < INPUT_BUF) {
801013e0:	a1 88 fd 12 80       	mov    0x8012fd88,%eax
801013e5:	89 c2                	mov    %eax,%edx
801013e7:	2b 15 80 fd 12 80    	sub    0x8012fd80,%edx
801013ed:	83 fa 7f             	cmp    $0x7f,%edx
801013f0:	0f 87 35 ff ff ff    	ja     8010132b <consoleintr+0x1b>
	if (panicked) {
801013f6:	8b 0d d8 fd 12 80    	mov    0x8012fdd8,%ecx
				input.buf[input.e++ % INPUT_BUF] = c;
801013fc:	8d 50 01             	lea    0x1(%eax),%edx
801013ff:	83 e0 7f             	and    $0x7f,%eax
80101402:	89 15 88 fd 12 80    	mov    %edx,0x8012fd88
80101408:	88 98 00 fd 12 80    	mov    %bl,-0x7fed0300(%eax)
	if (panicked) {
8010140e:	85 c9                	test   %ecx,%ecx
80101410:	0f 85 ae 00 00 00    	jne    801014c4 <consoleintr+0x1b4>
80101416:	89 d8                	mov    %ebx,%eax
80101418:	e8 53 fa ff ff       	call   80100e70 <consputc.part.0>
				if (c == '\n' || c == C('D') ||
8010141d:	83 fb 0a             	cmp    $0xa,%ebx
80101420:	74 68                	je     8010148a <consoleintr+0x17a>
80101422:	83 fb 04             	cmp    $0x4,%ebx
80101425:	74 63                	je     8010148a <consoleintr+0x17a>
				    input.e == input.r + INPUT_BUF) {
80101427:	a1 80 fd 12 80       	mov    0x8012fd80,%eax
8010142c:	83 e8 80             	sub    $0xffffff80,%eax
				if (c == '\n' || c == C('D') ||
8010142f:	39 05 88 fd 12 80    	cmp    %eax,0x8012fd88
80101435:	0f 85 f0 fe ff ff    	jne    8010132b <consoleintr+0x1b>
8010143b:	eb 52                	jmp    8010148f <consoleintr+0x17f>
8010143d:	8d 76 00             	lea    0x0(%esi),%esi
			if (c != 0 && input.e - input.r < INPUT_BUF) {
80101440:	85 db                	test   %ebx,%ebx
80101442:	0f 84 e3 fe ff ff    	je     8010132b <consoleintr+0x1b>
80101448:	a1 88 fd 12 80       	mov    0x8012fd88,%eax
8010144d:	89 c2                	mov    %eax,%edx
8010144f:	2b 15 80 fd 12 80    	sub    0x8012fd80,%edx
80101455:	83 fa 7f             	cmp    $0x7f,%edx
80101458:	0f 87 cd fe ff ff    	ja     8010132b <consoleintr+0x1b>
				input.buf[input.e++ % INPUT_BUF] = c;
8010145e:	8d 50 01             	lea    0x1(%eax),%edx
	if (panicked) {
80101461:	8b 0d d8 fd 12 80    	mov    0x8012fdd8,%ecx
				input.buf[input.e++ % INPUT_BUF] = c;
80101467:	83 e0 7f             	and    $0x7f,%eax
				c = (c == '\r') ? '\n' : c;
8010146a:	83 fb 0d             	cmp    $0xd,%ebx
8010146d:	75 93                	jne    80101402 <consoleintr+0xf2>
				input.buf[input.e++ % INPUT_BUF] = c;
8010146f:	89 15 88 fd 12 80    	mov    %edx,0x8012fd88
80101475:	c6 80 00 fd 12 80 0a 	movb   $0xa,-0x7fed0300(%eax)
	if (panicked) {
8010147c:	85 c9                	test   %ecx,%ecx
8010147e:	75 44                	jne    801014c4 <consoleintr+0x1b4>
80101480:	b8 0a 00 00 00       	mov    $0xa,%eax
80101485:	e8 e6 f9 ff ff       	call   80100e70 <consputc.part.0>
					input.w = input.e;
8010148a:	a1 88 fd 12 80       	mov    0x8012fd88,%eax
					wakeup(&input.r);
8010148f:	83 ec 0c             	sub    $0xc,%esp
					input.w = input.e;
80101492:	a3 84 fd 12 80       	mov    %eax,0x8012fd84
					wakeup(&input.r);
80101497:	68 80 fd 12 80       	push   $0x8012fd80
8010149c:	e8 ef 3b 00 00       	call   80105090 <wakeup>
801014a1:	83 c4 10             	add    $0x10,%esp
801014a4:	e9 82 fe ff ff       	jmp    8010132b <consoleintr+0x1b>
801014a9:	b8 00 01 00 00       	mov    $0x100,%eax
801014ae:	e8 bd f9 ff ff       	call   80100e70 <consputc.part.0>
801014b3:	e9 73 fe ff ff       	jmp    8010132b <consoleintr+0x1b>
}
801014b8:	8d 65 f4             	lea    -0xc(%ebp),%esp
801014bb:	5b                   	pop    %ebx
801014bc:	5e                   	pop    %esi
801014bd:	5f                   	pop    %edi
801014be:	5d                   	pop    %ebp
		procdump(); // now call procdump() wo. cons.lock held
801014bf:	e9 ac 3c 00 00       	jmp    80105170 <procdump>
801014c4:	fa                   	cli
		for (;;)
801014c5:	eb fe                	jmp    801014c5 <consoleintr+0x1b5>
801014c7:	2e 8d b4 26 00 00 00 	lea    %cs:0x0(%esi,%eiz,1),%esi
801014ce:	00 
801014cf:	90                   	nop

801014d0 <consoleinit>:

void consoleinit(void) {
801014d0:	55                   	push   %ebp
801014d1:	89 e5                	mov    %esp,%ebp
801014d3:	83 ec 10             	sub    $0x10,%esp
	initlock(&cons.lock, "console");
801014d6:	68 e8 b1 10 80       	push   $0x8010b1e8
801014db:	68 a0 fd 12 80       	push   $0x8012fda0
801014e0:	e8 9b 3e 00 00       	call   80105380 <initlock>

	devsw[CONSOLE].write = consolewrite;
	devsw[CONSOLE].read = consoleread;
	cons.locking = 1;

	ioapicenable(IRQ_KBD, 0);
801014e5:	58                   	pop    %eax
801014e6:	5a                   	pop    %edx
801014e7:	6a 00                	push   $0x0
801014e9:	6a 01                	push   $0x1
	devsw[CONSOLE].write = consolewrite;
801014eb:	c7 05 8c 07 13 80 20 	movl   $0x80101020,0x8013078c
801014f2:	10 10 80 
	devsw[CONSOLE].read = consoleread;
801014f5:	c7 05 88 07 13 80 f0 	movl   $0x80100cf0,0x80130788
801014fc:	0c 10 80 
	cons.locking = 1;
801014ff:	c7 05 d4 fd 12 80 01 	movl   $0x1,0x8012fdd4
80101506:	00 00 00 
	ioapicenable(IRQ_KBD, 0);
80101509:	e8 62 1e 00 00       	call   80103370 <ioapicenable>
}
8010150e:	83 c4 10             	add    $0x10,%esp
80101511:	c9                   	leave
80101512:	c3                   	ret
80101513:	66 90                	xchg   %ax,%ax
80101515:	66 90                	xchg   %ax,%ax
80101517:	66 90                	xchg   %ax,%ax
80101519:	66 90                	xchg   %ax,%ax
8010151b:	66 90                	xchg   %ax,%ax
8010151d:	66 90                	xchg   %ax,%ax
8010151f:	90                   	nop

80101520 <exec>:
#include "param.h"
#include "proc.h"
#include "types.h"
#include "x86.h"

int exec(char *path, char **argv) {
80101520:	55                   	push   %ebp
80101521:	89 e5                	mov    %esp,%ebp
80101523:	57                   	push   %edi
80101524:	56                   	push   %esi
80101525:	53                   	push   %ebx
80101526:	81 ec 0c 01 00 00    	sub    $0x10c,%esp
	uint argc, sz, sp, ustack[3 + MAXARG + 1];
	struct elfhdr elf;
	struct inode *ip;
	struct proghdr ph;
	pde_t *pgdir, *oldpgdir;
	struct proc *curproc = myproc();
8010152c:	e8 bf 33 00 00       	call   801048f0 <myproc>
80101531:	89 85 ec fe ff ff    	mov    %eax,-0x114(%ebp)

	begin_op();
80101537:	e8 74 27 00 00       	call   80103cb0 <begin_op>

	if ((ip = namei(path)) == 0) {
8010153c:	83 ec 0c             	sub    $0xc,%esp
8010153f:	ff 75 08             	push   0x8(%ebp)
80101542:	e8 99 19 00 00       	call   80102ee0 <namei>
80101547:	83 c4 10             	add    $0x10,%esp
8010154a:	85 c0                	test   %eax,%eax
8010154c:	0f 84 33 03 00 00    	je     80101885 <exec+0x365>
		end_op();
		cprintf("exec: fail\n");
		return -1;
	}
	ilock(ip);
80101552:	83 ec 0c             	sub    $0xc,%esp
80101555:	89 c7                	mov    %eax,%edi
80101557:	50                   	push   %eax
80101558:	e8 23 0f 00 00       	call   80102480 <ilock>
	pgdir = 0;

	// Check ELF header
	if (readi(ip, (char *)&elf, 0, sizeof(elf)) != sizeof(elf))
8010155d:	8d 85 24 ff ff ff    	lea    -0xdc(%ebp),%eax
80101563:	6a 34                	push   $0x34
80101565:	6a 00                	push   $0x0
80101567:	50                   	push   %eax
80101568:	57                   	push   %edi
80101569:	e8 12 13 00 00       	call   80102880 <readi>
8010156e:	83 c4 20             	add    $0x20,%esp
80101571:	83 f8 34             	cmp    $0x34,%eax
80101574:	0f 85 01 01 00 00    	jne    8010167b <exec+0x15b>
		goto bad;
	if (elf.magic != ELF_MAGIC)
8010157a:	81 bd 24 ff ff ff 7f 	cmpl   $0x464c457f,-0xdc(%ebp)
80101581:	45 4c 46 
80101584:	0f 85 f1 00 00 00    	jne    8010167b <exec+0x15b>
		goto bad;

	if ((pgdir = setupkvm()) == 0)
8010158a:	e8 51 5f 00 00       	call   801074e0 <setupkvm>
8010158f:	89 85 f4 fe ff ff    	mov    %eax,-0x10c(%ebp)
80101595:	85 c0                	test   %eax,%eax
80101597:	0f 84 de 00 00 00    	je     8010167b <exec+0x15b>
		goto bad;

	// Load program into memory.
	sz = 0;
	for (i = 0, off = elf.phoff; i < elf.phnum; i++, off += sizeof(ph)) {
8010159d:	66 83 bd 50 ff ff ff 	cmpw   $0x0,-0xb0(%ebp)
801015a4:	00 
801015a5:	8b b5 40 ff ff ff    	mov    -0xc0(%ebp),%esi
801015ab:	0f 84 a4 02 00 00    	je     80101855 <exec+0x335>
	sz = 0;
801015b1:	c7 85 f0 fe ff ff 00 	movl   $0x0,-0x110(%ebp)
801015b8:	00 00 00 
	for (i = 0, off = elf.phoff; i < elf.phnum; i++, off += sizeof(ph)) {
801015bb:	31 db                	xor    %ebx,%ebx
801015bd:	e9 8c 00 00 00       	jmp    8010164e <exec+0x12e>
801015c2:	8d b6 00 00 00 00    	lea    0x0(%esi),%esi
		if (readi(ip, (char *)&ph, off, sizeof(ph)) != sizeof(ph))
			goto bad;
		if (ph.type != ELF_PROG_LOAD)
801015c8:	83 bd 04 ff ff ff 01 	cmpl   $0x1,-0xfc(%ebp)
801015cf:	75 6c                	jne    8010163d <exec+0x11d>
			continue;
		if (ph.memsz < ph.filesz)
801015d1:	8b 85 18 ff ff ff    	mov    -0xe8(%ebp),%eax
801015d7:	3b 85 14 ff ff ff    	cmp    -0xec(%ebp),%eax
801015dd:	0f 82 87 00 00 00    	jb     8010166a <exec+0x14a>
			goto bad;
		if (ph.vaddr + ph.memsz < ph.vaddr)
801015e3:	03 85 0c ff ff ff    	add    -0xf4(%ebp),%eax
801015e9:	72 7f                	jb     8010166a <exec+0x14a>
			goto bad;
		if ((sz = allocuvm(pgdir, sz, ph.vaddr + ph.memsz)) == 0)
801015eb:	83 ec 04             	sub    $0x4,%esp
801015ee:	50                   	push   %eax
801015ef:	ff b5 f0 fe ff ff    	push   -0x110(%ebp)
801015f5:	ff b5 f4 fe ff ff    	push   -0x10c(%ebp)
801015fb:	e8 10 5d 00 00       	call   80107310 <allocuvm>
80101600:	83 c4 10             	add    $0x10,%esp
80101603:	89 85 f0 fe ff ff    	mov    %eax,-0x110(%ebp)
80101609:	85 c0                	test   %eax,%eax
8010160b:	74 5d                	je     8010166a <exec+0x14a>
			goto bad;
		if (ph.vaddr % PGSIZE != 0)
8010160d:	8b 85 0c ff ff ff    	mov    -0xf4(%ebp),%eax
80101613:	a9 ff 0f 00 00       	test   $0xfff,%eax
80101618:	75 50                	jne    8010166a <exec+0x14a>
			goto bad;
		if (loaduvm(pgdir, (char *)ph.vaddr, ip, ph.off, ph.filesz) < 0)
8010161a:	83 ec 0c             	sub    $0xc,%esp
8010161d:	ff b5 14 ff ff ff    	push   -0xec(%ebp)
80101623:	ff b5 08 ff ff ff    	push   -0xf8(%ebp)
80101629:	57                   	push   %edi
8010162a:	50                   	push   %eax
8010162b:	ff b5 f4 fe ff ff    	push   -0x10c(%ebp)
80101631:	e8 0a 5c 00 00       	call   80107240 <loaduvm>
80101636:	83 c4 20             	add    $0x20,%esp
80101639:	85 c0                	test   %eax,%eax
8010163b:	78 2d                	js     8010166a <exec+0x14a>
	for (i = 0, off = elf.phoff; i < elf.phnum; i++, off += sizeof(ph)) {
8010163d:	0f b7 85 50 ff ff ff 	movzwl -0xb0(%ebp),%eax
80101644:	83 c3 01             	add    $0x1,%ebx
80101647:	83 c6 20             	add    $0x20,%esi
8010164a:	39 d8                	cmp    %ebx,%eax
8010164c:	7e 52                	jle    801016a0 <exec+0x180>
		if (readi(ip, (char *)&ph, off, sizeof(ph)) != sizeof(ph))
8010164e:	8d 85 04 ff ff ff    	lea    -0xfc(%ebp),%eax
80101654:	6a 20                	push   $0x20
80101656:	56                   	push   %esi
80101657:	50                   	push   %eax
80101658:	57                   	push   %edi
80101659:	e8 22 12 00 00       	call   80102880 <readi>
8010165e:	83 c4 10             	add    $0x10,%esp
80101661:	83 f8 20             	cmp    $0x20,%eax
80101664:	0f 84 5e ff ff ff    	je     801015c8 <exec+0xa8>
	freevm(oldpgdir);
	return 0;

bad:
	if (pgdir)
		freevm(pgdir);
8010166a:	83 ec 0c             	sub    $0xc,%esp
8010166d:	ff b5 f4 fe ff ff    	push   -0x10c(%ebp)
80101673:	e8 e8 5d 00 00       	call   80107460 <freevm>
	if (ip) {
80101678:	83 c4 10             	add    $0x10,%esp
		iunlockput(ip);
8010167b:	83 ec 0c             	sub    $0xc,%esp
8010167e:	57                   	push   %edi
8010167f:	e8 6c 11 00 00       	call   801027f0 <iunlockput>
		end_op();
80101684:	e8 97 26 00 00       	call   80103d20 <end_op>
80101689:	83 c4 10             	add    $0x10,%esp
		return -1;
8010168c:	b8 ff ff ff ff       	mov    $0xffffffff,%eax
	}
	return -1;
}
80101691:	8d 65 f4             	lea    -0xc(%ebp),%esp
80101694:	5b                   	pop    %ebx
80101695:	5e                   	pop    %esi
80101696:	5f                   	pop    %edi
80101697:	5d                   	pop    %ebp
80101698:	c3                   	ret
80101699:	8d b4 26 00 00 00 00 	lea    0x0(%esi,%eiz,1),%esi
	sz = PGROUNDUP(sz);
801016a0:	8b b5 f0 fe ff ff    	mov    -0x110(%ebp),%esi
801016a6:	81 c6 ff 0f 00 00    	add    $0xfff,%esi
801016ac:	81 e6 00 f0 ff ff    	and    $0xfffff000,%esi
	if ((sz = allocuvm(pgdir, sz, sz + 2 * PGSIZE)) == 0)
801016b2:	8d 9e 00 20 00 00    	lea    0x2000(%esi),%ebx
	iunlockput(ip);
801016b8:	83 ec 0c             	sub    $0xc,%esp
801016bb:	57                   	push   %edi
801016bc:	e8 2f 11 00 00       	call   801027f0 <iunlockput>
	end_op();
801016c1:	e8 5a 26 00 00       	call   80103d20 <end_op>
	if ((sz = allocuvm(pgdir, sz, sz + 2 * PGSIZE)) == 0)
801016c6:	83 c4 0c             	add    $0xc,%esp
801016c9:	53                   	push   %ebx
801016ca:	56                   	push   %esi
801016cb:	8b b5 f4 fe ff ff    	mov    -0x10c(%ebp),%esi
801016d1:	56                   	push   %esi
801016d2:	e8 39 5c 00 00       	call   80107310 <allocuvm>
801016d7:	83 c4 10             	add    $0x10,%esp
801016da:	89 c7                	mov    %eax,%edi
801016dc:	85 c0                	test   %eax,%eax
801016de:	0f 84 86 00 00 00    	je     8010176a <exec+0x24a>
	clearpteu(pgdir, (char *)(sz - 2 * PGSIZE));
801016e4:	83 ec 08             	sub    $0x8,%esp
801016e7:	8d 80 00 e0 ff ff    	lea    -0x2000(%eax),%eax
	sp = sz;
801016ed:	89 fb                	mov    %edi,%ebx
	clearpteu(pgdir, (char *)(sz - 2 * PGSIZE));
801016ef:	50                   	push   %eax
801016f0:	56                   	push   %esi
	for (argc = 0; argv[argc]; argc++) {
801016f1:	31 f6                	xor    %esi,%esi
	clearpteu(pgdir, (char *)(sz - 2 * PGSIZE));
801016f3:	e8 88 5e 00 00       	call   80107580 <clearpteu>
	for (argc = 0; argv[argc]; argc++) {
801016f8:	8b 45 0c             	mov    0xc(%ebp),%eax
801016fb:	83 c4 10             	add    $0x10,%esp
801016fe:	8b 10                	mov    (%eax),%edx
80101700:	85 d2                	test   %edx,%edx
80101702:	0f 84 59 01 00 00    	je     80101861 <exec+0x341>
80101708:	89 bd f0 fe ff ff    	mov    %edi,-0x110(%ebp)
8010170e:	8b 7d 0c             	mov    0xc(%ebp),%edi
80101711:	eb 23                	jmp    80101736 <exec+0x216>
80101713:	2e 8d 74 26 00       	lea    %cs:0x0(%esi,%eiz,1),%esi
80101718:	8d 46 01             	lea    0x1(%esi),%eax
		ustack[3 + argc] = sp;
8010171b:	89 9c b5 64 ff ff ff 	mov    %ebx,-0x9c(%ebp,%esi,4)
80101722:	8d 8d 58 ff ff ff    	lea    -0xa8(%ebp),%ecx
	for (argc = 0; argv[argc]; argc++) {
80101728:	8b 14 87             	mov    (%edi,%eax,4),%edx
8010172b:	85 d2                	test   %edx,%edx
8010172d:	74 51                	je     80101780 <exec+0x260>
		if (argc >= MAXARG)
8010172f:	83 f8 20             	cmp    $0x20,%eax
80101732:	74 36                	je     8010176a <exec+0x24a>
80101734:	89 c6                	mov    %eax,%esi
		sp = (sp - (strlen(argv[argc]) + 1)) & ~3;
80101736:	83 ec 0c             	sub    $0xc,%esp
80101739:	52                   	push   %edx
8010173a:	e8 21 41 00 00       	call   80105860 <strlen>
8010173f:	29 c3                	sub    %eax,%ebx
		if (copyout(pgdir, sp, argv[argc], strlen(argv[argc]) + 1) < 0)
80101741:	58                   	pop    %eax
80101742:	ff 34 b7             	push   (%edi,%esi,4)
		sp = (sp - (strlen(argv[argc]) + 1)) & ~3;
80101745:	83 eb 01             	sub    $0x1,%ebx
80101748:	83 e3 fc             	and    $0xfffffffc,%ebx
		if (copyout(pgdir, sp, argv[argc], strlen(argv[argc]) + 1) < 0)
8010174b:	e8 10 41 00 00       	call   80105860 <strlen>
80101750:	83 c0 01             	add    $0x1,%eax
80101753:	50                   	push   %eax
80101754:	ff 34 b7             	push   (%edi,%esi,4)
80101757:	53                   	push   %ebx
80101758:	ff b5 f4 fe ff ff    	push   -0x10c(%ebp)
8010175e:	e8 ed 5f 00 00       	call   80107750 <copyout>
80101763:	83 c4 20             	add    $0x20,%esp
80101766:	85 c0                	test   %eax,%eax
80101768:	79 ae                	jns    80101718 <exec+0x1f8>
		freevm(pgdir);
8010176a:	83 ec 0c             	sub    $0xc,%esp
8010176d:	ff b5 f4 fe ff ff    	push   -0x10c(%ebp)
80101773:	e8 e8 5c 00 00       	call   80107460 <freevm>
80101778:	83 c4 10             	add    $0x10,%esp
8010177b:	e9 0c ff ff ff       	jmp    8010168c <exec+0x16c>
	ustack[2] = sp - (argc + 1) * 4; // argv pointer
80101780:	8d 14 b5 08 00 00 00 	lea    0x8(,%esi,4),%edx
	ustack[3 + argc] = 0;
80101787:	8b bd f0 fe ff ff    	mov    -0x110(%ebp),%edi
8010178d:	89 85 f0 fe ff ff    	mov    %eax,-0x110(%ebp)
80101793:	8d 46 04             	lea    0x4(%esi),%eax
	sp -= (3 + argc + 1) * 4;
80101796:	8d 72 0c             	lea    0xc(%edx),%esi
	ustack[3 + argc] = 0;
80101799:	c7 84 85 58 ff ff ff 	movl   $0x0,-0xa8(%ebp,%eax,4)
801017a0:	00 00 00 00 
	ustack[1] = argc;
801017a4:	8b 85 f0 fe ff ff    	mov    -0x110(%ebp),%eax
	ustack[0] = 0xffffffff; // fake return PC
801017aa:	c7 85 58 ff ff ff ff 	movl   $0xffffffff,-0xa8(%ebp)
801017b1:	ff ff ff 
	ustack[1] = argc;
801017b4:	89 85 5c ff ff ff    	mov    %eax,-0xa4(%ebp)
	ustack[2] = sp - (argc + 1) * 4; // argv pointer
801017ba:	89 d8                	mov    %ebx,%eax
	sp -= (3 + argc + 1) * 4;
801017bc:	29 f3                	sub    %esi,%ebx
	ustack[2] = sp - (argc + 1) * 4; // argv pointer
801017be:	29 d0                	sub    %edx,%eax
801017c0:	89 85 60 ff ff ff    	mov    %eax,-0xa0(%ebp)
	if (copyout(pgdir, sp, ustack, (3 + argc + 1) * 4) < 0)
801017c6:	56                   	push   %esi
801017c7:	51                   	push   %ecx
801017c8:	53                   	push   %ebx
801017c9:	ff b5 f4 fe ff ff    	push   -0x10c(%ebp)
801017cf:	e8 7c 5f 00 00       	call   80107750 <copyout>
801017d4:	83 c4 10             	add    $0x10,%esp
801017d7:	85 c0                	test   %eax,%eax
801017d9:	78 8f                	js     8010176a <exec+0x24a>
	for (last = s = path; *s; s++)
801017db:	8b 45 08             	mov    0x8(%ebp),%eax
801017de:	8b 55 08             	mov    0x8(%ebp),%edx
801017e1:	0f b6 00             	movzbl (%eax),%eax
801017e4:	84 c0                	test   %al,%al
801017e6:	74 17                	je     801017ff <exec+0x2df>
801017e8:	89 d1                	mov    %edx,%ecx
801017ea:	8d b6 00 00 00 00    	lea    0x0(%esi),%esi
			last = s + 1;
801017f0:	83 c1 01             	add    $0x1,%ecx
801017f3:	3c 2f                	cmp    $0x2f,%al
	for (last = s = path; *s; s++)
801017f5:	0f b6 01             	movzbl (%ecx),%eax
			last = s + 1;
801017f8:	0f 44 d1             	cmove  %ecx,%edx
	for (last = s = path; *s; s++)
801017fb:	84 c0                	test   %al,%al
801017fd:	75 f1                	jne    801017f0 <exec+0x2d0>
	safestrcpy(curproc->name, last, sizeof(curproc->name));
801017ff:	83 ec 04             	sub    $0x4,%esp
80101802:	6a 10                	push   $0x10
80101804:	52                   	push   %edx
80101805:	8b b5 ec fe ff ff    	mov    -0x114(%ebp),%esi
8010180b:	8d 86 2c 01 00 00    	lea    0x12c(%esi),%eax
80101811:	50                   	push   %eax
80101812:	e8 09 40 00 00       	call   80105820 <safestrcpy>
	curproc->pgdir = pgdir;
80101817:	8b 8d f4 fe ff ff    	mov    -0x10c(%ebp),%ecx
	oldpgdir = curproc->pgdir;
8010181d:	89 f0                	mov    %esi,%eax
8010181f:	8b 76 04             	mov    0x4(%esi),%esi
	curproc->sz = sz;
80101822:	89 38                	mov    %edi,(%eax)
	curproc->pgdir = pgdir;
80101824:	89 48 04             	mov    %ecx,0x4(%eax)
	curproc->tf->eip = elf.entry; // main
80101827:	89 c1                	mov    %eax,%ecx
80101829:	8b 95 3c ff ff ff    	mov    -0xc4(%ebp),%edx
8010182f:	8b 40 18             	mov    0x18(%eax),%eax
80101832:	89 50 38             	mov    %edx,0x38(%eax)
	curproc->tf->esp = sp;
80101835:	8b 41 18             	mov    0x18(%ecx),%eax
80101838:	89 58 44             	mov    %ebx,0x44(%eax)
	switchuvm(curproc);
8010183b:	89 0c 24             	mov    %ecx,(%esp)
8010183e:	e8 6d 58 00 00       	call   801070b0 <switchuvm>
	freevm(oldpgdir);
80101843:	89 34 24             	mov    %esi,(%esp)
80101846:	e8 15 5c 00 00       	call   80107460 <freevm>
	return 0;
8010184b:	83 c4 10             	add    $0x10,%esp
8010184e:	31 c0                	xor    %eax,%eax
80101850:	e9 3c fe ff ff       	jmp    80101691 <exec+0x171>
	for (i = 0, off = elf.phoff; i < elf.phnum; i++, off += sizeof(ph)) {
80101855:	bb 00 20 00 00       	mov    $0x2000,%ebx
8010185a:	31 f6                	xor    %esi,%esi
8010185c:	e9 57 fe ff ff       	jmp    801016b8 <exec+0x198>
	for (argc = 0; argv[argc]; argc++) {
80101861:	be 10 00 00 00       	mov    $0x10,%esi
80101866:	ba 04 00 00 00       	mov    $0x4,%edx
8010186b:	b8 03 00 00 00       	mov    $0x3,%eax
80101870:	c7 85 f0 fe ff ff 00 	movl   $0x0,-0x110(%ebp)
80101877:	00 00 00 
8010187a:	8d 8d 58 ff ff ff    	lea    -0xa8(%ebp),%ecx
80101880:	e9 14 ff ff ff       	jmp    80101799 <exec+0x279>
		end_op();
80101885:	e8 96 24 00 00       	call   80103d20 <end_op>
		cprintf("exec: fail\n");
8010188a:	83 ec 0c             	sub    $0xc,%esp
8010188d:	68 f0 b1 10 80       	push   $0x8010b1f0
80101892:	e8 89 f8 ff ff       	call   80101120 <cprintf>
		return -1;
80101897:	83 c4 10             	add    $0x10,%esp
8010189a:	e9 ed fd ff ff       	jmp    8010168c <exec+0x16c>
8010189f:	90                   	nop

801018a0 <fileinit>:
struct {
	struct spinlock lock;
	struct file file[NFILE];
} ftable;

void fileinit(void) { initlock(&ftable.lock, "ftable"); }
801018a0:	55                   	push   %ebp
801018a1:	89 e5                	mov    %esp,%ebp
801018a3:	83 ec 10             	sub    $0x10,%esp
801018a6:	68 fc b1 10 80       	push   $0x8010b1fc
801018ab:	68 e0 fd 12 80       	push   $0x8012fde0
801018b0:	e8 cb 3a 00 00       	call   80105380 <initlock>
801018b5:	83 c4 10             	add    $0x10,%esp
801018b8:	c9                   	leave
801018b9:	c3                   	ret
801018ba:	8d b6 00 00 00 00    	lea    0x0(%esi),%esi

801018c0 <filealloc>:

// Allocate a file structure.
struct file *filealloc(void) {
801018c0:	55                   	push   %ebp
801018c1:	89 e5                	mov    %esp,%ebp
801018c3:	53                   	push   %ebx
	struct file *f;

	acquire(&ftable.lock);
	for (f = ftable.file; f < ftable.file + NFILE; f++) {
801018c4:	bb 14 fe 12 80       	mov    $0x8012fe14,%ebx
struct file *filealloc(void) {
801018c9:	83 ec 10             	sub    $0x10,%esp
	acquire(&ftable.lock);
801018cc:	68 e0 fd 12 80       	push   $0x8012fde0
801018d1:	e8 9a 3c 00 00       	call   80105570 <acquire>
801018d6:	83 c4 10             	add    $0x10,%esp
801018d9:	eb 10                	jmp    801018eb <filealloc+0x2b>
801018db:	2e 8d 74 26 00       	lea    %cs:0x0(%esi,%eiz,1),%esi
	for (f = ftable.file; f < ftable.file + NFILE; f++) {
801018e0:	83 c3 18             	add    $0x18,%ebx
801018e3:	81 fb 74 07 13 80    	cmp    $0x80130774,%ebx
801018e9:	74 25                	je     80101910 <filealloc+0x50>
		if (f->ref == 0) {
801018eb:	8b 43 04             	mov    0x4(%ebx),%eax
801018ee:	85 c0                	test   %eax,%eax
801018f0:	75 ee                	jne    801018e0 <filealloc+0x20>
			f->ref = 1;
			release(&ftable.lock);
801018f2:	83 ec 0c             	sub    $0xc,%esp
			f->ref = 1;
801018f5:	c7 43 04 01 00 00 00 	movl   $0x1,0x4(%ebx)
			release(&ftable.lock);
801018fc:	68 e0 fd 12 80       	push   $0x8012fde0
80101901:	e8 0a 3c 00 00       	call   80105510 <release>
			return f;
		}
	}
	release(&ftable.lock);
	return 0;
}
80101906:	89 d8                	mov    %ebx,%eax
			return f;
80101908:	83 c4 10             	add    $0x10,%esp
}
8010190b:	8b 5d fc             	mov    -0x4(%ebp),%ebx
8010190e:	c9                   	leave
8010190f:	c3                   	ret
	release(&ftable.lock);
80101910:	83 ec 0c             	sub    $0xc,%esp
	return 0;
80101913:	31 db                	xor    %ebx,%ebx
	release(&ftable.lock);
80101915:	68 e0 fd 12 80       	push   $0x8012fde0
8010191a:	e8 f1 3b 00 00       	call   80105510 <release>
}
8010191f:	89 d8                	mov    %ebx,%eax
	return 0;
80101921:	83 c4 10             	add    $0x10,%esp
}
80101924:	8b 5d fc             	mov    -0x4(%ebp),%ebx
80101927:	c9                   	leave
80101928:	c3                   	ret
80101929:	8d b4 26 00 00 00 00 	lea    0x0(%esi,%eiz,1),%esi

80101930 <filedup>:

// Increment ref count for file f.
struct file *filedup(struct file *f) {
80101930:	55                   	push   %ebp
80101931:	89 e5                	mov    %esp,%ebp
80101933:	53                   	push   %ebx
80101934:	83 ec 10             	sub    $0x10,%esp
80101937:	8b 5d 08             	mov    0x8(%ebp),%ebx
	acquire(&ftable.lock);
8010193a:	68 e0 fd 12 80       	push   $0x8012fde0
8010193f:	e8 2c 3c 00 00       	call   80105570 <acquire>
	if (f->ref < 1)
80101944:	8b 43 04             	mov    0x4(%ebx),%eax
80101947:	83 c4 10             	add    $0x10,%esp
8010194a:	85 c0                	test   %eax,%eax
8010194c:	7e 1a                	jle    80101968 <filedup+0x38>
		panic("filedup");
	f->ref++;
8010194e:	83 c0 01             	add    $0x1,%eax
	release(&ftable.lock);
80101951:	83 ec 0c             	sub    $0xc,%esp
	f->ref++;
80101954:	89 43 04             	mov    %eax,0x4(%ebx)
	release(&ftable.lock);
80101957:	68 e0 fd 12 80       	push   $0x8012fde0
8010195c:	e8 af 3b 00 00       	call   80105510 <release>
	return f;
}
80101961:	89 d8                	mov    %ebx,%eax
80101963:	8b 5d fc             	mov    -0x4(%ebp),%ebx
80101966:	c9                   	leave
80101967:	c3                   	ret
		panic("filedup");
80101968:	83 ec 0c             	sub    $0xc,%esp
8010196b:	68 03 b2 10 80       	push   $0x8010b203
80101970:	e8 7b f4 ff ff       	call   80100df0 <panic>
80101975:	2e 8d b4 26 00 00 00 	lea    %cs:0x0(%esi,%eiz,1),%esi
8010197c:	00 
8010197d:	8d 76 00             	lea    0x0(%esi),%esi

80101980 <fileclose>:

// Close file f.  (Decrement ref count, close when reaches 0.)
void fileclose(struct file *f) {
80101980:	55                   	push   %ebp
80101981:	89 e5                	mov    %esp,%ebp
80101983:	57                   	push   %edi
80101984:	56                   	push   %esi
80101985:	53                   	push   %ebx
80101986:	83 ec 28             	sub    $0x28,%esp
80101989:	8b 5d 08             	mov    0x8(%ebp),%ebx
	struct file ff;

	acquire(&ftable.lock);
8010198c:	68 e0 fd 12 80       	push   $0x8012fde0
80101991:	e8 da 3b 00 00       	call   80105570 <acquire>
	if (f->ref < 1)
80101996:	8b 53 04             	mov    0x4(%ebx),%edx
80101999:	83 c4 10             	add    $0x10,%esp
8010199c:	85 d2                	test   %edx,%edx
8010199e:	0f 8e a5 00 00 00    	jle    80101a49 <fileclose+0xc9>
		panic("fileclose");
	if (--f->ref > 0) {
801019a4:	83 ea 01             	sub    $0x1,%edx
801019a7:	89 53 04             	mov    %edx,0x4(%ebx)
801019aa:	75 44                	jne    801019f0 <fileclose+0x70>
		release(&ftable.lock);
		return;
	}
	ff = *f;
801019ac:	0f b6 43 09          	movzbl 0x9(%ebx),%eax
	f->ref = 0;
	f->type = FD_NONE;
	release(&ftable.lock);
801019b0:	83 ec 0c             	sub    $0xc,%esp
	ff = *f;
801019b3:	8b 3b                	mov    (%ebx),%edi
	f->type = FD_NONE;
801019b5:	c7 03 00 00 00 00    	movl   $0x0,(%ebx)
	ff = *f;
801019bb:	8b 73 0c             	mov    0xc(%ebx),%esi
801019be:	88 45 e7             	mov    %al,-0x19(%ebp)
801019c1:	8b 43 10             	mov    0x10(%ebx),%eax
801019c4:	89 45 e0             	mov    %eax,-0x20(%ebp)
	release(&ftable.lock);
801019c7:	68 e0 fd 12 80       	push   $0x8012fde0
801019cc:	e8 3f 3b 00 00       	call   80105510 <release>

	if (ff.type == FD_PIPE)
801019d1:	83 c4 10             	add    $0x10,%esp
801019d4:	83 ff 01             	cmp    $0x1,%edi
801019d7:	74 57                	je     80101a30 <fileclose+0xb0>
		pipeclose(ff.pipe, ff.writable);
	else if (ff.type == FD_INODE) {
801019d9:	83 ff 02             	cmp    $0x2,%edi
801019dc:	74 2a                	je     80101a08 <fileclose+0x88>
		begin_op();
		iput(ff.ip);
		end_op();
	}
}
801019de:	8d 65 f4             	lea    -0xc(%ebp),%esp
801019e1:	5b                   	pop    %ebx
801019e2:	5e                   	pop    %esi
801019e3:	5f                   	pop    %edi
801019e4:	5d                   	pop    %ebp
801019e5:	c3                   	ret
801019e6:	2e 8d b4 26 00 00 00 	lea    %cs:0x0(%esi,%eiz,1),%esi
801019ed:	00 
801019ee:	66 90                	xchg   %ax,%ax
		release(&ftable.lock);
801019f0:	c7 45 08 e0 fd 12 80 	movl   $0x8012fde0,0x8(%ebp)
}
801019f7:	8d 65 f4             	lea    -0xc(%ebp),%esp
801019fa:	5b                   	pop    %ebx
801019fb:	5e                   	pop    %esi
801019fc:	5f                   	pop    %edi
801019fd:	5d                   	pop    %ebp
		release(&ftable.lock);
801019fe:	e9 0d 3b 00 00       	jmp    80105510 <release>
80101a03:	2e 8d 74 26 00       	lea    %cs:0x0(%esi,%eiz,1),%esi
		begin_op();
80101a08:	e8 a3 22 00 00       	call   80103cb0 <begin_op>
		iput(ff.ip);
80101a0d:	83 ec 0c             	sub    $0xc,%esp
80101a10:	ff 75 e0             	push   -0x20(%ebp)
80101a13:	e8 98 0b 00 00       	call   801025b0 <iput>
		end_op();
80101a18:	83 c4 10             	add    $0x10,%esp
}
80101a1b:	8d 65 f4             	lea    -0xc(%ebp),%esp
80101a1e:	5b                   	pop    %ebx
80101a1f:	5e                   	pop    %esi
80101a20:	5f                   	pop    %edi
80101a21:	5d                   	pop    %ebp
		end_op();
80101a22:	e9 f9 22 00 00       	jmp    80103d20 <end_op>
80101a27:	2e 8d b4 26 00 00 00 	lea    %cs:0x0(%esi,%eiz,1),%esi
80101a2e:	00 
80101a2f:	90                   	nop
		pipeclose(ff.pipe, ff.writable);
80101a30:	0f be 5d e7          	movsbl -0x19(%ebp),%ebx
80101a34:	83 ec 08             	sub    $0x8,%esp
80101a37:	53                   	push   %ebx
80101a38:	56                   	push   %esi
80101a39:	e8 52 2a 00 00       	call   80104490 <pipeclose>
80101a3e:	83 c4 10             	add    $0x10,%esp
}
80101a41:	8d 65 f4             	lea    -0xc(%ebp),%esp
80101a44:	5b                   	pop    %ebx
80101a45:	5e                   	pop    %esi
80101a46:	5f                   	pop    %edi
80101a47:	5d                   	pop    %ebp
80101a48:	c3                   	ret
		panic("fileclose");
80101a49:	83 ec 0c             	sub    $0xc,%esp
80101a4c:	68 0b b2 10 80       	push   $0x8010b20b
80101a51:	e8 9a f3 ff ff       	call   80100df0 <panic>
80101a56:	2e 8d b4 26 00 00 00 	lea    %cs:0x0(%esi,%eiz,1),%esi
80101a5d:	00 
80101a5e:	66 90                	xchg   %ax,%ax

80101a60 <filestat>:

// Get metadata about file f.
int filestat(struct file *f, struct stat *st) {
80101a60:	55                   	push   %ebp
80101a61:	89 e5                	mov    %esp,%ebp
80101a63:	53                   	push   %ebx
80101a64:	83 ec 04             	sub    $0x4,%esp
80101a67:	8b 5d 08             	mov    0x8(%ebp),%ebx
	if (f->type == FD_INODE) {
80101a6a:	83 3b 02             	cmpl   $0x2,(%ebx)
80101a6d:	75 31                	jne    80101aa0 <filestat+0x40>
		ilock(f->ip);
80101a6f:	83 ec 0c             	sub    $0xc,%esp
80101a72:	ff 73 10             	push   0x10(%ebx)
80101a75:	e8 06 0a 00 00       	call   80102480 <ilock>
		stati(f->ip, st);
80101a7a:	58                   	pop    %eax
80101a7b:	5a                   	pop    %edx
80101a7c:	ff 75 0c             	push   0xc(%ebp)
80101a7f:	ff 73 10             	push   0x10(%ebx)
80101a82:	e8 b9 0d 00 00       	call   80102840 <stati>
		iunlock(f->ip);
80101a87:	59                   	pop    %ecx
80101a88:	ff 73 10             	push   0x10(%ebx)
80101a8b:	e8 d0 0a 00 00       	call   80102560 <iunlock>
		return 0;
	}
	return -1;
}
80101a90:	8b 5d fc             	mov    -0x4(%ebp),%ebx
		return 0;
80101a93:	83 c4 10             	add    $0x10,%esp
80101a96:	31 c0                	xor    %eax,%eax
}
80101a98:	c9                   	leave
80101a99:	c3                   	ret
80101a9a:	8d b6 00 00 00 00    	lea    0x0(%esi),%esi
80101aa0:	8b 5d fc             	mov    -0x4(%ebp),%ebx
	return -1;
80101aa3:	b8 ff ff ff ff       	mov    $0xffffffff,%eax
}
80101aa8:	c9                   	leave
80101aa9:	c3                   	ret
80101aaa:	8d b6 00 00 00 00    	lea    0x0(%esi),%esi

80101ab0 <fileread>:

// Read from file f.
int fileread(struct file *f, char *addr, int n) {
80101ab0:	55                   	push   %ebp
80101ab1:	89 e5                	mov    %esp,%ebp
80101ab3:	57                   	push   %edi
80101ab4:	56                   	push   %esi
80101ab5:	53                   	push   %ebx
80101ab6:	83 ec 0c             	sub    $0xc,%esp
80101ab9:	8b 5d 08             	mov    0x8(%ebp),%ebx
80101abc:	8b 75 0c             	mov    0xc(%ebp),%esi
80101abf:	8b 7d 10             	mov    0x10(%ebp),%edi
	int r;

	if (f->readable == 0)
80101ac2:	80 7b 08 00          	cmpb   $0x0,0x8(%ebx)
80101ac6:	74 60                	je     80101b28 <fileread+0x78>
		return -1;
	if (f->type == FD_PIPE)
80101ac8:	8b 03                	mov    (%ebx),%eax
80101aca:	83 f8 01             	cmp    $0x1,%eax
80101acd:	74 41                	je     80101b10 <fileread+0x60>
		return piperead(f->pipe, addr, n);
	if (f->type == FD_INODE) {
80101acf:	83 f8 02             	cmp    $0x2,%eax
80101ad2:	75 5b                	jne    80101b2f <fileread+0x7f>
		ilock(f->ip);
80101ad4:	83 ec 0c             	sub    $0xc,%esp
80101ad7:	ff 73 10             	push   0x10(%ebx)
80101ada:	e8 a1 09 00 00       	call   80102480 <ilock>
		if ((r = readi(f->ip, addr, f->off, n)) > 0)
80101adf:	57                   	push   %edi
80101ae0:	ff 73 14             	push   0x14(%ebx)
80101ae3:	56                   	push   %esi
80101ae4:	ff 73 10             	push   0x10(%ebx)
80101ae7:	e8 94 0d 00 00       	call   80102880 <readi>
80101aec:	83 c4 20             	add    $0x20,%esp
80101aef:	89 c6                	mov    %eax,%esi
80101af1:	85 c0                	test   %eax,%eax
80101af3:	7e 03                	jle    80101af8 <fileread+0x48>
			f->off += r;
80101af5:	01 43 14             	add    %eax,0x14(%ebx)
		iunlock(f->ip);
80101af8:	83 ec 0c             	sub    $0xc,%esp
80101afb:	ff 73 10             	push   0x10(%ebx)
80101afe:	e8 5d 0a 00 00       	call   80102560 <iunlock>
		return r;
80101b03:	83 c4 10             	add    $0x10,%esp
	}
	panic("fileread");
}
80101b06:	8d 65 f4             	lea    -0xc(%ebp),%esp
80101b09:	89 f0                	mov    %esi,%eax
80101b0b:	5b                   	pop    %ebx
80101b0c:	5e                   	pop    %esi
80101b0d:	5f                   	pop    %edi
80101b0e:	5d                   	pop    %ebp
80101b0f:	c3                   	ret
		return piperead(f->pipe, addr, n);
80101b10:	8b 43 0c             	mov    0xc(%ebx),%eax
80101b13:	89 45 08             	mov    %eax,0x8(%ebp)
}
80101b16:	8d 65 f4             	lea    -0xc(%ebp),%esp
80101b19:	5b                   	pop    %ebx
80101b1a:	5e                   	pop    %esi
80101b1b:	5f                   	pop    %edi
80101b1c:	5d                   	pop    %ebp
		return piperead(f->pipe, addr, n);
80101b1d:	e9 2e 2b 00 00       	jmp    80104650 <piperead>
80101b22:	8d b6 00 00 00 00    	lea    0x0(%esi),%esi
		return -1;
80101b28:	be ff ff ff ff       	mov    $0xffffffff,%esi
80101b2d:	eb d7                	jmp    80101b06 <fileread+0x56>
	panic("fileread");
80101b2f:	83 ec 0c             	sub    $0xc,%esp
80101b32:	68 15 b2 10 80       	push   $0x8010b215
80101b37:	e8 b4 f2 ff ff       	call   80100df0 <panic>
80101b3c:	8d 74 26 00          	lea    0x0(%esi,%eiz,1),%esi

80101b40 <filewrite>:

// PAGEBREAK!
// Write to file f.
int filewrite(struct file *f, char *addr, int n) {
80101b40:	55                   	push   %ebp
80101b41:	89 e5                	mov    %esp,%ebp
80101b43:	57                   	push   %edi
80101b44:	56                   	push   %esi
80101b45:	53                   	push   %ebx
80101b46:	83 ec 1c             	sub    $0x1c,%esp
80101b49:	8b 45 0c             	mov    0xc(%ebp),%eax
80101b4c:	8b 5d 08             	mov    0x8(%ebp),%ebx
80101b4f:	89 45 dc             	mov    %eax,-0x24(%ebp)
80101b52:	8b 45 10             	mov    0x10(%ebp),%eax
	int r;

	if (f->writable == 0)
80101b55:	80 7b 09 00          	cmpb   $0x0,0x9(%ebx)
int filewrite(struct file *f, char *addr, int n) {
80101b59:	89 45 e4             	mov    %eax,-0x1c(%ebp)
	if (f->writable == 0)
80101b5c:	0f 84 bb 00 00 00    	je     80101c1d <filewrite+0xdd>
		return -1;
	if (f->type == FD_PIPE)
80101b62:	8b 03                	mov    (%ebx),%eax
80101b64:	83 f8 01             	cmp    $0x1,%eax
80101b67:	0f 84 bf 00 00 00    	je     80101c2c <filewrite+0xec>
		return pipewrite(f->pipe, addr, n);
	if (f->type == FD_INODE) {
80101b6d:	83 f8 02             	cmp    $0x2,%eax
80101b70:	0f 85 c8 00 00 00    	jne    80101c3e <filewrite+0xfe>
		// and 2 blocks of slop for non-aligned writes.
		// this really belongs lower down, since writei()
		// might be writing a device like the console.
		int max = ((MAXOPBLOCKS - 1 - 1 - 2) / 2) * 512;
		int i = 0;
		while (i < n) {
80101b76:	8b 45 e4             	mov    -0x1c(%ebp),%eax
		int i = 0;
80101b79:	31 f6                	xor    %esi,%esi
		while (i < n) {
80101b7b:	85 c0                	test   %eax,%eax
80101b7d:	7f 30                	jg     80101baf <filewrite+0x6f>
80101b7f:	e9 94 00 00 00       	jmp    80101c18 <filewrite+0xd8>
80101b84:	8d 74 26 00          	lea    0x0(%esi,%eiz,1),%esi
				n1 = max;

			begin_op();
			ilock(f->ip);
			if ((r = writei(f->ip, addr + i, f->off, n1)) > 0)
				f->off += r;
80101b88:	01 43 14             	add    %eax,0x14(%ebx)
			iunlock(f->ip);
80101b8b:	83 ec 0c             	sub    $0xc,%esp
				f->off += r;
80101b8e:	89 45 e0             	mov    %eax,-0x20(%ebp)
			iunlock(f->ip);
80101b91:	ff 73 10             	push   0x10(%ebx)
80101b94:	e8 c7 09 00 00       	call   80102560 <iunlock>
			end_op();
80101b99:	e8 82 21 00 00       	call   80103d20 <end_op>

			if (r < 0)
				break;
			if (r != n1)
80101b9e:	8b 45 e0             	mov    -0x20(%ebp),%eax
80101ba1:	83 c4 10             	add    $0x10,%esp
80101ba4:	39 c7                	cmp    %eax,%edi
80101ba6:	75 5c                	jne    80101c04 <filewrite+0xc4>
				panic("short filewrite");
			i += r;
80101ba8:	01 fe                	add    %edi,%esi
		while (i < n) {
80101baa:	39 75 e4             	cmp    %esi,-0x1c(%ebp)
80101bad:	7e 69                	jle    80101c18 <filewrite+0xd8>
			int n1 = n - i;
80101baf:	8b 7d e4             	mov    -0x1c(%ebp),%edi
			if (n1 > max)
80101bb2:	b8 00 06 00 00       	mov    $0x600,%eax
			int n1 = n - i;
80101bb7:	29 f7                	sub    %esi,%edi
			if (n1 > max)
80101bb9:	39 c7                	cmp    %eax,%edi
80101bbb:	0f 4f f8             	cmovg  %eax,%edi
			begin_op();
80101bbe:	e8 ed 20 00 00       	call   80103cb0 <begin_op>
			ilock(f->ip);
80101bc3:	83 ec 0c             	sub    $0xc,%esp
80101bc6:	ff 73 10             	push   0x10(%ebx)
80101bc9:	e8 b2 08 00 00       	call   80102480 <ilock>
			if ((r = writei(f->ip, addr + i, f->off, n1)) > 0)
80101bce:	57                   	push   %edi
80101bcf:	ff 73 14             	push   0x14(%ebx)
80101bd2:	8b 45 dc             	mov    -0x24(%ebp),%eax
80101bd5:	01 f0                	add    %esi,%eax
80101bd7:	50                   	push   %eax
80101bd8:	ff 73 10             	push   0x10(%ebx)
80101bdb:	e8 d0 0d 00 00       	call   801029b0 <writei>
80101be0:	83 c4 20             	add    $0x20,%esp
80101be3:	85 c0                	test   %eax,%eax
80101be5:	7f a1                	jg     80101b88 <filewrite+0x48>
80101be7:	89 45 e0             	mov    %eax,-0x20(%ebp)
			iunlock(f->ip);
80101bea:	83 ec 0c             	sub    $0xc,%esp
80101bed:	ff 73 10             	push   0x10(%ebx)
80101bf0:	e8 6b 09 00 00       	call   80102560 <iunlock>
			end_op();
80101bf5:	e8 26 21 00 00       	call   80103d20 <end_op>
			if (r < 0)
80101bfa:	8b 45 e0             	mov    -0x20(%ebp),%eax
80101bfd:	83 c4 10             	add    $0x10,%esp
80101c00:	85 c0                	test   %eax,%eax
80101c02:	75 14                	jne    80101c18 <filewrite+0xd8>
				panic("short filewrite");
80101c04:	83 ec 0c             	sub    $0xc,%esp
80101c07:	68 1e b2 10 80       	push   $0x8010b21e
80101c0c:	e8 df f1 ff ff       	call   80100df0 <panic>
80101c11:	8d b4 26 00 00 00 00 	lea    0x0(%esi,%eiz,1),%esi
		}
		return i == n ? n : -1;
80101c18:	39 75 e4             	cmp    %esi,-0x1c(%ebp)
80101c1b:	74 05                	je     80101c22 <filewrite+0xe2>
80101c1d:	be ff ff ff ff       	mov    $0xffffffff,%esi
	}
	panic("filewrite");
}
80101c22:	8d 65 f4             	lea    -0xc(%ebp),%esp
80101c25:	89 f0                	mov    %esi,%eax
80101c27:	5b                   	pop    %ebx
80101c28:	5e                   	pop    %esi
80101c29:	5f                   	pop    %edi
80101c2a:	5d                   	pop    %ebp
80101c2b:	c3                   	ret
		return pipewrite(f->pipe, addr, n);
80101c2c:	8b 43 0c             	mov    0xc(%ebx),%eax
80101c2f:	89 45 08             	mov    %eax,0x8(%ebp)
}
80101c32:	8d 65 f4             	lea    -0xc(%ebp),%esp
80101c35:	5b                   	pop    %ebx
80101c36:	5e                   	pop    %esi
80101c37:	5f                   	pop    %edi
80101c38:	5d                   	pop    %ebp
		return pipewrite(f->pipe, addr, n);
80101c39:	e9 f2 28 00 00       	jmp    80104530 <pipewrite>
	panic("filewrite");
80101c3e:	83 ec 0c             	sub    $0xc,%esp
80101c41:	68 24 b2 10 80       	push   $0x8010b224
80101c46:	e8 a5 f1 ff ff       	call   80100df0 <panic>
80101c4b:	66 90                	xchg   %ax,%ax
80101c4d:	66 90                	xchg   %ax,%ax
80101c4f:	90                   	nop

80101c50 <bfree>:

	panic("balloc: out of blocks");
}

// Release a disk block back to free pool
static void bfree(int dev, uint b) {
80101c50:	55                   	push   %ebp
80101c51:	89 e5                	mov    %esp,%ebp
80101c53:	56                   	push   %esi
80101c54:	53                   	push   %ebx
	struct buf *bp;
	int bi, m;

	if (b >= (uint)sb.nblocks) {
80101c55:	3b 15 84 3d 13 80    	cmp    0x80133d84,%edx
80101c5b:	73 5b                	jae    80101cb8 <bfree+0x68>
		panic("bfree: block number out of range");
	}

	bp = bread(dev, BMAPBLOCK(b, sb));
80101c5d:	83 ec 08             	sub    $0x8,%esp
80101c60:	89 d3                	mov    %edx,%ebx
80101c62:	c1 ea 0e             	shr    $0xe,%edx
80101c65:	03 15 98 3d 13 80    	add    0x80133d98,%edx
80101c6b:	52                   	push   %edx
80101c6c:	50                   	push   %eax
80101c6d:	e8 ce ee ff ff       	call   80100b40 <bread>
	bi = b % BPB;
	m = 1 << (bi % 8);
80101c72:	89 d9                	mov    %ebx,%ecx

	if ((bp->data[bi / 8] & m) == 0) {
80101c74:	c1 fb 03             	sar    $0x3,%ebx
80101c77:	83 c4 10             	add    $0x10,%esp
	bp = bread(dev, BMAPBLOCK(b, sb));
80101c7a:	89 c6                	mov    %eax,%esi
	m = 1 << (bi % 8);
80101c7c:	83 e1 07             	and    $0x7,%ecx
80101c7f:	b8 01 00 00 00       	mov    $0x1,%eax
	if ((bp->data[bi / 8] & m) == 0) {
80101c84:	81 e3 ff 07 00 00    	and    $0x7ff,%ebx
	m = 1 << (bi % 8);
80101c8a:	d3 e0                	shl    %cl,%eax
	if ((bp->data[bi / 8] & m) == 0) {
80101c8c:	0f b6 4c 1e 5c       	movzbl 0x5c(%esi,%ebx,1),%ecx
80101c91:	85 c1                	test   %eax,%ecx
80101c93:	74 30                	je     80101cc5 <bfree+0x75>
		panic("bfree: freeing free block");
	}

	bp->data[bi / 8] &= ~m;
80101c95:	f7 d0                	not    %eax
	log_write(bp);
80101c97:	83 ec 0c             	sub    $0xc,%esp
	bp->data[bi / 8] &= ~m;
80101c9a:	21 c8                	and    %ecx,%eax
80101c9c:	88 44 1e 5c          	mov    %al,0x5c(%esi,%ebx,1)
	log_write(bp);
80101ca0:	56                   	push   %esi
80101ca1:	e8 ea 21 00 00       	call   80103e90 <log_write>
	brelse(bp);
80101ca6:	89 34 24             	mov    %esi,(%esp)
80101ca9:	e8 b2 ef ff ff       	call   80100c60 <brelse>
}
80101cae:	83 c4 10             	add    $0x10,%esp
80101cb1:	8d 65 f8             	lea    -0x8(%ebp),%esp
80101cb4:	5b                   	pop    %ebx
80101cb5:	5e                   	pop    %esi
80101cb6:	5d                   	pop    %ebp
80101cb7:	c3                   	ret
		panic("bfree: block number out of range");
80101cb8:	83 ec 0c             	sub    $0xc,%esp
80101cbb:	68 4c b8 10 80       	push   $0x8010b84c
80101cc0:	e8 2b f1 ff ff       	call   80100df0 <panic>
		panic("bfree: freeing free block");
80101cc5:	83 ec 0c             	sub    $0xc,%esp
80101cc8:	68 2e b2 10 80       	push   $0x8010b22e
80101ccd:	e8 1e f1 ff ff       	call   80100df0 <panic>
80101cd2:	2e 8d b4 26 00 00 00 	lea    %cs:0x0(%esi,%eiz,1),%esi
80101cd9:	00 
80101cda:	8d b6 00 00 00 00    	lea    0x0(%esi),%esi

80101ce0 <iget>:
	log_write(bp);
	brelse(bp);
}

// Find or allocate inode cache entry
static struct inode *iget(uint dev, uint inum) {
80101ce0:	55                   	push   %ebp
80101ce1:	89 e5                	mov    %esp,%ebp
80101ce3:	57                   	push   %edi
	struct inode *ip, *empty = 0;
80101ce4:	31 ff                	xor    %edi,%edi
static struct inode *iget(uint dev, uint inum) {
80101ce6:	56                   	push   %esi
80101ce7:	89 c6                	mov    %eax,%esi
80101ce9:	53                   	push   %ebx

	acquire(&icache.lock);

	// Is the inode already cached?
	for (ip = &icache.inode[0]; ip < &icache.inode[NINODE]; ip++) {
80101cea:	bb 14 08 13 80       	mov    $0x80130814,%ebx
static struct inode *iget(uint dev, uint inum) {
80101cef:	83 ec 28             	sub    $0x28,%esp
80101cf2:	89 55 e4             	mov    %edx,-0x1c(%ebp)
	acquire(&icache.lock);
80101cf5:	68 e0 07 13 80       	push   $0x801307e0
80101cfa:	e8 71 38 00 00       	call   80105570 <acquire>
	for (ip = &icache.inode[0]; ip < &icache.inode[NINODE]; ip++) {
80101cff:	8b 55 e4             	mov    -0x1c(%ebp),%edx
	acquire(&icache.lock);
80101d02:	83 c4 10             	add    $0x10,%esp
80101d05:	eb 1b                	jmp    80101d22 <iget+0x42>
80101d07:	2e 8d b4 26 00 00 00 	lea    %cs:0x0(%esi,%eiz,1),%esi
80101d0e:	00 
80101d0f:	90                   	nop
		if (ip->ref > 0 && ip->dev == dev && ip->inum == inum) {
80101d10:	39 33                	cmp    %esi,(%ebx)
80101d12:	74 64                	je     80101d78 <iget+0x98>
	for (ip = &icache.inode[0]; ip < &icache.inode[NINODE]; ip++) {
80101d14:	81 c3 88 00 00 00    	add    $0x88,%ebx
80101d1a:	81 fb 34 3d 13 80    	cmp    $0x80133d34,%ebx
80101d20:	74 1f                	je     80101d41 <iget+0x61>
		if (ip->ref > 0 && ip->dev == dev && ip->inum == inum) {
80101d22:	8b 43 08             	mov    0x8(%ebx),%eax
80101d25:	85 c0                	test   %eax,%eax
80101d27:	7f e7                	jg     80101d10 <iget+0x30>
			ip->ref++;
			release(&icache.lock);
			return ip;
		}
		if (empty == 0 && ip->ref == 0)
80101d29:	85 ff                	test   %edi,%edi
80101d2b:	75 e7                	jne    80101d14 <iget+0x34>
80101d2d:	85 c0                	test   %eax,%eax
80101d2f:	75 6c                	jne    80101d9d <iget+0xbd>
			empty = ip;
80101d31:	89 df                	mov    %ebx,%edi
	for (ip = &icache.inode[0]; ip < &icache.inode[NINODE]; ip++) {
80101d33:	81 c3 88 00 00 00    	add    $0x88,%ebx
80101d39:	81 fb 34 3d 13 80    	cmp    $0x80133d34,%ebx
80101d3f:	75 e1                	jne    80101d22 <iget+0x42>
	}

	// Recycle an inode cache entry
	if (empty == 0) {
80101d41:	85 ff                	test   %edi,%edi
80101d43:	74 76                	je     80101dbb <iget+0xdb>
	ip->dev = dev;
	ip->inum = inum;
	ip->ref = 1;
	ip->valid = 0;

	release(&icache.lock);
80101d45:	83 ec 0c             	sub    $0xc,%esp
	ip->dev = dev;
80101d48:	89 37                	mov    %esi,(%edi)
	return ip;
80101d4a:	89 fb                	mov    %edi,%ebx
	ip->inum = inum;
80101d4c:	89 57 04             	mov    %edx,0x4(%edi)
	ip->ref = 1;
80101d4f:	c7 47 08 01 00 00 00 	movl   $0x1,0x8(%edi)
	ip->valid = 0;
80101d56:	c7 47 4c 00 00 00 00 	movl   $0x0,0x4c(%edi)
	release(&icache.lock);
80101d5d:	68 e0 07 13 80       	push   $0x801307e0
80101d62:	e8 a9 37 00 00       	call   80105510 <release>
	return ip;
80101d67:	83 c4 10             	add    $0x10,%esp
}
80101d6a:	8d 65 f4             	lea    -0xc(%ebp),%esp
80101d6d:	89 d8                	mov    %ebx,%eax
80101d6f:	5b                   	pop    %ebx
80101d70:	5e                   	pop    %esi
80101d71:	5f                   	pop    %edi
80101d72:	5d                   	pop    %ebp
80101d73:	c3                   	ret
80101d74:	8d 74 26 00          	lea    0x0(%esi,%eiz,1),%esi
		if (ip->ref > 0 && ip->dev == dev && ip->inum == inum) {
80101d78:	39 53 04             	cmp    %edx,0x4(%ebx)
80101d7b:	75 97                	jne    80101d14 <iget+0x34>
			ip->ref++;
80101d7d:	83 c0 01             	add    $0x1,%eax
			release(&icache.lock);
80101d80:	83 ec 0c             	sub    $0xc,%esp
			ip->ref++;
80101d83:	89 43 08             	mov    %eax,0x8(%ebx)
			release(&icache.lock);
80101d86:	68 e0 07 13 80       	push   $0x801307e0
80101d8b:	e8 80 37 00 00       	call   80105510 <release>
			return ip;
80101d90:	83 c4 10             	add    $0x10,%esp
}
80101d93:	8d 65 f4             	lea    -0xc(%ebp),%esp
80101d96:	89 d8                	mov    %ebx,%eax
80101d98:	5b                   	pop    %ebx
80101d99:	5e                   	pop    %esi
80101d9a:	5f                   	pop    %edi
80101d9b:	5d                   	pop    %ebp
80101d9c:	c3                   	ret
	for (ip = &icache.inode[0]; ip < &icache.inode[NINODE]; ip++) {
80101d9d:	81 c3 88 00 00 00    	add    $0x88,%ebx
80101da3:	81 fb 34 3d 13 80    	cmp    $0x80133d34,%ebx
80101da9:	74 10                	je     80101dbb <iget+0xdb>
		if (ip->ref > 0 && ip->dev == dev && ip->inum == inum) {
80101dab:	8b 43 08             	mov    0x8(%ebx),%eax
80101dae:	85 c0                	test   %eax,%eax
80101db0:	0f 8f 5a ff ff ff    	jg     80101d10 <iget+0x30>
80101db6:	e9 72 ff ff ff       	jmp    80101d2d <iget+0x4d>
		panic("iget: no free inodes in cache");
80101dbb:	83 ec 0c             	sub    $0xc,%esp
80101dbe:	68 48 b2 10 80       	push   $0x8010b248
80101dc3:	e8 28 f0 ff ff       	call   80100df0 <panic>
80101dc8:	2e 8d b4 26 00 00 00 	lea    %cs:0x0(%esi,%eiz,1),%esi
80101dcf:	00 

80101dd0 <balloc>:
static uint balloc(uint dev) {
80101dd0:	55                   	push   %ebp
80101dd1:	89 e5                	mov    %esp,%ebp
80101dd3:	57                   	push   %edi
80101dd4:	56                   	push   %esi
80101dd5:	53                   	push   %ebx
80101dd6:	89 c3                	mov    %eax,%ebx
80101dd8:	83 ec 38             	sub    $0x38,%esp
	acquire(&alloc_hint_lock);
80101ddb:	68 40 3d 13 80       	push   $0x80133d40
80101de0:	e8 8b 37 00 00       	call   80105570 <acquire>
	uint start = last_alloc_hint;
80101de5:	8b 3d 74 3d 13 80    	mov    0x80133d74,%edi
	release(&alloc_hint_lock);
80101deb:	c7 04 24 40 3d 13 80 	movl   $0x80133d40,(%esp)
			start_bmap = sb.bmapstart + (start / BPB);
80101df2:	c1 ef 0e             	shr    $0xe,%edi
	release(&alloc_hint_lock);
80101df5:	e8 16 37 00 00       	call   80105510 <release>
			start_bmap = sb.bmapstart + (start / BPB);
80101dfa:	8b 35 98 3d 13 80    	mov    0x80133d98,%esi
			if (end_bmap > sb.bmapstart + (sb.size / BPB) + 1)
80101e00:	8b 15 80 3d 13 80    	mov    0x80133d80,%edx
			start_bmap = sb.bmapstart + (start / BPB);
80101e06:	89 7d dc             	mov    %edi,-0x24(%ebp)
			end_bmap = sb.bmapstart + (sb.nblocks / BPB) + 1;
80101e09:	a1 84 3d 13 80       	mov    0x80133d84,%eax
80101e0e:	8d 4e 01             	lea    0x1(%esi),%ecx
			if (end_bmap > sb.bmapstart + (sb.size / BPB) + 1)
80101e11:	c1 ea 0e             	shr    $0xe,%edx
			start_bmap = sb.bmapstart + (start / BPB);
80101e14:	01 f7                	add    %esi,%edi
			end_bmap = sb.bmapstart + (sb.nblocks / BPB) + 1;
80101e16:	c1 e8 0e             	shr    $0xe,%eax
			if (end_bmap > sb.bmapstart + (sb.size / BPB) + 1)
80101e19:	01 ca                	add    %ecx,%edx
			start_bmap = sb.bmapstart + (start / BPB);
80101e1b:	89 7d e0             	mov    %edi,-0x20(%ebp)
			end_bmap = sb.bmapstart + (sb.nblocks / BPB) + 1;
80101e1e:	01 c8                	add    %ecx,%eax
			if (end_bmap > sb.bmapstart + (sb.size / BPB) + 1)
80101e20:	39 c2                	cmp    %eax,%edx
80101e22:	0f 46 c2             	cmovbe %edx,%eax
		for (uint bmap_block = start_bmap; bmap_block < end_bmap;
80101e25:	83 c4 10             	add    $0x10,%esp
			if (end_bmap > sb.bmapstart + (sb.size / BPB) + 1)
80101e28:	89 c1                	mov    %eax,%ecx
		for (uint bmap_block = start_bmap; bmap_block < end_bmap;
80101e2a:	31 c0                	xor    %eax,%eax
80101e2c:	39 cf                	cmp    %ecx,%edi
80101e2e:	73 70                	jae    80101ea0 <balloc+0xd0>
						m = 1 << (bi % 8);
80101e30:	89 4d cc             	mov    %ecx,-0x34(%ebp)
80101e33:	89 df                	mov    %ebx,%edi
80101e35:	89 45 c8             	mov    %eax,-0x38(%ebp)
			bp = bread(dev, bmap_block);
80101e38:	83 ec 08             	sub    $0x8,%esp
80101e3b:	ff 75 e0             	push   -0x20(%ebp)
80101e3e:	57                   	push   %edi
80101e3f:	e8 fc ec ff ff       	call   80100b40 <bread>
80101e44:	83 c4 10             	add    $0x10,%esp
80101e47:	c7 45 e4 20 00 00 00 	movl   $0x20,-0x1c(%ebp)
80101e4e:	8d 88 5c 08 00 00    	lea    0x85c(%eax),%ecx
80101e54:	89 7d d8             	mov    %edi,-0x28(%ebp)
80101e57:	89 c6                	mov    %eax,%esi
			for (int i = 0; i < BSIZE; i += 4) {
80101e59:	8d 50 5c             	lea    0x5c(%eax),%edx
			bp = bread(dev, bmap_block);
80101e5c:	89 cf                	mov    %ecx,%edi
				if (*word !=
80101e5e:	83 3a ff             	cmpl   $0xffffffff,(%edx)
80101e61:	75 65                	jne    80101ec8 <balloc+0xf8>
			for (int i = 0; i < BSIZE; i += 4) {
80101e63:	83 c2 04             	add    $0x4,%edx
80101e66:	83 45 e4 20          	addl   $0x20,-0x1c(%ebp)
80101e6a:	39 d7                	cmp    %edx,%edi
80101e6c:	75 f0                	jne    80101e5e <balloc+0x8e>
			brelse(bp);
80101e6e:	83 ec 0c             	sub    $0xc,%esp
80101e71:	8b 7d d8             	mov    -0x28(%ebp),%edi
80101e74:	56                   	push   %esi
80101e75:	e8 e6 ed ff ff       	call   80100c60 <brelse>
		     bmap_block++) {
80101e7a:	83 45 e0 01          	addl   $0x1,-0x20(%ebp)
		for (uint bmap_block = start_bmap; bmap_block < end_bmap;
80101e7e:	8b 75 cc             	mov    -0x34(%ebp),%esi
80101e81:	83 c4 10             	add    $0x10,%esp
		     bmap_block++) {
80101e84:	8b 45 e0             	mov    -0x20(%ebp),%eax
		for (uint bmap_block = start_bmap; bmap_block < end_bmap;
80101e87:	39 f0                	cmp    %esi,%eax
80101e89:	72 ad                	jb     80101e38 <balloc+0x68>
80101e8b:	8b 45 c8             	mov    -0x38(%ebp),%eax
80101e8e:	89 fb                	mov    %edi,%ebx
	for (int pass = 0; pass < 2; pass++) {
80101e90:	83 f8 01             	cmp    $0x1,%eax
80101e93:	74 21                	je     80101eb6 <balloc+0xe6>
80101e95:	8b 35 98 3d 13 80    	mov    0x80133d98,%esi
80101e9b:	2e 8d 74 26 00       	lea    %cs:0x0(%esi,%eiz,1),%esi
			end_bmap = sb.bmapstart + (start / BPB);
80101ea0:	8b 45 dc             	mov    -0x24(%ebp),%eax
			start_bmap = sb.bmapstart + (start / BPB);
80101ea3:	89 75 e0             	mov    %esi,-0x20(%ebp)
			end_bmap = sb.bmapstart + (start / BPB);
80101ea6:	8d 0c 30             	lea    (%eax,%esi,1),%ecx
		for (uint bmap_block = start_bmap; bmap_block < end_bmap;
80101ea9:	b8 01 00 00 00       	mov    $0x1,%eax
80101eae:	39 ce                	cmp    %ecx,%esi
80101eb0:	0f 82 7a ff ff ff    	jb     80101e30 <balloc+0x60>
	panic("balloc: out of blocks");
80101eb6:	83 ec 0c             	sub    $0xc,%esp
80101eb9:	68 66 b2 10 80       	push   $0x8010b266
80101ebe:	e8 2d ef ff ff       	call   80100df0 <panic>
80101ec3:	2e 8d 74 26 00       	lea    %cs:0x0(%esi,%eiz,1),%esi
80101ec8:	8b 45 e4             	mov    -0x1c(%ebp),%eax
80101ecb:	89 7d d4             	mov    %edi,-0x2c(%ebp)
80101ece:	89 55 d0             	mov    %edx,-0x30(%ebp)
80101ed1:	8d 58 e0             	lea    -0x20(%eax),%ebx
80101ed4:	eb 16                	jmp    80101eec <balloc+0x11c>
80101ed6:	2e 8d b4 26 00 00 00 	lea    %cs:0x0(%esi,%eiz,1),%esi
80101edd:	00 
80101ede:	66 90                	xchg   %ax,%ax
					for (int bit = 0; bit < 32; bit++) {
80101ee0:	83 c3 01             	add    $0x1,%ebx
80101ee3:	39 5d e4             	cmp    %ebx,-0x1c(%ebp)
80101ee6:	0f 84 bc 00 00 00    	je     80101fa8 <balloc+0x1d8>
						m = 1 << (bi % 8);
80101eec:	89 d9                	mov    %ebx,%ecx
						if ((bp->data[bi / 8] & m) ==
80101eee:	89 da                	mov    %ebx,%edx
						m = 1 << (bi % 8);
80101ef0:	b8 01 00 00 00       	mov    $0x1,%eax
80101ef5:	83 e1 07             	and    $0x7,%ecx
						if ((bp->data[bi / 8] & m) ==
80101ef8:	c1 fa 03             	sar    $0x3,%edx
						m = 1 << (bi % 8);
80101efb:	d3 e0                	shl    %cl,%eax
						if ((bp->data[bi / 8] & m) ==
80101efd:	0f b6 7c 16 5c       	movzbl 0x5c(%esi,%edx,1),%edi
						m = 1 << (bi % 8);
80101f02:	89 c1                	mov    %eax,%ecx
						if ((bp->data[bi / 8] & m) ==
80101f04:	89 f8                	mov    %edi,%eax
80101f06:	85 cf                	test   %ecx,%edi
80101f08:	75 d6                	jne    80101ee0 <balloc+0x110>
							log_write(bp);
80101f0a:	83 ec 0c             	sub    $0xc,%esp
							bp->data[bi / 8] |= m;
80101f0d:	09 c8                	or     %ecx,%eax
80101f0f:	88 44 16 5c          	mov    %al,0x5c(%esi,%edx,1)
							log_write(bp);
80101f13:	56                   	push   %esi
80101f14:	e8 77 1f 00 00       	call   80103e90 <log_write>
							brelse(bp);
80101f19:	89 34 24             	mov    %esi,(%esp)
80101f1c:	e8 3f ed ff ff       	call   80100c60 <brelse>
							bno = ((bmap_block -
80101f21:	8b 45 e0             	mov    -0x20(%ebp),%eax
80101f24:	2b 05 98 3d 13 80    	sub    0x80133d98,%eax
							if (bno >=
80101f2a:	83 c4 10             	add    $0x10,%esp
								sb.bmapstart) *
80101f2d:	c1 e0 0e             	shl    $0xe,%eax
							bno = ((bmap_block -
80101f30:	01 d8                	add    %ebx,%eax
							if (bno >=
80101f32:	3b 05 84 3d 13 80    	cmp    0x80133d84,%eax
80101f38:	73 a6                	jae    80101ee0 <balloc+0x110>
	if (bno < 0 || bno >= (int)sb.size) {
80101f3a:	8b 5d d8             	mov    -0x28(%ebp),%ebx
80101f3d:	89 c7                	mov    %eax,%edi
80101f3f:	85 c0                	test   %eax,%eax
80101f41:	78 70                	js     80101fb3 <balloc+0x1e3>
80101f43:	3b 05 80 3d 13 80    	cmp    0x80133d80,%eax
80101f49:	7d 68                	jge    80101fb3 <balloc+0x1e3>
	bp = bread(dev, bno);
80101f4b:	83 ec 08             	sub    $0x8,%esp
80101f4e:	50                   	push   %eax
80101f4f:	53                   	push   %ebx
80101f50:	e8 eb eb ff ff       	call   80100b40 <bread>
	memset(bp->data, 0, BSIZE);
80101f55:	83 c4 0c             	add    $0xc,%esp
	bp = bread(dev, bno);
80101f58:	89 c3                	mov    %eax,%ebx
	memset(bp->data, 0, BSIZE);
80101f5a:	8d 40 5c             	lea    0x5c(%eax),%eax
80101f5d:	68 00 08 00 00       	push   $0x800
80101f62:	6a 00                	push   $0x0
80101f64:	50                   	push   %eax
80101f65:	e8 06 37 00 00       	call   80105670 <memset>
	log_write(bp);
80101f6a:	89 1c 24             	mov    %ebx,(%esp)
80101f6d:	e8 1e 1f 00 00       	call   80103e90 <log_write>
	brelse(bp);
80101f72:	89 1c 24             	mov    %ebx,(%esp)
80101f75:	e8 e6 ec ff ff       	call   80100c60 <brelse>
							acquire(&alloc_hint_lock);
80101f7a:	c7 04 24 40 3d 13 80 	movl   $0x80133d40,(%esp)
80101f81:	e8 ea 35 00 00       	call   80105570 <acquire>
							last_alloc_hint = bno;
80101f86:	89 3d 74 3d 13 80    	mov    %edi,0x80133d74
							release(&alloc_hint_lock);
80101f8c:	c7 04 24 40 3d 13 80 	movl   $0x80133d40,(%esp)
80101f93:	e8 78 35 00 00       	call   80105510 <release>
}
80101f98:	8d 65 f4             	lea    -0xc(%ebp),%esp
80101f9b:	89 f8                	mov    %edi,%eax
80101f9d:	5b                   	pop    %ebx
80101f9e:	5e                   	pop    %esi
80101f9f:	5f                   	pop    %edi
80101fa0:	5d                   	pop    %ebp
80101fa1:	c3                   	ret
80101fa2:	8d b6 00 00 00 00    	lea    0x0(%esi),%esi
80101fa8:	8b 7d d4             	mov    -0x2c(%ebp),%edi
80101fab:	8b 55 d0             	mov    -0x30(%ebp),%edx
80101fae:	e9 b0 fe ff ff       	jmp    80101e63 <balloc+0x93>
		panic("bzero: invalid block number");
80101fb3:	83 ec 0c             	sub    $0xc,%esp
80101fb6:	68 7c b2 10 80       	push   $0x8010b27c
80101fbb:	e8 30 ee ff ff       	call   80100df0 <panic>

80101fc0 <bmap.part.0>:
	iunlock(ip);
	iput(ip);
}

// Map file block to disk block (supports direct, single, double indirect)
static uint bmap(struct inode *ip, uint bn) {
80101fc0:	55                   	push   %ebp
80101fc1:	89 e5                	mov    %esp,%ebp
80101fc3:	57                   	push   %edi
80101fc4:	56                   	push   %esi
80101fc5:	89 c6                	mov    %eax,%esi
80101fc7:	53                   	push   %ebx
		if ((addr = ip->addrs[bn]) == 0) {
			ip->addrs[bn] = addr = balloc(ip->dev);
		}
		return addr;
	}
	bn -= NDIRECT;
80101fc8:	8d 5a f6             	lea    -0xa(%edx),%ebx
static uint bmap(struct inode *ip, uint bn) {
80101fcb:	83 ec 1c             	sub    $0x1c,%esp

	// Single indirect block
	if (bn < NINDIRECT) {
80101fce:	81 fb ff 01 00 00    	cmp    $0x1ff,%ebx
80101fd4:	0f 86 8e 00 00 00    	jbe    80102068 <bmap.part.0+0xa8>
			log_write(bp);
		}
		brelse(bp);
		return addr;
	}
	bn -= NINDIRECT;
80101fda:	8d 9a f6 fd ff ff    	lea    -0x20a(%edx),%ebx

	// Double indirect block
	if (bn < NDINDIRECT) {
80101fe0:	81 fb ff ff 03 00    	cmp    $0x3ffff,%ebx
80101fe6:	0f 87 1e 01 00 00    	ja     8010210a <bmap.part.0+0x14a>
		// First level indirect
		if ((addr = ip->addrs[NDIRECT + 1]) == 0) {
80101fec:	8b 80 88 00 00 00    	mov    0x88(%eax),%eax
80101ff2:	85 c0                	test   %eax,%eax
80101ff4:	0f 84 e6 00 00 00    	je     801020e0 <bmap.part.0+0x120>
			ip->addrs[NDIRECT + 1] = addr = balloc(ip->dev);
		}

		bp = bread(ip->dev, addr);
80101ffa:	83 ec 08             	sub    $0x8,%esp
80101ffd:	50                   	push   %eax
80101ffe:	ff 36                	push   (%esi)
80102000:	e8 3b eb ff ff       	call   80100b40 <bread>
		a = (uint *)bp->data;
		uint idx1 = bn / NINDIRECT;

		if ((addr = a[idx1]) == 0) {
80102005:	83 c4 10             	add    $0x10,%esp
		bp = bread(ip->dev, addr);
80102008:	89 c7                	mov    %eax,%edi
		uint idx1 = bn / NINDIRECT;
8010200a:	89 d8                	mov    %ebx,%eax
8010200c:	c1 e8 09             	shr    $0x9,%eax
		if ((addr = a[idx1]) == 0) {
8010200f:	8d 54 87 5c          	lea    0x5c(%edi,%eax,4),%edx
80102013:	8b 02                	mov    (%edx),%eax
80102015:	85 c0                	test   %eax,%eax
80102017:	0f 84 93 00 00 00    	je     801020b0 <bmap.part.0+0xf0>
			a[idx1] = addr = balloc(ip->dev);
			log_write(bp);
		}
		brelse(bp);
8010201d:	83 ec 0c             	sub    $0xc,%esp
80102020:	89 45 e4             	mov    %eax,-0x1c(%ebp)

		// Second level indirect
		bp = bread(ip->dev, addr);
		a = (uint *)bp->data;
		uint idx2 = bn % NINDIRECT;
80102023:	81 e3 ff 01 00 00    	and    $0x1ff,%ebx
		brelse(bp);
80102029:	57                   	push   %edi
8010202a:	e8 31 ec ff ff       	call   80100c60 <brelse>
		bp = bread(ip->dev, addr);
8010202f:	58                   	pop    %eax
80102030:	8b 45 e4             	mov    -0x1c(%ebp),%eax
80102033:	5a                   	pop    %edx
80102034:	50                   	push   %eax
80102035:	ff 36                	push   (%esi)
80102037:	e8 04 eb ff ff       	call   80100b40 <bread>

		if ((addr = a[idx2]) == 0) {
8010203c:	83 c4 10             	add    $0x10,%esp
8010203f:	8d 54 98 5c          	lea    0x5c(%eax,%ebx,4),%edx
		bp = bread(ip->dev, addr);
80102043:	89 c7                	mov    %eax,%edi
		if ((addr = a[idx2]) == 0) {
80102045:	8b 1a                	mov    (%edx),%ebx
80102047:	85 db                	test   %ebx,%ebx
80102049:	74 45                	je     80102090 <bmap.part.0+0xd0>
			a[idx2] = addr = balloc(ip->dev);
			log_write(bp);
		}
		brelse(bp);
8010204b:	83 ec 0c             	sub    $0xc,%esp
8010204e:	57                   	push   %edi
8010204f:	e8 0c ec ff ff       	call   80100c60 <brelse>
		return addr;
80102054:	83 c4 10             	add    $0x10,%esp
	}

	panic("bmap: block number out of range");
}
80102057:	8d 65 f4             	lea    -0xc(%ebp),%esp
8010205a:	89 d8                	mov    %ebx,%eax
8010205c:	5b                   	pop    %ebx
8010205d:	5e                   	pop    %esi
8010205e:	5f                   	pop    %edi
8010205f:	5d                   	pop    %ebp
80102060:	c3                   	ret
80102061:	8d b4 26 00 00 00 00 	lea    0x0(%esi,%eiz,1),%esi
		if ((addr = ip->addrs[NDIRECT]) == 0) {
80102068:	8b 80 84 00 00 00    	mov    0x84(%eax),%eax
8010206e:	85 c0                	test   %eax,%eax
80102070:	0f 84 82 00 00 00    	je     801020f8 <bmap.part.0+0x138>
		bp = bread(ip->dev, addr);
80102076:	83 ec 08             	sub    $0x8,%esp
80102079:	50                   	push   %eax
8010207a:	ff 36                	push   (%esi)
8010207c:	e8 bf ea ff ff       	call   80100b40 <bread>
		if ((addr = a[bn]) == 0) {
80102081:	83 c4 10             	add    $0x10,%esp
80102084:	8d 54 98 5c          	lea    0x5c(%eax,%ebx,4),%edx
		bp = bread(ip->dev, addr);
80102088:	89 c7                	mov    %eax,%edi
		if ((addr = a[bn]) == 0) {
8010208a:	8b 1a                	mov    (%edx),%ebx
8010208c:	85 db                	test   %ebx,%ebx
8010208e:	75 bb                	jne    8010204b <bmap.part.0+0x8b>
			a[idx2] = addr = balloc(ip->dev);
80102090:	8b 06                	mov    (%esi),%eax
80102092:	89 55 e4             	mov    %edx,-0x1c(%ebp)
80102095:	e8 36 fd ff ff       	call   80101dd0 <balloc>
8010209a:	8b 55 e4             	mov    -0x1c(%ebp),%edx
			log_write(bp);
8010209d:	83 ec 0c             	sub    $0xc,%esp
			a[idx2] = addr = balloc(ip->dev);
801020a0:	89 c3                	mov    %eax,%ebx
801020a2:	89 02                	mov    %eax,(%edx)
			log_write(bp);
801020a4:	57                   	push   %edi
801020a5:	e8 e6 1d 00 00       	call   80103e90 <log_write>
801020aa:	83 c4 10             	add    $0x10,%esp
801020ad:	eb 9c                	jmp    8010204b <bmap.part.0+0x8b>
801020af:	90                   	nop
			a[idx1] = addr = balloc(ip->dev);
801020b0:	8b 06                	mov    (%esi),%eax
801020b2:	89 55 e4             	mov    %edx,-0x1c(%ebp)
801020b5:	e8 16 fd ff ff       	call   80101dd0 <balloc>
801020ba:	8b 55 e4             	mov    -0x1c(%ebp),%edx
			log_write(bp);
801020bd:	83 ec 0c             	sub    $0xc,%esp
			a[idx1] = addr = balloc(ip->dev);
801020c0:	89 45 e4             	mov    %eax,-0x1c(%ebp)
801020c3:	89 02                	mov    %eax,(%edx)
			log_write(bp);
801020c5:	57                   	push   %edi
801020c6:	e8 c5 1d 00 00       	call   80103e90 <log_write>
801020cb:	8b 45 e4             	mov    -0x1c(%ebp),%eax
801020ce:	83 c4 10             	add    $0x10,%esp
801020d1:	e9 47 ff ff ff       	jmp    8010201d <bmap.part.0+0x5d>
801020d6:	2e 8d b4 26 00 00 00 	lea    %cs:0x0(%esi,%eiz,1),%esi
801020dd:	00 
801020de:	66 90                	xchg   %ax,%ax
			ip->addrs[NDIRECT + 1] = addr = balloc(ip->dev);
801020e0:	8b 06                	mov    (%esi),%eax
801020e2:	e8 e9 fc ff ff       	call   80101dd0 <balloc>
801020e7:	89 86 88 00 00 00    	mov    %eax,0x88(%esi)
801020ed:	e9 08 ff ff ff       	jmp    80101ffa <bmap.part.0+0x3a>
801020f2:	8d b6 00 00 00 00    	lea    0x0(%esi),%esi
			ip->addrs[NDIRECT] = addr = balloc(ip->dev);
801020f8:	8b 06                	mov    (%esi),%eax
801020fa:	e8 d1 fc ff ff       	call   80101dd0 <balloc>
801020ff:	89 86 84 00 00 00    	mov    %eax,0x84(%esi)
80102105:	e9 6c ff ff ff       	jmp    80102076 <bmap.part.0+0xb6>
	panic("bmap: block number out of range");
8010210a:	83 ec 0c             	sub    $0xc,%esp
8010210d:	68 70 b8 10 80       	push   $0x8010b870
80102112:	e8 d9 ec ff ff       	call   80100df0 <panic>
80102117:	2e 8d b4 26 00 00 00 	lea    %cs:0x0(%esi,%eiz,1),%esi
8010211e:	00 
8010211f:	90                   	nop

80102120 <fletcher32>:
uint fletcher32(const ushort *data, int len) {
80102120:	55                   	push   %ebp
80102121:	89 e5                	mov    %esp,%ebp
80102123:	57                   	push   %edi
80102124:	8b 7d 0c             	mov    0xc(%ebp),%edi
80102127:	56                   	push   %esi
80102128:	8b 75 08             	mov    0x8(%ebp),%esi
8010212b:	53                   	push   %ebx
	while (len > 0) {
8010212c:	85 ff                	test   %edi,%edi
8010212e:	7e 54                	jle    80102184 <fletcher32+0x64>
	uint sum2 = 0xffff;
80102130:	b8 ff ff 00 00       	mov    $0xffff,%eax
	uint sum1 = 0xffff;
80102135:	b9 ff ff 00 00       	mov    $0xffff,%ecx
8010213a:	8d b6 00 00 00 00    	lea    0x0(%esi),%esi
		int tlen = (len > 360) ? 360 : len;
80102140:	bb 68 01 00 00       	mov    $0x168,%ebx
80102145:	89 f2                	mov    %esi,%edx
80102147:	39 df                	cmp    %ebx,%edi
80102149:	0f 4e df             	cmovle %edi,%ebx
		len -= tlen;
8010214c:	29 df                	sub    %ebx,%edi
8010214e:	8d 34 5e             	lea    (%esi,%ebx,2),%esi
80102151:	8d b4 26 00 00 00 00 	lea    0x0(%esi,%eiz,1),%esi
			sum1 += *data++;
80102158:	0f b7 1a             	movzwl (%edx),%ebx
8010215b:	83 c2 02             	add    $0x2,%edx
8010215e:	01 d9                	add    %ebx,%ecx
			sum2 += sum1;
80102160:	01 c8                	add    %ecx,%eax
		} while (--tlen);
80102162:	39 f2                	cmp    %esi,%edx
80102164:	75 f2                	jne    80102158 <fletcher32+0x38>
		sum1 = (sum1 & 0xffff) + (sum1 >> 16);
80102166:	0f b7 d1             	movzwl %cx,%edx
80102169:	c1 e9 10             	shr    $0x10,%ecx
8010216c:	01 d1                	add    %edx,%ecx
		sum2 = (sum2 & 0xffff) + (sum2 >> 16);
8010216e:	0f b7 d0             	movzwl %ax,%edx
80102171:	c1 e8 10             	shr    $0x10,%eax
80102174:	01 d0                	add    %edx,%eax
	while (len > 0) {
80102176:	85 ff                	test   %edi,%edi
80102178:	7f c6                	jg     80102140 <fletcher32+0x20>
	return (sum2 << 16) | sum1;
8010217a:	c1 e0 10             	shl    $0x10,%eax
}
8010217d:	5b                   	pop    %ebx
8010217e:	5e                   	pop    %esi
	return (sum2 << 16) | sum1;
8010217f:	09 c8                	or     %ecx,%eax
}
80102181:	5f                   	pop    %edi
80102182:	5d                   	pop    %ebp
80102183:	c3                   	ret
80102184:	5b                   	pop    %ebx
	while (len > 0) {
80102185:	b8 ff ff ff ff       	mov    $0xffffffff,%eax
}
8010218a:	5e                   	pop    %esi
8010218b:	5f                   	pop    %edi
8010218c:	5d                   	pop    %ebp
8010218d:	c3                   	ret
8010218e:	66 90                	xchg   %ax,%ax

80102190 <iinit>:
void iinit(int dev) {
80102190:	55                   	push   %ebp
80102191:	89 e5                	mov    %esp,%ebp
80102193:	53                   	push   %ebx
80102194:	83 ec 0c             	sub    $0xc,%esp
	initlock(&icache.lock, "icache");
80102197:	68 98 b2 10 80       	push   $0x8010b298
8010219c:	68 e0 07 13 80       	push   $0x801307e0
801021a1:	e8 da 31 00 00       	call   80105380 <initlock>
	initlock(&alloc_hint_lock, "balloc_hint");
801021a6:	5b                   	pop    %ebx
801021a7:	58                   	pop    %eax
801021a8:	68 9f b2 10 80       	push   $0x8010b29f
801021ad:	68 40 3d 13 80       	push   $0x80133d40
801021b2:	bb 20 08 13 80       	mov    $0x80130820,%ebx
801021b7:	e8 c4 31 00 00       	call   80105380 <initlock>
	for (int i = 0; i < NINODE; i++) {
801021bc:	83 c4 10             	add    $0x10,%esp
801021bf:	90                   	nop
		initsleeplock(&icache.inode[i].lock, "inode");
801021c0:	83 ec 08             	sub    $0x8,%esp
801021c3:	68 f2 b2 10 80       	push   $0x8010b2f2
801021c8:	53                   	push   %ebx
	for (int i = 0; i < NINODE; i++) {
801021c9:	81 c3 88 00 00 00    	add    $0x88,%ebx
		initsleeplock(&icache.inode[i].lock, "inode");
801021cf:	e8 7c 30 00 00       	call   80105250 <initsleeplock>
	for (int i = 0; i < NINODE; i++) {
801021d4:	83 c4 10             	add    $0x10,%esp
801021d7:	81 fb 40 3d 13 80    	cmp    $0x80133d40,%ebx
801021dd:	75 e1                	jne    801021c0 <iinit+0x30>
	bp = bread(dev, 1);
801021df:	83 ec 08             	sub    $0x8,%esp
801021e2:	6a 01                	push   $0x1
801021e4:	ff 75 08             	push   0x8(%ebp)
801021e7:	e8 54 e9 ff ff       	call   80100b40 <bread>
	memmove(sb_ptr, bp->data, sizeof(*sb_ptr));
801021ec:	83 c4 0c             	add    $0xc,%esp
	bp = bread(dev, 1);
801021ef:	89 c3                	mov    %eax,%ebx
	memmove(sb_ptr, bp->data, sizeof(*sb_ptr));
801021f1:	8d 40 5c             	lea    0x5c(%eax),%eax
801021f4:	6a 20                	push   $0x20
801021f6:	50                   	push   %eax
801021f7:	68 80 3d 13 80       	push   $0x80133d80
801021fc:	e8 ff 34 00 00       	call   80105700 <memmove>
	brelse(bp);
80102201:	89 1c 24             	mov    %ebx,(%esp)
80102204:	e8 57 ea ff ff       	call   80100c60 <brelse>
	memmove(&sb, sb_ptr, sizeof(sb));
80102209:	83 c4 0c             	add    $0xc,%esp
8010220c:	6a 20                	push   $0x20
8010220e:	68 80 3d 13 80       	push   $0x80133d80
80102213:	68 80 3d 13 80       	push   $0x80133d80
80102218:	e8 e3 34 00 00       	call   80105700 <memmove>
	if (sb.size < sb.nblocks || sb.ninodes < 1 || sb.nblocks < 1) {
8010221d:	8b 15 80 3d 13 80    	mov    0x80133d80,%edx
80102223:	a1 84 3d 13 80       	mov    0x80133d84,%eax
80102228:	83 c4 10             	add    $0x10,%esp
8010222b:	39 c2                	cmp    %eax,%edx
8010222d:	72 31                	jb     80102260 <iinit+0xd0>
8010222f:	8b 0d 88 3d 13 80    	mov    0x80133d88,%ecx
80102235:	85 c9                	test   %ecx,%ecx
80102237:	74 27                	je     80102260 <iinit+0xd0>
80102239:	85 c0                	test   %eax,%eax
8010223b:	74 23                	je     80102260 <iinit+0xd0>
	cprintf("ChelidaeOS FS: size %d, nblocks %d, inodestart %d, bmapstart "
8010223d:	83 ec 0c             	sub    $0xc,%esp
80102240:	ff 35 98 3d 13 80    	push   0x80133d98
80102246:	ff 35 94 3d 13 80    	push   0x80133d94
8010224c:	50                   	push   %eax
8010224d:	52                   	push   %edx
8010224e:	68 b8 b8 10 80       	push   $0x8010b8b8
80102253:	e8 c8 ee ff ff       	call   80101120 <cprintf>
}
80102258:	8b 5d fc             	mov    -0x4(%ebp),%ebx
8010225b:	83 c4 20             	add    $0x20,%esp
8010225e:	c9                   	leave
8010225f:	c3                   	ret
		panic("iinit: invalid superblock parameters");
80102260:	83 ec 0c             	sub    $0xc,%esp
80102263:	68 90 b8 10 80       	push   $0x8010b890
80102268:	e8 83 eb ff ff       	call   80100df0 <panic>
8010226d:	8d 76 00             	lea    0x0(%esi),%esi

80102270 <readsb>:
void readsb(int dev, struct superblock *sb_ptr) {
80102270:	55                   	push   %ebp
80102271:	89 e5                	mov    %esp,%ebp
80102273:	56                   	push   %esi
80102274:	53                   	push   %ebx
80102275:	8b 75 0c             	mov    0xc(%ebp),%esi
	if (sb_ptr == 0) {
80102278:	85 f6                	test   %esi,%esi
8010227a:	74 40                	je     801022bc <readsb+0x4c>
	bp = bread(dev, 1);
8010227c:	83 ec 08             	sub    $0x8,%esp
8010227f:	6a 01                	push   $0x1
80102281:	ff 75 08             	push   0x8(%ebp)
80102284:	e8 b7 e8 ff ff       	call   80100b40 <bread>
	memmove(sb_ptr, bp->data, sizeof(*sb_ptr));
80102289:	83 c4 0c             	add    $0xc,%esp
	bp = bread(dev, 1);
8010228c:	89 c3                	mov    %eax,%ebx
	memmove(sb_ptr, bp->data, sizeof(*sb_ptr));
8010228e:	8d 40 5c             	lea    0x5c(%eax),%eax
80102291:	6a 20                	push   $0x20
80102293:	50                   	push   %eax
80102294:	56                   	push   %esi
80102295:	e8 66 34 00 00       	call   80105700 <memmove>
	brelse(bp);
8010229a:	89 1c 24             	mov    %ebx,(%esp)
8010229d:	e8 be e9 ff ff       	call   80100c60 <brelse>
	memmove(&sb, sb_ptr, sizeof(sb));
801022a2:	83 c4 0c             	add    $0xc,%esp
801022a5:	6a 20                	push   $0x20
801022a7:	56                   	push   %esi
801022a8:	68 80 3d 13 80       	push   $0x80133d80
801022ad:	e8 4e 34 00 00       	call   80105700 <memmove>
}
801022b2:	83 c4 10             	add    $0x10,%esp
801022b5:	8d 65 f8             	lea    -0x8(%ebp),%esp
801022b8:	5b                   	pop    %ebx
801022b9:	5e                   	pop    %esi
801022ba:	5d                   	pop    %ebp
801022bb:	c3                   	ret
		panic("readsb: null pointer");
801022bc:	83 ec 0c             	sub    $0xc,%esp
801022bf:	68 ab b2 10 80       	push   $0x8010b2ab
801022c4:	e8 27 eb ff ff       	call   80100df0 <panic>
801022c9:	8d b4 26 00 00 00 00 	lea    0x0(%esi,%eiz,1),%esi

801022d0 <ialloc>:
struct inode *ialloc(uint dev, short type) {
801022d0:	55                   	push   %ebp
801022d1:	89 e5                	mov    %esp,%ebp
801022d3:	57                   	push   %edi
801022d4:	56                   	push   %esi
801022d5:	53                   	push   %ebx
801022d6:	83 ec 1c             	sub    $0x1c,%esp
801022d9:	8b 45 0c             	mov    0xc(%ebp),%eax
	for (int inum = 1; inum < sb.ninodes; inum++) {
801022dc:	83 3d 88 3d 13 80 01 	cmpl   $0x1,0x80133d88
struct inode *ialloc(uint dev, short type) {
801022e3:	8b 75 08             	mov    0x8(%ebp),%esi
801022e6:	89 45 e4             	mov    %eax,-0x1c(%ebp)
	for (int inum = 1; inum < sb.ninodes; inum++) {
801022e9:	0f 86 94 00 00 00    	jbe    80102383 <ialloc+0xb3>
801022ef:	bf 01 00 00 00       	mov    $0x1,%edi
801022f4:	eb 21                	jmp    80102317 <ialloc+0x47>
801022f6:	2e 8d b4 26 00 00 00 	lea    %cs:0x0(%esi,%eiz,1),%esi
801022fd:	00 
801022fe:	66 90                	xchg   %ax,%ax
		brelse(bp);
80102300:	83 ec 0c             	sub    $0xc,%esp
	for (int inum = 1; inum < sb.ninodes; inum++) {
80102303:	83 c7 01             	add    $0x1,%edi
		brelse(bp);
80102306:	53                   	push   %ebx
80102307:	e8 54 e9 ff ff       	call   80100c60 <brelse>
	for (int inum = 1; inum < sb.ninodes; inum++) {
8010230c:	83 c4 10             	add    $0x10,%esp
8010230f:	3b 3d 88 3d 13 80    	cmp    0x80133d88,%edi
80102315:	73 6c                	jae    80102383 <ialloc+0xb3>
		bp = bread(dev, IBLOCK(inum, sb));
80102317:	89 f8                	mov    %edi,%eax
80102319:	83 ec 08             	sub    $0x8,%esp
8010231c:	c1 e8 04             	shr    $0x4,%eax
8010231f:	03 05 94 3d 13 80    	add    0x80133d94,%eax
80102325:	50                   	push   %eax
80102326:	56                   	push   %esi
80102327:	e8 14 e8 ff ff       	call   80100b40 <bread>
		if (dip->data.type == 0) { // Free inode found
8010232c:	83 c4 10             	add    $0x10,%esp
		bp = bread(dev, IBLOCK(inum, sb));
8010232f:	89 c3                	mov    %eax,%ebx
		dip = (struct dinode *)bp->data + (inum % IPB);
80102331:	89 f8                	mov    %edi,%eax
80102333:	83 e0 0f             	and    $0xf,%eax
80102336:	c1 e0 07             	shl    $0x7,%eax
80102339:	8d 4c 03 5c          	lea    0x5c(%ebx,%eax,1),%ecx
		if (dip->data.type == 0) { // Free inode found
8010233d:	66 83 39 00          	cmpw   $0x0,(%ecx)
80102341:	75 bd                	jne    80102300 <ialloc+0x30>
			memset(dip, 0, sizeof(*dip));
80102343:	83 ec 04             	sub    $0x4,%esp
80102346:	68 80 00 00 00       	push   $0x80
8010234b:	6a 00                	push   $0x0
8010234d:	51                   	push   %ecx
8010234e:	89 4d e0             	mov    %ecx,-0x20(%ebp)
80102351:	e8 1a 33 00 00       	call   80105670 <memset>
			dip->data.type = type;
80102356:	0f b7 45 e4          	movzwl -0x1c(%ebp),%eax
8010235a:	8b 4d e0             	mov    -0x20(%ebp),%ecx
8010235d:	66 89 01             	mov    %ax,(%ecx)
			log_write(bp);
80102360:	89 1c 24             	mov    %ebx,(%esp)
80102363:	e8 28 1b 00 00       	call   80103e90 <log_write>
			brelse(bp);
80102368:	89 1c 24             	mov    %ebx,(%esp)
8010236b:	e8 f0 e8 ff ff       	call   80100c60 <brelse>
			return iget(dev, inum);
80102370:	83 c4 10             	add    $0x10,%esp
}
80102373:	8d 65 f4             	lea    -0xc(%ebp),%esp
			return iget(dev, inum);
80102376:	89 fa                	mov    %edi,%edx
}
80102378:	5b                   	pop    %ebx
			return iget(dev, inum);
80102379:	89 f0                	mov    %esi,%eax
}
8010237b:	5e                   	pop    %esi
8010237c:	5f                   	pop    %edi
8010237d:	5d                   	pop    %ebp
			return iget(dev, inum);
8010237e:	e9 5d f9 ff ff       	jmp    80101ce0 <iget>
	panic("ialloc: no inodes");
80102383:	83 ec 0c             	sub    $0xc,%esp
80102386:	68 c0 b2 10 80       	push   $0x8010b2c0
8010238b:	e8 60 ea ff ff       	call   80100df0 <panic>

80102390 <iupdate>:
void iupdate(struct inode *ip) {
80102390:	55                   	push   %ebp
80102391:	89 e5                	mov    %esp,%ebp
80102393:	56                   	push   %esi
80102394:	53                   	push   %ebx
80102395:	8b 5d 08             	mov    0x8(%ebp),%ebx
	if (ip == 0 || !holdingsleep(&ip->lock)) {
80102398:	85 db                	test   %ebx,%ebx
8010239a:	0f 84 8a 00 00 00    	je     8010242a <iupdate+0x9a>
801023a0:	83 ec 0c             	sub    $0xc,%esp
801023a3:	8d 43 0c             	lea    0xc(%ebx),%eax
801023a6:	50                   	push   %eax
801023a7:	e8 84 2f 00 00       	call   80105330 <holdingsleep>
801023ac:	83 c4 10             	add    $0x10,%esp
801023af:	85 c0                	test   %eax,%eax
801023b1:	74 77                	je     8010242a <iupdate+0x9a>
	bp = bread(ip->dev, IBLOCK(ip->inum, sb));
801023b3:	8b 43 04             	mov    0x4(%ebx),%eax
801023b6:	83 ec 08             	sub    $0x8,%esp
	memmove(dip->data.addrs, ip->addrs, sizeof(ip->addrs));
801023b9:	83 c3 5c             	add    $0x5c,%ebx
	bp = bread(ip->dev, IBLOCK(ip->inum, sb));
801023bc:	c1 e8 04             	shr    $0x4,%eax
801023bf:	03 05 94 3d 13 80    	add    0x80133d94,%eax
801023c5:	50                   	push   %eax
801023c6:	ff 73 a4             	push   -0x5c(%ebx)
801023c9:	e8 72 e7 ff ff       	call   80100b40 <bread>
	dip->data.type = ip->type;
801023ce:	0f b7 53 f4          	movzwl -0xc(%ebx),%edx
	memmove(dip->data.addrs, ip->addrs, sizeof(ip->addrs));
801023d2:	83 c4 0c             	add    $0xc,%esp
	bp = bread(ip->dev, IBLOCK(ip->inum, sb));
801023d5:	89 c6                	mov    %eax,%esi
	dip = (struct dinode *)bp->data + (ip->inum % IPB);
801023d7:	8b 43 a8             	mov    -0x58(%ebx),%eax
801023da:	83 e0 0f             	and    $0xf,%eax
801023dd:	c1 e0 07             	shl    $0x7,%eax
801023e0:	8d 44 06 5c          	lea    0x5c(%esi,%eax,1),%eax
	dip->data.type = ip->type;
801023e4:	66 89 10             	mov    %dx,(%eax)
	dip->data.major = ip->major;
801023e7:	0f b7 53 f6          	movzwl -0xa(%ebx),%edx
	memmove(dip->data.addrs, ip->addrs, sizeof(ip->addrs));
801023eb:	83 c0 0c             	add    $0xc,%eax
	dip->data.major = ip->major;
801023ee:	66 89 50 f6          	mov    %dx,-0xa(%eax)
	dip->data.minor = ip->minor;
801023f2:	0f b7 53 f8          	movzwl -0x8(%ebx),%edx
801023f6:	66 89 50 f8          	mov    %dx,-0x8(%eax)
	dip->data.nlink = ip->nlink;
801023fa:	0f b7 53 fa          	movzwl -0x6(%ebx),%edx
801023fe:	66 89 50 fa          	mov    %dx,-0x6(%eax)
	dip->data.size = ip->size;
80102402:	8b 53 fc             	mov    -0x4(%ebx),%edx
80102405:	89 50 fc             	mov    %edx,-0x4(%eax)
	memmove(dip->data.addrs, ip->addrs, sizeof(ip->addrs));
80102408:	6a 2c                	push   $0x2c
8010240a:	53                   	push   %ebx
8010240b:	50                   	push   %eax
8010240c:	e8 ef 32 00 00       	call   80105700 <memmove>
	log_write(bp);
80102411:	89 34 24             	mov    %esi,(%esp)
80102414:	e8 77 1a 00 00       	call   80103e90 <log_write>
	brelse(bp);
80102419:	83 c4 10             	add    $0x10,%esp
8010241c:	89 75 08             	mov    %esi,0x8(%ebp)
}
8010241f:	8d 65 f8             	lea    -0x8(%ebp),%esp
80102422:	5b                   	pop    %ebx
80102423:	5e                   	pop    %esi
80102424:	5d                   	pop    %ebp
	brelse(bp);
80102425:	e9 36 e8 ff ff       	jmp    80100c60 <brelse>
		panic("iupdate: invalid inode or not holding lock");
8010242a:	83 ec 0c             	sub    $0xc,%esp
8010242d:	68 fc b8 10 80       	push   $0x8010b8fc
80102432:	e8 b9 e9 ff ff       	call   80100df0 <panic>
80102437:	2e 8d b4 26 00 00 00 	lea    %cs:0x0(%esi,%eiz,1),%esi
8010243e:	00 
8010243f:	90                   	nop

80102440 <idup>:
struct inode *idup(struct inode *ip) {
80102440:	55                   	push   %ebp
80102441:	89 e5                	mov    %esp,%ebp
80102443:	53                   	push   %ebx
80102444:	83 ec 04             	sub    $0x4,%esp
80102447:	8b 5d 08             	mov    0x8(%ebp),%ebx
	if (ip == 0) {
8010244a:	85 db                	test   %ebx,%ebx
8010244c:	74 24                	je     80102472 <idup+0x32>
	acquire(&icache.lock);
8010244e:	83 ec 0c             	sub    $0xc,%esp
80102451:	68 e0 07 13 80       	push   $0x801307e0
80102456:	e8 15 31 00 00       	call   80105570 <acquire>
	ip->ref++;
8010245b:	83 43 08 01          	addl   $0x1,0x8(%ebx)
	release(&icache.lock);
8010245f:	c7 04 24 e0 07 13 80 	movl   $0x801307e0,(%esp)
80102466:	e8 a5 30 00 00       	call   80105510 <release>
}
8010246b:	89 d8                	mov    %ebx,%eax
8010246d:	8b 5d fc             	mov    -0x4(%ebp),%ebx
80102470:	c9                   	leave
80102471:	c3                   	ret
		panic("idup: null inode");
80102472:	83 ec 0c             	sub    $0xc,%esp
80102475:	68 d2 b2 10 80       	push   $0x8010b2d2
8010247a:	e8 71 e9 ff ff       	call   80100df0 <panic>
8010247f:	90                   	nop

80102480 <ilock>:
void ilock(struct inode *ip) {
80102480:	55                   	push   %ebp
80102481:	89 e5                	mov    %esp,%ebp
80102483:	56                   	push   %esi
80102484:	53                   	push   %ebx
80102485:	8b 5d 08             	mov    0x8(%ebp),%ebx
	if (ip == 0 || ip->ref < 1) {
80102488:	85 db                	test   %ebx,%ebx
8010248a:	0f 84 b7 00 00 00    	je     80102547 <ilock+0xc7>
80102490:	8b 53 08             	mov    0x8(%ebx),%edx
80102493:	85 d2                	test   %edx,%edx
80102495:	0f 8e ac 00 00 00    	jle    80102547 <ilock+0xc7>
	acquiresleep(&ip->lock);
8010249b:	83 ec 0c             	sub    $0xc,%esp
8010249e:	8d 43 0c             	lea    0xc(%ebx),%eax
801024a1:	50                   	push   %eax
801024a2:	e8 e9 2d 00 00       	call   80105290 <acquiresleep>
	if (ip->valid == 0) {
801024a7:	8b 43 4c             	mov    0x4c(%ebx),%eax
801024aa:	83 c4 10             	add    $0x10,%esp
801024ad:	85 c0                	test   %eax,%eax
801024af:	74 0f                	je     801024c0 <ilock+0x40>
}
801024b1:	8d 65 f8             	lea    -0x8(%ebp),%esp
801024b4:	5b                   	pop    %ebx
801024b5:	5e                   	pop    %esi
801024b6:	5d                   	pop    %ebp
801024b7:	c3                   	ret
801024b8:	2e 8d b4 26 00 00 00 	lea    %cs:0x0(%esi,%eiz,1),%esi
801024bf:	00 
		bp = bread(ip->dev, IBLOCK(ip->inum, sb));
801024c0:	8b 43 04             	mov    0x4(%ebx),%eax
801024c3:	83 ec 08             	sub    $0x8,%esp
801024c6:	c1 e8 04             	shr    $0x4,%eax
801024c9:	03 05 94 3d 13 80    	add    0x80133d94,%eax
801024cf:	50                   	push   %eax
801024d0:	ff 33                	push   (%ebx)
801024d2:	e8 69 e6 ff ff       	call   80100b40 <bread>
		memmove(ip->addrs, dip->data.addrs, sizeof(ip->addrs));
801024d7:	83 c4 0c             	add    $0xc,%esp
		bp = bread(ip->dev, IBLOCK(ip->inum, sb));
801024da:	89 c6                	mov    %eax,%esi
		dip = (struct dinode *)bp->data + (ip->inum % IPB);
801024dc:	8b 43 04             	mov    0x4(%ebx),%eax
801024df:	83 e0 0f             	and    $0xf,%eax
801024e2:	c1 e0 07             	shl    $0x7,%eax
801024e5:	8d 44 06 5c          	lea    0x5c(%esi,%eax,1),%eax
		ip->type = dip->data.type;
801024e9:	0f b7 10             	movzwl (%eax),%edx
		memmove(ip->addrs, dip->data.addrs, sizeof(ip->addrs));
801024ec:	83 c0 0c             	add    $0xc,%eax
		ip->type = dip->data.type;
801024ef:	66 89 53 50          	mov    %dx,0x50(%ebx)
		ip->major = dip->data.major;
801024f3:	0f b7 50 f6          	movzwl -0xa(%eax),%edx
801024f7:	66 89 53 52          	mov    %dx,0x52(%ebx)
		ip->minor = dip->data.minor;
801024fb:	0f b7 50 f8          	movzwl -0x8(%eax),%edx
801024ff:	66 89 53 54          	mov    %dx,0x54(%ebx)
		ip->nlink = dip->data.nlink;
80102503:	0f b7 50 fa          	movzwl -0x6(%eax),%edx
80102507:	66 89 53 56          	mov    %dx,0x56(%ebx)
		ip->size = dip->data.size;
8010250b:	8b 50 fc             	mov    -0x4(%eax),%edx
8010250e:	89 53 58             	mov    %edx,0x58(%ebx)
		memmove(ip->addrs, dip->data.addrs, sizeof(ip->addrs));
80102511:	6a 2c                	push   $0x2c
80102513:	50                   	push   %eax
80102514:	8d 43 5c             	lea    0x5c(%ebx),%eax
80102517:	50                   	push   %eax
80102518:	e8 e3 31 00 00       	call   80105700 <memmove>
		brelse(bp);
8010251d:	89 34 24             	mov    %esi,(%esp)
80102520:	e8 3b e7 ff ff       	call   80100c60 <brelse>
		if (ip->type == 0) {
80102525:	83 c4 10             	add    $0x10,%esp
80102528:	66 83 7b 50 00       	cmpw   $0x0,0x50(%ebx)
		ip->valid = 1;
8010252d:	c7 43 4c 01 00 00 00 	movl   $0x1,0x4c(%ebx)
		if (ip->type == 0) {
80102534:	0f 85 77 ff ff ff    	jne    801024b1 <ilock+0x31>
			panic("ilock: inode has no type");
8010253a:	83 ec 0c             	sub    $0xc,%esp
8010253d:	68 f8 b2 10 80       	push   $0x8010b2f8
80102542:	e8 a9 e8 ff ff       	call   80100df0 <panic>
		panic("ilock: invalid inode");
80102547:	83 ec 0c             	sub    $0xc,%esp
8010254a:	68 e3 b2 10 80       	push   $0x8010b2e3
8010254f:	e8 9c e8 ff ff       	call   80100df0 <panic>
80102554:	2e 8d b4 26 00 00 00 	lea    %cs:0x0(%esi,%eiz,1),%esi
8010255b:	00 
8010255c:	8d 74 26 00          	lea    0x0(%esi,%eiz,1),%esi

80102560 <iunlock>:
void iunlock(struct inode *ip) {
80102560:	55                   	push   %ebp
80102561:	89 e5                	mov    %esp,%ebp
80102563:	56                   	push   %esi
80102564:	53                   	push   %ebx
80102565:	8b 5d 08             	mov    0x8(%ebp),%ebx
	if (ip == 0 || !holdingsleep(&ip->lock) || ip->ref < 1) {
80102568:	85 db                	test   %ebx,%ebx
8010256a:	74 28                	je     80102594 <iunlock+0x34>
8010256c:	83 ec 0c             	sub    $0xc,%esp
8010256f:	8d 73 0c             	lea    0xc(%ebx),%esi
80102572:	56                   	push   %esi
80102573:	e8 b8 2d 00 00       	call   80105330 <holdingsleep>
80102578:	83 c4 10             	add    $0x10,%esp
8010257b:	85 c0                	test   %eax,%eax
8010257d:	74 15                	je     80102594 <iunlock+0x34>
8010257f:	8b 43 08             	mov    0x8(%ebx),%eax
80102582:	85 c0                	test   %eax,%eax
80102584:	7e 0e                	jle    80102594 <iunlock+0x34>
	releasesleep(&ip->lock);
80102586:	89 75 08             	mov    %esi,0x8(%ebp)
}
80102589:	8d 65 f8             	lea    -0x8(%ebp),%esp
8010258c:	5b                   	pop    %ebx
8010258d:	5e                   	pop    %esi
8010258e:	5d                   	pop    %ebp
	releasesleep(&ip->lock);
8010258f:	e9 5c 2d 00 00       	jmp    801052f0 <releasesleep>
		panic("iunlock: invalid unlock attempt");
80102594:	83 ec 0c             	sub    $0xc,%esp
80102597:	68 28 b9 10 80       	push   $0x8010b928
8010259c:	e8 4f e8 ff ff       	call   80100df0 <panic>
801025a1:	2e 8d b4 26 00 00 00 	lea    %cs:0x0(%esi,%eiz,1),%esi
801025a8:	00 
801025a9:	8d b4 26 00 00 00 00 	lea    0x0(%esi,%eiz,1),%esi

801025b0 <iput>:
void iput(struct inode *ip) {
801025b0:	55                   	push   %ebp
801025b1:	89 e5                	mov    %esp,%ebp
801025b3:	57                   	push   %edi
801025b4:	56                   	push   %esi
801025b5:	53                   	push   %ebx
801025b6:	83 ec 38             	sub    $0x38,%esp
801025b9:	8b 7d 08             	mov    0x8(%ebp),%edi
	acquiresleep(&ip->lock);
801025bc:	8d 5f 0c             	lea    0xc(%edi),%ebx
801025bf:	53                   	push   %ebx
801025c0:	e8 cb 2c 00 00       	call   80105290 <acquiresleep>
	if (ip->valid && ip->nlink == 0) {
801025c5:	8b 57 4c             	mov    0x4c(%edi),%edx
801025c8:	83 c4 10             	add    $0x10,%esp
801025cb:	85 d2                	test   %edx,%edx
801025cd:	74 07                	je     801025d6 <iput+0x26>
801025cf:	66 83 7f 56 00       	cmpw   $0x0,0x56(%edi)
801025d4:	74 2f                	je     80102605 <iput+0x55>
	releasesleep(&ip->lock);
801025d6:	83 ec 0c             	sub    $0xc,%esp
801025d9:	53                   	push   %ebx
801025da:	e8 11 2d 00 00       	call   801052f0 <releasesleep>
	acquire(&icache.lock);
801025df:	c7 04 24 e0 07 13 80 	movl   $0x801307e0,(%esp)
801025e6:	e8 85 2f 00 00       	call   80105570 <acquire>
	ip->ref--;
801025eb:	83 6f 08 01          	subl   $0x1,0x8(%edi)
	release(&icache.lock);
801025ef:	83 c4 10             	add    $0x10,%esp
801025f2:	c7 45 08 e0 07 13 80 	movl   $0x801307e0,0x8(%ebp)
}
801025f9:	8d 65 f4             	lea    -0xc(%ebp),%esp
801025fc:	5b                   	pop    %ebx
801025fd:	5e                   	pop    %esi
801025fe:	5f                   	pop    %edi
801025ff:	5d                   	pop    %ebp
	release(&icache.lock);
80102600:	e9 0b 2f 00 00       	jmp    80105510 <release>
		acquire(&icache.lock);
80102605:	83 ec 0c             	sub    $0xc,%esp
80102608:	68 e0 07 13 80       	push   $0x801307e0
8010260d:	e8 5e 2f 00 00       	call   80105570 <acquire>
		int r = ip->ref;
80102612:	8b 77 08             	mov    0x8(%edi),%esi
		release(&icache.lock);
80102615:	c7 04 24 e0 07 13 80 	movl   $0x801307e0,(%esp)
8010261c:	e8 ef 2e 00 00       	call   80105510 <release>
		if (r == 1) {
80102621:	83 c4 10             	add    $0x10,%esp
80102624:	83 fe 01             	cmp    $0x1,%esi
80102627:	75 ad                	jne    801025d6 <iput+0x26>
80102629:	8d 8f 84 00 00 00    	lea    0x84(%edi),%ecx
8010262f:	89 5d e4             	mov    %ebx,-0x1c(%ebp)
80102632:	8d 77 5c             	lea    0x5c(%edi),%esi
80102635:	89 cb                	mov    %ecx,%ebx
80102637:	eb 0e                	jmp    80102647 <iput+0x97>
80102639:	8d b4 26 00 00 00 00 	lea    0x0(%esi,%eiz,1),%esi
static void itrunc(struct inode *ip) {
	struct buf *bp, *bp2;
	uint *a, *a2;

	// Free direct blocks
	for (int i = 0; i < NDIRECT; i++) {
80102640:	83 c6 04             	add    $0x4,%esi
80102643:	39 de                	cmp    %ebx,%esi
80102645:	74 15                	je     8010265c <iput+0xac>
		if (ip->addrs[i]) {
80102647:	8b 16                	mov    (%esi),%edx
80102649:	85 d2                	test   %edx,%edx
8010264b:	74 f3                	je     80102640 <iput+0x90>
			bfree(ip->dev, ip->addrs[i]);
8010264d:	8b 07                	mov    (%edi),%eax
8010264f:	e8 fc f5 ff ff       	call   80101c50 <bfree>
			ip->addrs[i] = 0;
80102654:	c7 06 00 00 00 00    	movl   $0x0,(%esi)
8010265a:	eb e4                	jmp    80102640 <iput+0x90>
		}
	}

	// Free single indirect block
	if (ip->addrs[NDIRECT]) {
8010265c:	8b 87 84 00 00 00    	mov    0x84(%edi),%eax
80102662:	8b 5d e4             	mov    -0x1c(%ebp),%ebx
80102665:	85 c0                	test   %eax,%eax
80102667:	75 37                	jne    801026a0 <iput+0xf0>
		bfree(ip->dev, ip->addrs[NDIRECT]);
		ip->addrs[NDIRECT] = 0;
	}

	// Free double indirect blocks
	if (ip->addrs[NDIRECT + 1]) {
80102669:	8b 87 88 00 00 00    	mov    0x88(%edi),%eax
8010266f:	85 c0                	test   %eax,%eax
80102671:	75 6f                	jne    801026e2 <iput+0x132>
		bfree(ip->dev, ip->addrs[NDIRECT + 1]);
		ip->addrs[NDIRECT + 1] = 0;
	}

	ip->size = 0;
	iupdate(ip);
80102673:	83 ec 0c             	sub    $0xc,%esp
	ip->size = 0;
80102676:	c7 47 58 00 00 00 00 	movl   $0x0,0x58(%edi)
	iupdate(ip);
8010267d:	57                   	push   %edi
8010267e:	e8 0d fd ff ff       	call   80102390 <iupdate>
			ip->type = 0;
80102683:	31 c0                	xor    %eax,%eax
80102685:	66 89 47 50          	mov    %ax,0x50(%edi)
			iupdate(ip);
80102689:	89 3c 24             	mov    %edi,(%esp)
8010268c:	e8 ff fc ff ff       	call   80102390 <iupdate>
			ip->valid = 0;
80102691:	c7 47 4c 00 00 00 00 	movl   $0x0,0x4c(%edi)
80102698:	83 c4 10             	add    $0x10,%esp
8010269b:	e9 36 ff ff ff       	jmp    801025d6 <iput+0x26>
		bp = bread(ip->dev, ip->addrs[NDIRECT]);
801026a0:	83 ec 08             	sub    $0x8,%esp
801026a3:	50                   	push   %eax
801026a4:	ff 37                	push   (%edi)
801026a6:	e8 95 e4 ff ff       	call   80100b40 <bread>
		for (int j = 0; j < NINDIRECT; j++) {
801026ab:	83 c4 10             	add    $0x10,%esp
801026ae:	89 5d e4             	mov    %ebx,-0x1c(%ebp)
801026b1:	8d 88 5c 08 00 00    	lea    0x85c(%eax),%ecx
801026b7:	89 45 e0             	mov    %eax,-0x20(%ebp)
801026ba:	8d 70 5c             	lea    0x5c(%eax),%esi
801026bd:	89 cb                	mov    %ecx,%ebx
801026bf:	eb 12                	jmp    801026d3 <iput+0x123>
801026c1:	8d b4 26 00 00 00 00 	lea    0x0(%esi,%eiz,1),%esi
801026c8:	83 c6 04             	add    $0x4,%esi
801026cb:	39 de                	cmp    %ebx,%esi
801026cd:	0f 84 b6 00 00 00    	je     80102789 <iput+0x1d9>
			if (a[j]) {
801026d3:	8b 16                	mov    (%esi),%edx
801026d5:	85 d2                	test   %edx,%edx
801026d7:	74 ef                	je     801026c8 <iput+0x118>
				bfree(ip->dev, a[j]);
801026d9:	8b 07                	mov    (%edi),%eax
801026db:	e8 70 f5 ff ff       	call   80101c50 <bfree>
801026e0:	eb e6                	jmp    801026c8 <iput+0x118>
		bp = bread(ip->dev, ip->addrs[NDIRECT + 1]);
801026e2:	83 ec 08             	sub    $0x8,%esp
801026e5:	50                   	push   %eax
801026e6:	ff 37                	push   (%edi)
801026e8:	e8 53 e4 ff ff       	call   80100b40 <bread>
801026ed:	83 c4 10             	add    $0x10,%esp
801026f0:	89 5d d8             	mov    %ebx,-0x28(%ebp)
801026f3:	89 c6                	mov    %eax,%esi
		for (int j = 0; j < NINDIRECT; j++) {
801026f5:	8d 48 5c             	lea    0x5c(%eax),%ecx
801026f8:	8d 80 5c 08 00 00    	lea    0x85c(%eax),%eax
801026fe:	89 45 e4             	mov    %eax,-0x1c(%ebp)
80102701:	89 75 d4             	mov    %esi,-0x2c(%ebp)
80102704:	eb 18                	jmp    8010271e <iput+0x16e>
80102706:	2e 8d b4 26 00 00 00 	lea    %cs:0x0(%esi,%eiz,1),%esi
8010270d:	00 
8010270e:	66 90                	xchg   %ax,%ax
80102710:	8b 45 e4             	mov    -0x1c(%ebp),%eax
80102713:	83 c1 04             	add    $0x4,%ecx
80102716:	39 c1                	cmp    %eax,%ecx
80102718:	0f 84 99 00 00 00    	je     801027b7 <iput+0x207>
			if (a[j]) {
8010271e:	8b 01                	mov    (%ecx),%eax
80102720:	85 c0                	test   %eax,%eax
80102722:	74 ec                	je     80102710 <iput+0x160>
				bp2 = bread(ip->dev, a[j]);
80102724:	83 ec 08             	sub    $0x8,%esp
80102727:	89 4d dc             	mov    %ecx,-0x24(%ebp)
8010272a:	50                   	push   %eax
8010272b:	ff 37                	push   (%edi)
8010272d:	e8 0e e4 ff ff       	call   80100b40 <bread>
				for (int k = 0; k < NINDIRECT; k++) {
80102732:	83 c4 10             	add    $0x10,%esp
80102735:	8d 58 5c             	lea    0x5c(%eax),%ebx
80102738:	89 45 e0             	mov    %eax,-0x20(%ebp)
8010273b:	8d b0 5c 08 00 00    	lea    0x85c(%eax),%esi
80102741:	eb 0c                	jmp    8010274f <iput+0x19f>
80102743:	2e 8d 74 26 00       	lea    %cs:0x0(%esi,%eiz,1),%esi
80102748:	83 c3 04             	add    $0x4,%ebx
8010274b:	39 f3                	cmp    %esi,%ebx
8010274d:	74 14                	je     80102763 <iput+0x1b3>
					if (a2[k]) {
8010274f:	8b 13                	mov    (%ebx),%edx
80102751:	85 d2                	test   %edx,%edx
80102753:	74 f3                	je     80102748 <iput+0x198>
						bfree(ip->dev, a2[k]);
80102755:	8b 07                	mov    (%edi),%eax
				for (int k = 0; k < NINDIRECT; k++) {
80102757:	83 c3 04             	add    $0x4,%ebx
						bfree(ip->dev, a2[k]);
8010275a:	e8 f1 f4 ff ff       	call   80101c50 <bfree>
				for (int k = 0; k < NINDIRECT; k++) {
8010275f:	39 f3                	cmp    %esi,%ebx
80102761:	75 ec                	jne    8010274f <iput+0x19f>
				brelse(bp2);
80102763:	8b 45 e0             	mov    -0x20(%ebp),%eax
80102766:	8b 4d dc             	mov    -0x24(%ebp),%ecx
80102769:	83 ec 0c             	sub    $0xc,%esp
8010276c:	89 4d e0             	mov    %ecx,-0x20(%ebp)
8010276f:	50                   	push   %eax
80102770:	e8 eb e4 ff ff       	call   80100c60 <brelse>
				bfree(ip->dev, a[j]);
80102775:	8b 4d e0             	mov    -0x20(%ebp),%ecx
80102778:	8b 07                	mov    (%edi),%eax
8010277a:	8b 11                	mov    (%ecx),%edx
8010277c:	e8 cf f4 ff ff       	call   80101c50 <bfree>
80102781:	8b 4d e0             	mov    -0x20(%ebp),%ecx
80102784:	83 c4 10             	add    $0x10,%esp
80102787:	eb 87                	jmp    80102710 <iput+0x160>
		brelse(bp);
80102789:	8b 45 e0             	mov    -0x20(%ebp),%eax
8010278c:	83 ec 0c             	sub    $0xc,%esp
8010278f:	8b 5d e4             	mov    -0x1c(%ebp),%ebx
80102792:	50                   	push   %eax
80102793:	e8 c8 e4 ff ff       	call   80100c60 <brelse>
		bfree(ip->dev, ip->addrs[NDIRECT]);
80102798:	8b 97 84 00 00 00    	mov    0x84(%edi),%edx
8010279e:	8b 07                	mov    (%edi),%eax
801027a0:	e8 ab f4 ff ff       	call   80101c50 <bfree>
		ip->addrs[NDIRECT] = 0;
801027a5:	83 c4 10             	add    $0x10,%esp
801027a8:	c7 87 84 00 00 00 00 	movl   $0x0,0x84(%edi)
801027af:	00 00 00 
801027b2:	e9 b2 fe ff ff       	jmp    80102669 <iput+0xb9>
		brelse(bp);
801027b7:	8b 75 d4             	mov    -0x2c(%ebp),%esi
801027ba:	83 ec 0c             	sub    $0xc,%esp
801027bd:	8b 5d d8             	mov    -0x28(%ebp),%ebx
801027c0:	56                   	push   %esi
801027c1:	e8 9a e4 ff ff       	call   80100c60 <brelse>
		bfree(ip->dev, ip->addrs[NDIRECT + 1]);
801027c6:	8b 97 88 00 00 00    	mov    0x88(%edi),%edx
801027cc:	8b 07                	mov    (%edi),%eax
801027ce:	e8 7d f4 ff ff       	call   80101c50 <bfree>
		ip->addrs[NDIRECT + 1] = 0;
801027d3:	83 c4 10             	add    $0x10,%esp
801027d6:	c7 87 88 00 00 00 00 	movl   $0x0,0x88(%edi)
801027dd:	00 00 00 
801027e0:	e9 8e fe ff ff       	jmp    80102673 <iput+0xc3>
801027e5:	2e 8d b4 26 00 00 00 	lea    %cs:0x0(%esi,%eiz,1),%esi
801027ec:	00 
801027ed:	8d 76 00             	lea    0x0(%esi),%esi

801027f0 <iunlockput>:
void iunlockput(struct inode *ip) {
801027f0:	55                   	push   %ebp
801027f1:	89 e5                	mov    %esp,%ebp
801027f3:	56                   	push   %esi
801027f4:	53                   	push   %ebx
801027f5:	8b 5d 08             	mov    0x8(%ebp),%ebx
	if (ip == 0 || !holdingsleep(&ip->lock) || ip->ref < 1) {
801027f8:	85 db                	test   %ebx,%ebx
801027fa:	74 34                	je     80102830 <iunlockput+0x40>
801027fc:	83 ec 0c             	sub    $0xc,%esp
801027ff:	8d 73 0c             	lea    0xc(%ebx),%esi
80102802:	56                   	push   %esi
80102803:	e8 28 2b 00 00       	call   80105330 <holdingsleep>
80102808:	83 c4 10             	add    $0x10,%esp
8010280b:	85 c0                	test   %eax,%eax
8010280d:	74 21                	je     80102830 <iunlockput+0x40>
8010280f:	8b 43 08             	mov    0x8(%ebx),%eax
80102812:	85 c0                	test   %eax,%eax
80102814:	7e 1a                	jle    80102830 <iunlockput+0x40>
	releasesleep(&ip->lock);
80102816:	83 ec 0c             	sub    $0xc,%esp
80102819:	56                   	push   %esi
8010281a:	e8 d1 2a 00 00       	call   801052f0 <releasesleep>
	iput(ip);
8010281f:	83 c4 10             	add    $0x10,%esp
80102822:	89 5d 08             	mov    %ebx,0x8(%ebp)
}
80102825:	8d 65 f8             	lea    -0x8(%ebp),%esp
80102828:	5b                   	pop    %ebx
80102829:	5e                   	pop    %esi
8010282a:	5d                   	pop    %ebp
	iput(ip);
8010282b:	e9 80 fd ff ff       	jmp    801025b0 <iput>
		panic("iunlock: invalid unlock attempt");
80102830:	83 ec 0c             	sub    $0xc,%esp
80102833:	68 28 b9 10 80       	push   $0x8010b928
80102838:	e8 b3 e5 ff ff       	call   80100df0 <panic>
8010283d:	8d 76 00             	lea    0x0(%esi),%esi

80102840 <stati>:
}

// Copy stat info from inode
void stati(struct inode *ip, struct stat *st) {
80102840:	55                   	push   %ebp
80102841:	89 e5                	mov    %esp,%ebp
80102843:	8b 45 08             	mov    0x8(%ebp),%eax
80102846:	8b 55 0c             	mov    0xc(%ebp),%edx
	if (ip == 0 || st == 0) {
80102849:	85 c0                	test   %eax,%eax
8010284b:	74 24                	je     80102871 <stati+0x31>
8010284d:	85 d2                	test   %edx,%edx
8010284f:	74 20                	je     80102871 <stati+0x31>
		return;
	}

	st->dev = ip->dev;
80102851:	8b 08                	mov    (%eax),%ecx
80102853:	89 4a 04             	mov    %ecx,0x4(%edx)
	st->ino = ip->inum;
80102856:	8b 48 04             	mov    0x4(%eax),%ecx
80102859:	89 4a 08             	mov    %ecx,0x8(%edx)
	st->type = ip->type;
8010285c:	0f b7 48 50          	movzwl 0x50(%eax),%ecx
80102860:	66 89 0a             	mov    %cx,(%edx)
	st->nlink = ip->nlink;
80102863:	0f b7 48 56          	movzwl 0x56(%eax),%ecx
80102867:	66 89 4a 0c          	mov    %cx,0xc(%edx)
	st->size = ip->size;
8010286b:	8b 40 58             	mov    0x58(%eax),%eax
8010286e:	89 42 10             	mov    %eax,0x10(%edx)
}
80102871:	5d                   	pop    %ebp
80102872:	c3                   	ret
80102873:	2e 8d b4 26 00 00 00 	lea    %cs:0x0(%esi,%eiz,1),%esi
8010287a:	00 
8010287b:	2e 8d 74 26 00       	lea    %cs:0x0(%esi,%eiz,1),%esi

80102880 <readi>:

// Read data from inode with overflow protection
int readi(struct inode *ip, char *dst, uint off, uint n) {
80102880:	55                   	push   %ebp
80102881:	89 e5                	mov    %esp,%ebp
80102883:	57                   	push   %edi
80102884:	56                   	push   %esi
80102885:	53                   	push   %ebx
80102886:	83 ec 1c             	sub    $0x1c,%esp
80102889:	8b 7d 08             	mov    0x8(%ebp),%edi
8010288c:	8b 45 0c             	mov    0xc(%ebp),%eax
8010288f:	8b 75 10             	mov    0x10(%ebp),%esi
	uint tot, m;
	struct buf *bp;

	if (ip->type == T_DEV) {
80102892:	66 83 7f 50 03       	cmpw   $0x3,0x50(%edi)
int readi(struct inode *ip, char *dst, uint off, uint n) {
80102897:	89 45 dc             	mov    %eax,-0x24(%ebp)
8010289a:	89 7d e4             	mov    %edi,-0x1c(%ebp)
8010289d:	8b 45 14             	mov    0x14(%ebp),%eax
	if (ip->type == T_DEV) {
801028a0:	0f 84 e2 00 00 00    	je     80102988 <readi+0x108>
			return -1;
		}
		return devsw[ip->major].read(ip, dst, n);
	}

	if (off > ip->size || off + n < off) { // overflow check
801028a6:	8b 7d e4             	mov    -0x1c(%ebp),%edi
801028a9:	8b 57 58             	mov    0x58(%edi),%edx
801028ac:	39 f2                	cmp    %esi,%edx
801028ae:	0f 82 f5 00 00 00    	jb     801029a9 <readi+0x129>
801028b4:	89 f1                	mov    %esi,%ecx
801028b6:	31 db                	xor    %ebx,%ebx
801028b8:	01 c1                	add    %eax,%ecx
801028ba:	0f 92 c3             	setb   %bl
801028bd:	89 df                	mov    %ebx,%edi
801028bf:	0f 82 e4 00 00 00    	jb     801029a9 <readi+0x129>
		return -1;
	}
	if (off + n > ip->size) {
		n = ip->size - off;
801028c5:	89 d3                	mov    %edx,%ebx
801028c7:	29 f3                	sub    %esi,%ebx
801028c9:	39 ca                	cmp    %ecx,%edx
801028cb:	0f 42 c3             	cmovb  %ebx,%eax
	}

	for (tot = 0; tot < n; tot += m, off += m, dst += m) {
801028ce:	85 c0                	test   %eax,%eax
801028d0:	0f 84 a4 00 00 00    	je     8010297a <readi+0xfa>
801028d6:	89 45 e0             	mov    %eax,-0x20(%ebp)
801028d9:	eb 65                	jmp    80102940 <readi+0xc0>
801028db:	2e 8d 74 26 00       	lea    %cs:0x0(%esi,%eiz,1),%esi
801028e0:	8b 45 e4             	mov    -0x1c(%ebp),%eax
801028e3:	e8 d8 f6 ff ff       	call   80101fc0 <bmap.part.0>
		bp = bread(ip->dev, bmap(ip, off / BSIZE));
801028e8:	83 ec 08             	sub    $0x8,%esp
801028eb:	50                   	push   %eax
801028ec:	8b 45 e4             	mov    -0x1c(%ebp),%eax
801028ef:	ff 30                	push   (%eax)
801028f1:	e8 4a e2 ff ff       	call   80100b40 <bread>
		m = MIN(n - tot, BSIZE - off % BSIZE);
801028f6:	8b 5d e0             	mov    -0x20(%ebp),%ebx
801028f9:	b9 00 08 00 00       	mov    $0x800,%ecx
		bp = bread(ip->dev, bmap(ip, off / BSIZE));
801028fe:	89 c2                	mov    %eax,%edx
		m = MIN(n - tot, BSIZE - off % BSIZE);
80102900:	89 f0                	mov    %esi,%eax
80102902:	25 ff 07 00 00       	and    $0x7ff,%eax
80102907:	29 fb                	sub    %edi,%ebx
80102909:	29 c1                	sub    %eax,%ecx
		memmove(dst, bp->data + off % BSIZE, m);
8010290b:	8d 44 02 5c          	lea    0x5c(%edx,%eax,1),%eax
		m = MIN(n - tot, BSIZE - off % BSIZE);
8010290f:	39 d9                	cmp    %ebx,%ecx
80102911:	0f 46 d9             	cmovbe %ecx,%ebx
		memmove(dst, bp->data + off % BSIZE, m);
80102914:	83 c4 0c             	add    $0xc,%esp
80102917:	53                   	push   %ebx
	for (tot = 0; tot < n; tot += m, off += m, dst += m) {
80102918:	01 df                	add    %ebx,%edi
8010291a:	01 de                	add    %ebx,%esi
		memmove(dst, bp->data + off % BSIZE, m);
8010291c:	89 55 d8             	mov    %edx,-0x28(%ebp)
8010291f:	50                   	push   %eax
80102920:	ff 75 dc             	push   -0x24(%ebp)
80102923:	e8 d8 2d 00 00       	call   80105700 <memmove>
		brelse(bp);
80102928:	8b 55 d8             	mov    -0x28(%ebp),%edx
8010292b:	89 14 24             	mov    %edx,(%esp)
8010292e:	e8 2d e3 ff ff       	call   80100c60 <brelse>
	for (tot = 0; tot < n; tot += m, off += m, dst += m) {
80102933:	01 5d dc             	add    %ebx,-0x24(%ebp)
80102936:	8b 5d e0             	mov    -0x20(%ebp),%ebx
80102939:	83 c4 10             	add    $0x10,%esp
8010293c:	39 df                	cmp    %ebx,%edi
8010293e:	73 38                	jae    80102978 <readi+0xf8>
		bp = bread(ip->dev, bmap(ip, off / BSIZE));
80102940:	89 f2                	mov    %esi,%edx
80102942:	c1 ea 0b             	shr    $0xb,%edx
	if (bn < NDIRECT) {
80102945:	81 fe ff 4f 00 00    	cmp    $0x4fff,%esi
8010294b:	77 93                	ja     801028e0 <readi+0x60>
		if ((addr = ip->addrs[bn]) == 0) {
8010294d:	8b 45 e4             	mov    -0x1c(%ebp),%eax
80102950:	8d 5a 14             	lea    0x14(%edx),%ebx
80102953:	8b 44 98 0c          	mov    0xc(%eax,%ebx,4),%eax
80102957:	85 c0                	test   %eax,%eax
80102959:	75 8d                	jne    801028e8 <readi+0x68>
			ip->addrs[bn] = addr = balloc(ip->dev);
8010295b:	8b 45 e4             	mov    -0x1c(%ebp),%eax
8010295e:	8b 00                	mov    (%eax),%eax
80102960:	e8 6b f4 ff ff       	call   80101dd0 <balloc>
80102965:	8b 4d e4             	mov    -0x1c(%ebp),%ecx
80102968:	89 44 99 0c          	mov    %eax,0xc(%ecx,%ebx,4)
8010296c:	e9 77 ff ff ff       	jmp    801028e8 <readi+0x68>
80102971:	8d b4 26 00 00 00 00 	lea    0x0(%esi,%eiz,1),%esi
80102978:	89 d8                	mov    %ebx,%eax
	}

	return n;
}
8010297a:	8d 65 f4             	lea    -0xc(%ebp),%esp
8010297d:	5b                   	pop    %ebx
8010297e:	5e                   	pop    %esi
8010297f:	5f                   	pop    %edi
80102980:	5d                   	pop    %ebp
80102981:	c3                   	ret
80102982:	8d b6 00 00 00 00    	lea    0x0(%esi),%esi
		if (ip->major < 0 || ip->major >= NDEV ||
80102988:	0f bf 57 52          	movswl 0x52(%edi),%edx
8010298c:	66 83 fa 09          	cmp    $0x9,%dx
80102990:	77 17                	ja     801029a9 <readi+0x129>
		    !devsw[ip->major].read) {
80102992:	8b 14 d5 80 07 13 80 	mov    -0x7fecf880(,%edx,8),%edx
		if (ip->major < 0 || ip->major >= NDEV ||
80102999:	85 d2                	test   %edx,%edx
8010299b:	74 0c                	je     801029a9 <readi+0x129>
		return devsw[ip->major].read(ip, dst, n);
8010299d:	89 45 10             	mov    %eax,0x10(%ebp)
}
801029a0:	8d 65 f4             	lea    -0xc(%ebp),%esp
801029a3:	5b                   	pop    %ebx
801029a4:	5e                   	pop    %esi
801029a5:	5f                   	pop    %edi
801029a6:	5d                   	pop    %ebp
		return devsw[ip->major].read(ip, dst, n);
801029a7:	ff e2                	jmp    *%edx
			return -1;
801029a9:	b8 ff ff ff ff       	mov    $0xffffffff,%eax
801029ae:	eb ca                	jmp    8010297a <readi+0xfa>

801029b0 <writei>:

// Write data to inode with bounds checking
int writei(struct inode *ip, char *src, uint off, uint n) {
801029b0:	55                   	push   %ebp
801029b1:	89 e5                	mov    %esp,%ebp
801029b3:	57                   	push   %edi
801029b4:	56                   	push   %esi
801029b5:	53                   	push   %ebx
801029b6:	83 ec 1c             	sub    $0x1c,%esp
801029b9:	8b 45 0c             	mov    0xc(%ebp),%eax
801029bc:	8b 55 08             	mov    0x8(%ebp),%edx
801029bf:	8b 7d 10             	mov    0x10(%ebp),%edi
801029c2:	89 45 d8             	mov    %eax,-0x28(%ebp)
801029c5:	8b 45 14             	mov    0x14(%ebp),%eax
	uint tot, m;
	struct buf *bp;

	if (ip->type == T_DEV) {
801029c8:	66 83 7a 50 03       	cmpw   $0x3,0x50(%edx)
int writei(struct inode *ip, char *src, uint off, uint n) {
801029cd:	89 45 e0             	mov    %eax,-0x20(%ebp)
	if (ip->type == T_DEV) {
801029d0:	0f 84 f2 00 00 00    	je     80102ac8 <writei+0x118>
		}
		return devsw[ip->major].write(ip, src, n);
	}

	// Check for overflow and max file size
	if (off > ip->size || off + n < off) {
801029d6:	39 7a 58             	cmp    %edi,0x58(%edx)
801029d9:	0f 82 22 01 00 00    	jb     80102b01 <writei+0x151>
		return -1;
	}
	if (off + n > MAXFILE * BSIZE) {
801029df:	8b 75 e0             	mov    -0x20(%ebp),%esi
801029e2:	89 f0                	mov    %esi,%eax
801029e4:	01 f8                	add    %edi,%eax
801029e6:	0f 82 15 01 00 00    	jb     80102b01 <writei+0x151>
801029ec:	3d 00 50 10 20       	cmp    $0x20105000,%eax
801029f1:	0f 87 0a 01 00 00    	ja     80102b01 <writei+0x151>
		return -1;
	}

	for (tot = 0; tot < n; tot += m, off += m, src += m) {
801029f7:	c7 45 e4 00 00 00 00 	movl   $0x0,-0x1c(%ebp)
801029fe:	85 f6                	test   %esi,%esi
80102a00:	0f 84 b2 00 00 00    	je     80102ab8 <writei+0x108>
80102a06:	89 55 dc             	mov    %edx,-0x24(%ebp)
80102a09:	eb 6e                	jmp    80102a79 <writei+0xc9>
80102a0b:	2e 8d 74 26 00       	lea    %cs:0x0(%esi,%eiz,1),%esi
80102a10:	8b 45 dc             	mov    -0x24(%ebp),%eax
80102a13:	e8 a8 f5 ff ff       	call   80101fc0 <bmap.part.0>
		bp = bread(ip->dev, bmap(ip, off / BSIZE));
80102a18:	83 ec 08             	sub    $0x8,%esp
80102a1b:	50                   	push   %eax
80102a1c:	8b 45 dc             	mov    -0x24(%ebp),%eax
80102a1f:	ff 30                	push   (%eax)
80102a21:	e8 1a e1 ff ff       	call   80100b40 <bread>
		m = MIN(n - tot, BSIZE - off % BSIZE);
80102a26:	8b 55 e4             	mov    -0x1c(%ebp),%edx
80102a29:	8b 5d e0             	mov    -0x20(%ebp),%ebx
80102a2c:	b9 00 08 00 00       	mov    $0x800,%ecx
		bp = bread(ip->dev, bmap(ip, off / BSIZE));
80102a31:	89 c6                	mov    %eax,%esi
		m = MIN(n - tot, BSIZE - off % BSIZE);
80102a33:	89 f8                	mov    %edi,%eax
80102a35:	25 ff 07 00 00       	and    $0x7ff,%eax
80102a3a:	29 d3                	sub    %edx,%ebx
80102a3c:	29 c1                	sub    %eax,%ecx
		memmove(bp->data + off % BSIZE, src, m);
80102a3e:	8d 44 06 5c          	lea    0x5c(%esi,%eax,1),%eax
		m = MIN(n - tot, BSIZE - off % BSIZE);
80102a42:	39 d9                	cmp    %ebx,%ecx
80102a44:	0f 46 d9             	cmovbe %ecx,%ebx
		memmove(bp->data + off % BSIZE, src, m);
80102a47:	83 c4 0c             	add    $0xc,%esp
80102a4a:	53                   	push   %ebx
	for (tot = 0; tot < n; tot += m, off += m, src += m) {
80102a4b:	01 df                	add    %ebx,%edi
		memmove(bp->data + off % BSIZE, src, m);
80102a4d:	ff 75 d8             	push   -0x28(%ebp)
80102a50:	50                   	push   %eax
80102a51:	e8 aa 2c 00 00       	call   80105700 <memmove>
		log_write(bp);
80102a56:	89 34 24             	mov    %esi,(%esp)
80102a59:	e8 32 14 00 00       	call   80103e90 <log_write>
		brelse(bp);
80102a5e:	89 34 24             	mov    %esi,(%esp)
80102a61:	e8 fa e1 ff ff       	call   80100c60 <brelse>
	for (tot = 0; tot < n; tot += m, off += m, src += m) {
80102a66:	01 5d e4             	add    %ebx,-0x1c(%ebp)
80102a69:	8b 45 e4             	mov    -0x1c(%ebp),%eax
80102a6c:	83 c4 10             	add    $0x10,%esp
80102a6f:	01 5d d8             	add    %ebx,-0x28(%ebp)
80102a72:	8b 5d e0             	mov    -0x20(%ebp),%ebx
80102a75:	39 d8                	cmp    %ebx,%eax
80102a77:	73 37                	jae    80102ab0 <writei+0x100>
		bp = bread(ip->dev, bmap(ip, off / BSIZE));
80102a79:	89 fa                	mov    %edi,%edx
80102a7b:	c1 ea 0b             	shr    $0xb,%edx
	if (bn < NDIRECT) {
80102a7e:	81 ff ff 4f 00 00    	cmp    $0x4fff,%edi
80102a84:	77 8a                	ja     80102a10 <writei+0x60>
		if ((addr = ip->addrs[bn]) == 0) {
80102a86:	8b 45 dc             	mov    -0x24(%ebp),%eax
80102a89:	8d 5a 14             	lea    0x14(%edx),%ebx
80102a8c:	8b 44 98 0c          	mov    0xc(%eax,%ebx,4),%eax
80102a90:	85 c0                	test   %eax,%eax
80102a92:	75 84                	jne    80102a18 <writei+0x68>
			ip->addrs[bn] = addr = balloc(ip->dev);
80102a94:	8b 75 dc             	mov    -0x24(%ebp),%esi
80102a97:	8b 06                	mov    (%esi),%eax
80102a99:	e8 32 f3 ff ff       	call   80101dd0 <balloc>
80102a9e:	89 44 9e 0c          	mov    %eax,0xc(%esi,%ebx,4)
80102aa2:	e9 71 ff ff ff       	jmp    80102a18 <writei+0x68>
80102aa7:	2e 8d b4 26 00 00 00 	lea    %cs:0x0(%esi,%eiz,1),%esi
80102aae:	00 
80102aaf:	90                   	nop
	}

	// Update size if file grew
	if (n > 0 && off > ip->size) {
80102ab0:	8b 55 dc             	mov    -0x24(%ebp),%edx
80102ab3:	39 7a 58             	cmp    %edi,0x58(%edx)
80102ab6:	72 38                	jb     80102af0 <writei+0x140>
		ip->size = off;
		iupdate(ip);
	}

	return n;
80102ab8:	8b 45 e0             	mov    -0x20(%ebp),%eax
}
80102abb:	8d 65 f4             	lea    -0xc(%ebp),%esp
80102abe:	5b                   	pop    %ebx
80102abf:	5e                   	pop    %esi
80102ac0:	5f                   	pop    %edi
80102ac1:	5d                   	pop    %ebp
80102ac2:	c3                   	ret
80102ac3:	2e 8d 74 26 00       	lea    %cs:0x0(%esi,%eiz,1),%esi
		if (ip->major < 0 || ip->major >= NDEV ||
80102ac8:	0f bf 42 52          	movswl 0x52(%edx),%eax
80102acc:	66 83 f8 09          	cmp    $0x9,%ax
80102ad0:	77 2f                	ja     80102b01 <writei+0x151>
		    !devsw[ip->major].write) {
80102ad2:	8b 04 c5 84 07 13 80 	mov    -0x7fecf87c(,%eax,8),%eax
		if (ip->major < 0 || ip->major >= NDEV ||
80102ad9:	85 c0                	test   %eax,%eax
80102adb:	74 24                	je     80102b01 <writei+0x151>
		return devsw[ip->major].write(ip, src, n);
80102add:	8b 7d e0             	mov    -0x20(%ebp),%edi
80102ae0:	89 7d 10             	mov    %edi,0x10(%ebp)
}
80102ae3:	8d 65 f4             	lea    -0xc(%ebp),%esp
80102ae6:	5b                   	pop    %ebx
80102ae7:	5e                   	pop    %esi
80102ae8:	5f                   	pop    %edi
80102ae9:	5d                   	pop    %ebp
		return devsw[ip->major].write(ip, src, n);
80102aea:	ff e0                	jmp    *%eax
80102aec:	8d 74 26 00          	lea    0x0(%esi,%eiz,1),%esi
		iupdate(ip);
80102af0:	83 ec 0c             	sub    $0xc,%esp
		ip->size = off;
80102af3:	89 7a 58             	mov    %edi,0x58(%edx)
		iupdate(ip);
80102af6:	52                   	push   %edx
80102af7:	e8 94 f8 ff ff       	call   80102390 <iupdate>
80102afc:	83 c4 10             	add    $0x10,%esp
80102aff:	eb b7                	jmp    80102ab8 <writei+0x108>
			return -1;
80102b01:	b8 ff ff ff ff       	mov    $0xffffffff,%eax
80102b06:	eb b3                	jmp    80102abb <writei+0x10b>
80102b08:	2e 8d b4 26 00 00 00 	lea    %cs:0x0(%esi,%eiz,1),%esi
80102b0f:	00 

80102b10 <namecmp>:

// Directory name comparison
int namecmp(const char *s, const char *t) { return strncmp(s, t, DIRSIZ); }
80102b10:	55                   	push   %ebp
80102b11:	89 e5                	mov    %esp,%ebp
80102b13:	83 ec 0c             	sub    $0xc,%esp
80102b16:	6a 0e                	push   $0xe
80102b18:	ff 75 0c             	push   0xc(%ebp)
80102b1b:	ff 75 08             	push   0x8(%ebp)
80102b1e:	e8 4d 2c 00 00       	call   80105770 <strncmp>
80102b23:	c9                   	leave
80102b24:	c3                   	ret
80102b25:	2e 8d b4 26 00 00 00 	lea    %cs:0x0(%esi,%eiz,1),%esi
80102b2c:	00 
80102b2d:	8d 76 00             	lea    0x0(%esi),%esi

80102b30 <dirlookup>:

// Look for name in directory
struct inode *dirlookup(struct inode *dp, char *name, uint *poff) {
80102b30:	55                   	push   %ebp
80102b31:	89 e5                	mov    %esp,%ebp
80102b33:	57                   	push   %edi
80102b34:	56                   	push   %esi
80102b35:	53                   	push   %ebx
80102b36:	83 ec 1c             	sub    $0x1c,%esp
80102b39:	8b 5d 08             	mov    0x8(%ebp),%ebx
	uint off;
	struct dirent de;

	if (dp->type != T_DIR) {
80102b3c:	66 83 7b 50 01       	cmpw   $0x1,0x50(%ebx)
80102b41:	0f 85 85 00 00 00    	jne    80102bcc <dirlookup+0x9c>
		panic("dirlookup: not a directory");
	}

	for (off = 0; off < dp->size; off += sizeof(de)) {
80102b47:	8b 53 58             	mov    0x58(%ebx),%edx
80102b4a:	31 ff                	xor    %edi,%edi
80102b4c:	8d 75 d8             	lea    -0x28(%ebp),%esi
80102b4f:	85 d2                	test   %edx,%edx
80102b51:	74 3e                	je     80102b91 <dirlookup+0x61>
80102b53:	2e 8d 74 26 00       	lea    %cs:0x0(%esi,%eiz,1),%esi
		if (readi(dp, (char *)&de, off, sizeof(de)) != sizeof(de)) {
80102b58:	6a 10                	push   $0x10
80102b5a:	57                   	push   %edi
80102b5b:	56                   	push   %esi
80102b5c:	53                   	push   %ebx
80102b5d:	e8 1e fd ff ff       	call   80102880 <readi>
80102b62:	83 c4 10             	add    $0x10,%esp
80102b65:	83 f8 10             	cmp    $0x10,%eax
80102b68:	75 55                	jne    80102bbf <dirlookup+0x8f>
			panic("dirlookup: read error");
		}
		if (de.inum == 0) {
80102b6a:	66 83 7d d8 00       	cmpw   $0x0,-0x28(%ebp)
80102b6f:	74 18                	je     80102b89 <dirlookup+0x59>
int namecmp(const char *s, const char *t) { return strncmp(s, t, DIRSIZ); }
80102b71:	83 ec 04             	sub    $0x4,%esp
80102b74:	8d 45 da             	lea    -0x26(%ebp),%eax
80102b77:	6a 0e                	push   $0xe
80102b79:	50                   	push   %eax
80102b7a:	ff 75 0c             	push   0xc(%ebp)
80102b7d:	e8 ee 2b 00 00       	call   80105770 <strncmp>
			continue;
		}
		if (namecmp(name, de.name) == 0) {
80102b82:	83 c4 10             	add    $0x10,%esp
80102b85:	85 c0                	test   %eax,%eax
80102b87:	74 17                	je     80102ba0 <dirlookup+0x70>
	for (off = 0; off < dp->size; off += sizeof(de)) {
80102b89:	83 c7 10             	add    $0x10,%edi
80102b8c:	3b 7b 58             	cmp    0x58(%ebx),%edi
80102b8f:	72 c7                	jb     80102b58 <dirlookup+0x28>
			return iget(dp->dev, de.inum);
		}
	}

	return 0;
}
80102b91:	8d 65 f4             	lea    -0xc(%ebp),%esp
	return 0;
80102b94:	31 c0                	xor    %eax,%eax
}
80102b96:	5b                   	pop    %ebx
80102b97:	5e                   	pop    %esi
80102b98:	5f                   	pop    %edi
80102b99:	5d                   	pop    %ebp
80102b9a:	c3                   	ret
80102b9b:	2e 8d 74 26 00       	lea    %cs:0x0(%esi,%eiz,1),%esi
			if (poff) {
80102ba0:	8b 45 10             	mov    0x10(%ebp),%eax
80102ba3:	85 c0                	test   %eax,%eax
80102ba5:	74 05                	je     80102bac <dirlookup+0x7c>
				*poff = off;
80102ba7:	8b 45 10             	mov    0x10(%ebp),%eax
80102baa:	89 38                	mov    %edi,(%eax)
			return iget(dp->dev, de.inum);
80102bac:	0f b7 55 d8          	movzwl -0x28(%ebp),%edx
80102bb0:	8b 03                	mov    (%ebx),%eax
80102bb2:	e8 29 f1 ff ff       	call   80101ce0 <iget>
}
80102bb7:	8d 65 f4             	lea    -0xc(%ebp),%esp
80102bba:	5b                   	pop    %ebx
80102bbb:	5e                   	pop    %esi
80102bbc:	5f                   	pop    %edi
80102bbd:	5d                   	pop    %ebp
80102bbe:	c3                   	ret
			panic("dirlookup: read error");
80102bbf:	83 ec 0c             	sub    $0xc,%esp
80102bc2:	68 2c b3 10 80       	push   $0x8010b32c
80102bc7:	e8 24 e2 ff ff       	call   80100df0 <panic>
		panic("dirlookup: not a directory");
80102bcc:	83 ec 0c             	sub    $0xc,%esp
80102bcf:	68 11 b3 10 80       	push   $0x8010b311
80102bd4:	e8 17 e2 ff ff       	call   80100df0 <panic>
80102bd9:	8d b4 26 00 00 00 00 	lea    0x0(%esi,%eiz,1),%esi

80102be0 <namex>:

	return path;
}

// Core path resolution
static struct inode *namex(char *path, int nameiparent, char *name) {
80102be0:	55                   	push   %ebp
80102be1:	89 e5                	mov    %esp,%ebp
80102be3:	57                   	push   %edi
80102be4:	56                   	push   %esi
80102be5:	53                   	push   %ebx
80102be6:	89 c3                	mov    %eax,%ebx
80102be8:	83 ec 1c             	sub    $0x1c,%esp
	struct inode *ip, *next;

	if (*path == '/') {
80102beb:	80 38 2f             	cmpb   $0x2f,(%eax)
static struct inode *namex(char *path, int nameiparent, char *name) {
80102bee:	89 55 dc             	mov    %edx,-0x24(%ebp)
80102bf1:	89 4d e4             	mov    %ecx,-0x1c(%ebp)
	if (*path == '/') {
80102bf4:	0f 84 ae 01 00 00    	je     80102da8 <namex+0x1c8>
		ip = iget(ROOTDEV, ROOTINO);
	} else {
		ip = idup(myproc()->cwd);
80102bfa:	e8 f1 1c 00 00       	call   801048f0 <myproc>
80102bff:	8b b0 28 01 00 00    	mov    0x128(%eax),%esi
	if (ip == 0) {
80102c05:	85 f6                	test   %esi,%esi
80102c07:	0f 84 fe 01 00 00    	je     80102e0b <namex+0x22b>
	acquire(&icache.lock);
80102c0d:	83 ec 0c             	sub    $0xc,%esp
80102c10:	68 e0 07 13 80       	push   $0x801307e0
80102c15:	e8 56 29 00 00       	call   80105570 <acquire>
	ip->ref++;
80102c1a:	83 46 08 01          	addl   $0x1,0x8(%esi)
	release(&icache.lock);
80102c1e:	c7 04 24 e0 07 13 80 	movl   $0x801307e0,(%esp)
80102c25:	e8 e6 28 00 00       	call   80105510 <release>
80102c2a:	83 c4 10             	add    $0x10,%esp
80102c2d:	eb 04                	jmp    80102c33 <namex+0x53>
80102c2f:	90                   	nop
		path++;
80102c30:	83 c3 01             	add    $0x1,%ebx
	while (*path == '/') {
80102c33:	0f b6 03             	movzbl (%ebx),%eax
80102c36:	3c 2f                	cmp    $0x2f,%al
80102c38:	74 f6                	je     80102c30 <namex+0x50>
	if (*path == 0) {
80102c3a:	84 c0                	test   %al,%al
80102c3c:	0f 84 0e 01 00 00    	je     80102d50 <namex+0x170>
	while (*path != '/' && *path != 0) {
80102c42:	0f b6 03             	movzbl (%ebx),%eax
80102c45:	84 c0                	test   %al,%al
80102c47:	0f 84 18 01 00 00    	je     80102d65 <namex+0x185>
80102c4d:	89 df                	mov    %ebx,%edi
80102c4f:	3c 2f                	cmp    $0x2f,%al
80102c51:	0f 84 0e 01 00 00    	je     80102d65 <namex+0x185>
80102c57:	2e 8d b4 26 00 00 00 	lea    %cs:0x0(%esi,%eiz,1),%esi
80102c5e:	00 
80102c5f:	90                   	nop
80102c60:	0f b6 47 01          	movzbl 0x1(%edi),%eax
		path++;
80102c64:	83 c7 01             	add    $0x1,%edi
	while (*path != '/' && *path != 0) {
80102c67:	3c 2f                	cmp    $0x2f,%al
80102c69:	74 04                	je     80102c6f <namex+0x8f>
80102c6b:	84 c0                	test   %al,%al
80102c6d:	75 f1                	jne    80102c60 <namex+0x80>
	len = path - s;
80102c6f:	89 f8                	mov    %edi,%eax
80102c71:	29 d8                	sub    %ebx,%eax
	if (len >= DIRSIZ) {
80102c73:	83 f8 0d             	cmp    $0xd,%eax
80102c76:	0f 8e ac 00 00 00    	jle    80102d28 <namex+0x148>
		memmove(name, s, DIRSIZ);
80102c7c:	83 ec 04             	sub    $0x4,%esp
80102c7f:	6a 0e                	push   $0xe
80102c81:	53                   	push   %ebx
80102c82:	89 fb                	mov    %edi,%ebx
80102c84:	ff 75 e4             	push   -0x1c(%ebp)
80102c87:	e8 74 2a 00 00       	call   80105700 <memmove>
80102c8c:	83 c4 10             	add    $0x10,%esp
	while (*path == '/') {
80102c8f:	80 3f 2f             	cmpb   $0x2f,(%edi)
80102c92:	75 0c                	jne    80102ca0 <namex+0xc0>
80102c94:	8d 74 26 00          	lea    0x0(%esi,%eiz,1),%esi
		path++;
80102c98:	83 c3 01             	add    $0x1,%ebx
	while (*path == '/') {
80102c9b:	80 3b 2f             	cmpb   $0x2f,(%ebx)
80102c9e:	74 f8                	je     80102c98 <namex+0xb8>
	}

	while ((path = skipelem(path, name)) != 0) {
		ilock(ip);
80102ca0:	83 ec 0c             	sub    $0xc,%esp
80102ca3:	56                   	push   %esi
80102ca4:	e8 d7 f7 ff ff       	call   80102480 <ilock>

		if (ip->type != T_DIR) {
80102ca9:	83 c4 10             	add    $0x10,%esp
80102cac:	66 83 7e 50 01       	cmpw   $0x1,0x50(%esi)
80102cb1:	0f 85 b7 00 00 00    	jne    80102d6e <namex+0x18e>
			iunlockput(ip);
			return 0;
		}

		if (nameiparent && *path == '\0') {
80102cb7:	8b 45 dc             	mov    -0x24(%ebp),%eax
80102cba:	85 c0                	test   %eax,%eax
80102cbc:	74 09                	je     80102cc7 <namex+0xe7>
80102cbe:	80 3b 00             	cmpb   $0x0,(%ebx)
80102cc1:	0f 84 f7 00 00 00    	je     80102dbe <namex+0x1de>
			iunlock(ip);
			return ip;
		}

		if ((next = dirlookup(ip, name, 0)) == 0) {
80102cc7:	83 ec 04             	sub    $0x4,%esp
80102cca:	6a 00                	push   $0x0
80102ccc:	ff 75 e4             	push   -0x1c(%ebp)
80102ccf:	56                   	push   %esi
80102cd0:	e8 5b fe ff ff       	call   80102b30 <dirlookup>
80102cd5:	83 c4 10             	add    $0x10,%esp
80102cd8:	89 c7                	mov    %eax,%edi
80102cda:	85 c0                	test   %eax,%eax
80102cdc:	0f 84 8c 00 00 00    	je     80102d6e <namex+0x18e>
	if (ip == 0 || !holdingsleep(&ip->lock) || ip->ref < 1) {
80102ce2:	83 ec 0c             	sub    $0xc,%esp
80102ce5:	8d 4e 0c             	lea    0xc(%esi),%ecx
80102ce8:	51                   	push   %ecx
80102ce9:	89 4d e0             	mov    %ecx,-0x20(%ebp)
80102cec:	e8 3f 26 00 00       	call   80105330 <holdingsleep>
80102cf1:	83 c4 10             	add    $0x10,%esp
80102cf4:	85 c0                	test   %eax,%eax
80102cf6:	0f 84 02 01 00 00    	je     80102dfe <namex+0x21e>
80102cfc:	8b 56 08             	mov    0x8(%esi),%edx
80102cff:	85 d2                	test   %edx,%edx
80102d01:	0f 8e f7 00 00 00    	jle    80102dfe <namex+0x21e>
	releasesleep(&ip->lock);
80102d07:	8b 4d e0             	mov    -0x20(%ebp),%ecx
80102d0a:	83 ec 0c             	sub    $0xc,%esp
80102d0d:	51                   	push   %ecx
80102d0e:	e8 dd 25 00 00       	call   801052f0 <releasesleep>
	iput(ip);
80102d13:	89 34 24             	mov    %esi,(%esp)
			iunlockput(ip);
			return 0;
		}

		iunlockput(ip);
		ip = next;
80102d16:	89 fe                	mov    %edi,%esi
	iput(ip);
80102d18:	e8 93 f8 ff ff       	call   801025b0 <iput>
80102d1d:	83 c4 10             	add    $0x10,%esp
	while (*path == '/') {
80102d20:	e9 0e ff ff ff       	jmp    80102c33 <namex+0x53>
80102d25:	8d 76 00             	lea    0x0(%esi),%esi
		name[len] = 0;
80102d28:	8b 55 e4             	mov    -0x1c(%ebp),%edx
80102d2b:	8d 0c 02             	lea    (%edx,%eax,1),%ecx
		memmove(name, s, len);
80102d2e:	83 ec 04             	sub    $0x4,%esp
80102d31:	89 4d e0             	mov    %ecx,-0x20(%ebp)
80102d34:	50                   	push   %eax
80102d35:	53                   	push   %ebx
		name[len] = 0;
80102d36:	89 fb                	mov    %edi,%ebx
		memmove(name, s, len);
80102d38:	ff 75 e4             	push   -0x1c(%ebp)
80102d3b:	e8 c0 29 00 00       	call   80105700 <memmove>
		name[len] = 0;
80102d40:	8b 4d e0             	mov    -0x20(%ebp),%ecx
80102d43:	83 c4 10             	add    $0x10,%esp
80102d46:	c6 01 00             	movb   $0x0,(%ecx)
80102d49:	e9 41 ff ff ff       	jmp    80102c8f <namex+0xaf>
80102d4e:	66 90                	xchg   %ax,%ax
	}

	if (nameiparent) {
80102d50:	8b 45 dc             	mov    -0x24(%ebp),%eax
80102d53:	85 c0                	test   %eax,%eax
80102d55:	0f 85 93 00 00 00    	jne    80102dee <namex+0x20e>
		iput(ip);
		return 0;
	}

	return ip;
}
80102d5b:	8d 65 f4             	lea    -0xc(%ebp),%esp
80102d5e:	89 f0                	mov    %esi,%eax
80102d60:	5b                   	pop    %ebx
80102d61:	5e                   	pop    %esi
80102d62:	5f                   	pop    %edi
80102d63:	5d                   	pop    %ebp
80102d64:	c3                   	ret
	while (*path != '/' && *path != 0) {
80102d65:	8b 4d e4             	mov    -0x1c(%ebp),%ecx
80102d68:	89 df                	mov    %ebx,%edi
80102d6a:	31 c0                	xor    %eax,%eax
80102d6c:	eb c0                	jmp    80102d2e <namex+0x14e>
	if (ip == 0 || !holdingsleep(&ip->lock) || ip->ref < 1) {
80102d6e:	83 ec 0c             	sub    $0xc,%esp
80102d71:	8d 5e 0c             	lea    0xc(%esi),%ebx
80102d74:	53                   	push   %ebx
80102d75:	e8 b6 25 00 00       	call   80105330 <holdingsleep>
80102d7a:	83 c4 10             	add    $0x10,%esp
80102d7d:	85 c0                	test   %eax,%eax
80102d7f:	74 7d                	je     80102dfe <namex+0x21e>
80102d81:	8b 4e 08             	mov    0x8(%esi),%ecx
80102d84:	85 c9                	test   %ecx,%ecx
80102d86:	7e 76                	jle    80102dfe <namex+0x21e>
	releasesleep(&ip->lock);
80102d88:	83 ec 0c             	sub    $0xc,%esp
80102d8b:	53                   	push   %ebx
80102d8c:	e8 5f 25 00 00       	call   801052f0 <releasesleep>
	iput(ip);
80102d91:	89 34 24             	mov    %esi,(%esp)
			return 0;
80102d94:	31 f6                	xor    %esi,%esi
	iput(ip);
80102d96:	e8 15 f8 ff ff       	call   801025b0 <iput>
			return 0;
80102d9b:	83 c4 10             	add    $0x10,%esp
}
80102d9e:	8d 65 f4             	lea    -0xc(%ebp),%esp
80102da1:	89 f0                	mov    %esi,%eax
80102da3:	5b                   	pop    %ebx
80102da4:	5e                   	pop    %esi
80102da5:	5f                   	pop    %edi
80102da6:	5d                   	pop    %ebp
80102da7:	c3                   	ret
		ip = iget(ROOTDEV, ROOTINO);
80102da8:	ba 01 00 00 00       	mov    $0x1,%edx
80102dad:	b8 01 00 00 00       	mov    $0x1,%eax
80102db2:	e8 29 ef ff ff       	call   80101ce0 <iget>
80102db7:	89 c6                	mov    %eax,%esi
80102db9:	e9 75 fe ff ff       	jmp    80102c33 <namex+0x53>
	if (ip == 0 || !holdingsleep(&ip->lock) || ip->ref < 1) {
80102dbe:	83 ec 0c             	sub    $0xc,%esp
80102dc1:	8d 5e 0c             	lea    0xc(%esi),%ebx
80102dc4:	53                   	push   %ebx
80102dc5:	e8 66 25 00 00       	call   80105330 <holdingsleep>
80102dca:	83 c4 10             	add    $0x10,%esp
80102dcd:	85 c0                	test   %eax,%eax
80102dcf:	74 2d                	je     80102dfe <namex+0x21e>
80102dd1:	8b 7e 08             	mov    0x8(%esi),%edi
80102dd4:	85 ff                	test   %edi,%edi
80102dd6:	7e 26                	jle    80102dfe <namex+0x21e>
	releasesleep(&ip->lock);
80102dd8:	83 ec 0c             	sub    $0xc,%esp
80102ddb:	53                   	push   %ebx
80102ddc:	e8 0f 25 00 00       	call   801052f0 <releasesleep>
}
80102de1:	83 c4 10             	add    $0x10,%esp
}
80102de4:	8d 65 f4             	lea    -0xc(%ebp),%esp
80102de7:	89 f0                	mov    %esi,%eax
80102de9:	5b                   	pop    %ebx
80102dea:	5e                   	pop    %esi
80102deb:	5f                   	pop    %edi
80102dec:	5d                   	pop    %ebp
80102ded:	c3                   	ret
		iput(ip);
80102dee:	83 ec 0c             	sub    $0xc,%esp
80102df1:	56                   	push   %esi
			return 0;
80102df2:	31 f6                	xor    %esi,%esi
		iput(ip);
80102df4:	e8 b7 f7 ff ff       	call   801025b0 <iput>
		return 0;
80102df9:	83 c4 10             	add    $0x10,%esp
80102dfc:	eb a0                	jmp    80102d9e <namex+0x1be>
		panic("iunlock: invalid unlock attempt");
80102dfe:	83 ec 0c             	sub    $0xc,%esp
80102e01:	68 28 b9 10 80       	push   $0x8010b928
80102e06:	e8 e5 df ff ff       	call   80100df0 <panic>
		panic("idup: null inode");
80102e0b:	83 ec 0c             	sub    $0xc,%esp
80102e0e:	68 d2 b2 10 80       	push   $0x8010b2d2
80102e13:	e8 d8 df ff ff       	call   80100df0 <panic>
80102e18:	2e 8d b4 26 00 00 00 	lea    %cs:0x0(%esi,%eiz,1),%esi
80102e1f:	00 

80102e20 <dirlink>:
int dirlink(struct inode *dp, char *name, uint inum) {
80102e20:	55                   	push   %ebp
80102e21:	89 e5                	mov    %esp,%ebp
80102e23:	57                   	push   %edi
80102e24:	56                   	push   %esi
80102e25:	53                   	push   %ebx
80102e26:	83 ec 20             	sub    $0x20,%esp
80102e29:	8b 5d 08             	mov    0x8(%ebp),%ebx
	if ((ip = dirlookup(dp, name, 0)) != 0) {
80102e2c:	6a 00                	push   $0x0
80102e2e:	ff 75 0c             	push   0xc(%ebp)
80102e31:	53                   	push   %ebx
80102e32:	e8 f9 fc ff ff       	call   80102b30 <dirlookup>
80102e37:	83 c4 10             	add    $0x10,%esp
80102e3a:	85 c0                	test   %eax,%eax
80102e3c:	75 67                	jne    80102ea5 <dirlink+0x85>
	for (off = 0; off < dp->size; off += sizeof(de)) {
80102e3e:	8b 7b 58             	mov    0x58(%ebx),%edi
80102e41:	8d 75 d8             	lea    -0x28(%ebp),%esi
80102e44:	85 ff                	test   %edi,%edi
80102e46:	74 29                	je     80102e71 <dirlink+0x51>
80102e48:	31 ff                	xor    %edi,%edi
80102e4a:	8d 75 d8             	lea    -0x28(%ebp),%esi
80102e4d:	eb 09                	jmp    80102e58 <dirlink+0x38>
80102e4f:	90                   	nop
80102e50:	83 c7 10             	add    $0x10,%edi
80102e53:	3b 7b 58             	cmp    0x58(%ebx),%edi
80102e56:	73 19                	jae    80102e71 <dirlink+0x51>
		if (readi(dp, (char *)&de, off, sizeof(de)) != sizeof(de)) {
80102e58:	6a 10                	push   $0x10
80102e5a:	57                   	push   %edi
80102e5b:	56                   	push   %esi
80102e5c:	53                   	push   %ebx
80102e5d:	e8 1e fa ff ff       	call   80102880 <readi>
80102e62:	83 c4 10             	add    $0x10,%esp
80102e65:	83 f8 10             	cmp    $0x10,%eax
80102e68:	75 4e                	jne    80102eb8 <dirlink+0x98>
		if (de.inum == 0) {
80102e6a:	66 83 7d d8 00       	cmpw   $0x0,-0x28(%ebp)
80102e6f:	75 df                	jne    80102e50 <dirlink+0x30>
	strncpy(de.name, name, DIRSIZ);
80102e71:	83 ec 04             	sub    $0x4,%esp
80102e74:	8d 45 da             	lea    -0x26(%ebp),%eax
80102e77:	6a 0e                	push   $0xe
80102e79:	ff 75 0c             	push   0xc(%ebp)
80102e7c:	50                   	push   %eax
80102e7d:	e8 3e 29 00 00       	call   801057c0 <strncpy>
	de.inum = inum;
80102e82:	8b 45 10             	mov    0x10(%ebp),%eax
80102e85:	66 89 45 d8          	mov    %ax,-0x28(%ebp)
	if (writei(dp, (char *)&de, off, sizeof(de)) != sizeof(de)) {
80102e89:	6a 10                	push   $0x10
80102e8b:	57                   	push   %edi
80102e8c:	56                   	push   %esi
80102e8d:	53                   	push   %ebx
80102e8e:	e8 1d fb ff ff       	call   801029b0 <writei>
80102e93:	83 c4 20             	add    $0x20,%esp
80102e96:	83 f8 10             	cmp    $0x10,%eax
80102e99:	75 2a                	jne    80102ec5 <dirlink+0xa5>
	return 0;
80102e9b:	31 c0                	xor    %eax,%eax
}
80102e9d:	8d 65 f4             	lea    -0xc(%ebp),%esp
80102ea0:	5b                   	pop    %ebx
80102ea1:	5e                   	pop    %esi
80102ea2:	5f                   	pop    %edi
80102ea3:	5d                   	pop    %ebp
80102ea4:	c3                   	ret
		iput(ip);
80102ea5:	83 ec 0c             	sub    $0xc,%esp
80102ea8:	50                   	push   %eax
80102ea9:	e8 02 f7 ff ff       	call   801025b0 <iput>
		return -1; // Already exists
80102eae:	83 c4 10             	add    $0x10,%esp
80102eb1:	b8 ff ff ff ff       	mov    $0xffffffff,%eax
80102eb6:	eb e5                	jmp    80102e9d <dirlink+0x7d>
			panic("dirlink: read error");
80102eb8:	83 ec 0c             	sub    $0xc,%esp
80102ebb:	68 42 b3 10 80       	push   $0x8010b342
80102ec0:	e8 2b df ff ff       	call   80100df0 <panic>
		panic("dirlink: write error");
80102ec5:	83 ec 0c             	sub    $0xc,%esp
80102ec8:	68 56 b3 10 80       	push   $0x8010b356
80102ecd:	e8 1e df ff ff       	call   80100df0 <panic>
80102ed2:	2e 8d b4 26 00 00 00 	lea    %cs:0x0(%esi,%eiz,1),%esi
80102ed9:	00 
80102eda:	8d b6 00 00 00 00    	lea    0x0(%esi),%esi

80102ee0 <namei>:

// Resolve path to inode
struct inode *namei(char *path) {
80102ee0:	55                   	push   %ebp
	char name[DIRSIZ];
	return namex(path, 0, name);
80102ee1:	31 d2                	xor    %edx,%edx
struct inode *namei(char *path) {
80102ee3:	89 e5                	mov    %esp,%ebp
80102ee5:	83 ec 18             	sub    $0x18,%esp
	return namex(path, 0, name);
80102ee8:	8b 45 08             	mov    0x8(%ebp),%eax
80102eeb:	8d 4d ea             	lea    -0x16(%ebp),%ecx
80102eee:	e8 ed fc ff ff       	call   80102be0 <namex>
}
80102ef3:	c9                   	leave
80102ef4:	c3                   	ret
80102ef5:	2e 8d b4 26 00 00 00 	lea    %cs:0x0(%esi,%eiz,1),%esi
80102efc:	00 
80102efd:	8d 76 00             	lea    0x0(%esi),%esi

80102f00 <nameiparent>:

// Resolve path to parent directory
struct inode *nameiparent(char *path, char *name) {
80102f00:	55                   	push   %ebp
	return namex(path, 1, name);
80102f01:	ba 01 00 00 00       	mov    $0x1,%edx
struct inode *nameiparent(char *path, char *name) {
80102f06:	89 e5                	mov    %esp,%ebp
	return namex(path, 1, name);
80102f08:	8b 4d 0c             	mov    0xc(%ebp),%ecx
80102f0b:	8b 45 08             	mov    0x8(%ebp),%eax
80102f0e:	5d                   	pop    %ebp
	return namex(path, 1, name);
80102f0f:	e9 cc fc ff ff       	jmp    80102be0 <namex>
80102f14:	66 90                	xchg   %ax,%ax
80102f16:	66 90                	xchg   %ax,%ax
80102f18:	66 90                	xchg   %ax,%ax
80102f1a:	66 90                	xchg   %ax,%ax
80102f1c:	66 90                	xchg   %ax,%ax
80102f1e:	66 90                	xchg   %ax,%ax

80102f20 <idestart>:
	}
	outb(0x1f6, 0xe0 | (0 << 4)); // Kembali ke Disk 0
}

// Mulai operasi I/O pada buffer b
static void idestart(struct buf *b) {
80102f20:	55                   	push   %ebp
80102f21:	89 e5                	mov    %esp,%ebp
80102f23:	57                   	push   %edi
80102f24:	56                   	push   %esi
80102f25:	53                   	push   %ebx
80102f26:	83 ec 0c             	sub    $0xc,%esp
	if (b == 0)
80102f29:	85 c0                	test   %eax,%eax
80102f2b:	0f 84 db 00 00 00    	je     8010300c <idestart+0xec>
		panic("idestart: null buf");
	if (b->blockno >= FSSIZE)
80102f31:	8b 78 08             	mov    0x8(%eax),%edi
80102f34:	89 c3                	mov    %eax,%ebx
80102f36:	81 ff ff 63 00 00    	cmp    $0x63ff,%edi
80102f3c:	0f 87 d7 00 00 00    	ja     80103019 <idestart+0xf9>
		panic("idestart: block out of range");

	int sectors = BSIZE / SECTOR_SIZE; // BSIZE 2048 = 4 sektor
	uint sector = b->blockno * sectors;
80102f42:	8d 34 bd 00 00 00 00 	lea    0x0(,%edi,4),%esi
	asm volatile("in %1,%0" : "=a"(data) : "d"(port));
80102f49:	ba f7 01 00 00       	mov    $0x1f7,%edx
80102f4e:	ec                   	in     (%dx),%al
		if (!(r & IDE_BSY) && (r & IDE_DRDY)) {
80102f4f:	83 e0 c0             	and    $0xffffffc0,%eax
80102f52:	3c 40                	cmp    $0x40,%al
80102f54:	74 1b                	je     80102f71 <idestart+0x51>
80102f56:	b9 40 42 0f 00       	mov    $0xf4240,%ecx
80102f5b:	2e 8d 74 26 00       	lea    %cs:0x0(%esi,%eiz,1),%esi
	for (int i = 0; i < 1000000; i++) {
80102f60:	83 e9 01             	sub    $0x1,%ecx
80102f63:	0f 84 8a 00 00 00    	je     80102ff3 <idestart+0xd3>
80102f69:	ec                   	in     (%dx),%al
		if (!(r & IDE_BSY) && (r & IDE_DRDY)) {
80102f6a:	83 e0 c0             	and    $0xffffffc0,%eax
80102f6d:	3c 40                	cmp    $0x40,%al
80102f6f:	75 ef                	jne    80102f60 <idestart+0x40>
	asm volatile("out %0,%1" : : "a"(data), "d"(port));
80102f71:	31 c0                	xor    %eax,%eax
80102f73:	ba f6 03 00 00       	mov    $0x3f6,%edx
80102f78:	ee                   	out    %al,(%dx)
80102f79:	b8 04 00 00 00       	mov    $0x4,%eax
80102f7e:	ba f2 01 00 00       	mov    $0x1f2,%edx
80102f83:	ee                   	out    %al,(%dx)
80102f84:	ba f3 01 00 00       	mov    $0x1f3,%edx
80102f89:	89 f0                	mov    %esi,%eax
80102f8b:	ee                   	out    %al,(%dx)

	// Konfigurasi Control Register
	outb(0x3f6, 0);	      // Aktifkan interupsi
	outb(0x1f2, sectors); // Jumlah sektor per blok
	outb(0x1f3, sector & 0xff);
	outb(0x1f4, (sector >> 8) & 0xff);
80102f8c:	89 f0                	mov    %esi,%eax
80102f8e:	ba f4 01 00 00       	mov    $0x1f4,%edx
80102f93:	c1 e8 08             	shr    $0x8,%eax
80102f96:	ee                   	out    %al,(%dx)
	outb(0x1f5, (sector >> 16) & 0xff);
80102f97:	89 f0                	mov    %esi,%eax
80102f99:	ba f5 01 00 00       	mov    $0x1f5,%edx
80102f9e:	c1 e8 10             	shr    $0x10,%eax
80102fa1:	ee                   	out    %al,(%dx)
	outb(0x1f6, 0xe0 | ((b->dev & 1) << 4) | ((sector >> 24) & 0x0f));
80102fa2:	0f b6 43 04          	movzbl 0x4(%ebx),%eax
80102fa6:	ba f6 01 00 00       	mov    $0x1f6,%edx
80102fab:	c1 e0 04             	shl    $0x4,%eax
80102fae:	83 e0 10             	and    $0x10,%eax
80102fb1:	83 c8 e0             	or     $0xffffffe0,%eax
80102fb4:	ee                   	out    %al,(%dx)

	if (b->flags & B_DIRTY) {
80102fb5:	f6 03 04             	testb  $0x4,(%ebx)
80102fb8:	75 16                	jne    80102fd0 <idestart+0xb0>
80102fba:	b8 c4 ff ff ff       	mov    $0xffffffc4,%eax
80102fbf:	ba f7 01 00 00       	mov    $0x1f7,%edx
80102fc4:	ee                   	out    %al,(%dx)
		outb(0x1f7, (sectors > 1) ? IDE_CMD_WRMUL : IDE_CMD_WRITE);
		outsl(0x1f0, b->data, BSIZE / 4); // Kirim data (PIO)
	} else {
		outb(0x1f7, (sectors > 1) ? IDE_CMD_RDMUL : IDE_CMD_READ);
	}
}
80102fc5:	8d 65 f4             	lea    -0xc(%ebp),%esp
80102fc8:	5b                   	pop    %ebx
80102fc9:	5e                   	pop    %esi
80102fca:	5f                   	pop    %edi
80102fcb:	5d                   	pop    %ebp
80102fcc:	c3                   	ret
80102fcd:	8d 76 00             	lea    0x0(%esi),%esi
80102fd0:	b8 c5 ff ff ff       	mov    $0xffffffc5,%eax
80102fd5:	ba f7 01 00 00       	mov    $0x1f7,%edx
80102fda:	ee                   	out    %al,(%dx)
	asm volatile("cld; rep outsl"
80102fdb:	b9 00 02 00 00       	mov    $0x200,%ecx
		outsl(0x1f0, b->data, BSIZE / 4); // Kirim data (PIO)
80102fe0:	8d 73 5c             	lea    0x5c(%ebx),%esi
80102fe3:	ba f0 01 00 00       	mov    $0x1f0,%edx
80102fe8:	fc                   	cld
80102fe9:	f3 6f                	rep outsl %ds:(%esi),(%dx)
}
80102feb:	8d 65 f4             	lea    -0xc(%ebp),%esp
80102fee:	5b                   	pop    %ebx
80102fef:	5e                   	pop    %esi
80102ff0:	5f                   	pop    %edi
80102ff1:	5d                   	pop    %ebp
80102ff2:	c3                   	ret
		cprintf("ide: disk not ready for block %d\n", b->blockno);
80102ff3:	83 ec 08             	sub    $0x8,%esp
80102ff6:	57                   	push   %edi
80102ff7:	68 48 b9 10 80       	push   $0x8010b948
80102ffc:	e8 1f e1 ff ff       	call   80101120 <cprintf>
		return;
80103001:	83 c4 10             	add    $0x10,%esp
}
80103004:	8d 65 f4             	lea    -0xc(%ebp),%esp
80103007:	5b                   	pop    %ebx
80103008:	5e                   	pop    %esi
80103009:	5f                   	pop    %edi
8010300a:	5d                   	pop    %ebp
8010300b:	c3                   	ret
		panic("idestart: null buf");
8010300c:	83 ec 0c             	sub    $0xc,%esp
8010300f:	68 6b b3 10 80       	push   $0x8010b36b
80103014:	e8 d7 dd ff ff       	call   80100df0 <panic>
		panic("idestart: block out of range");
80103019:	83 ec 0c             	sub    $0xc,%esp
8010301c:	68 7e b3 10 80       	push   $0x8010b37e
80103021:	e8 ca dd ff ff       	call   80100df0 <panic>
80103026:	2e 8d b4 26 00 00 00 	lea    %cs:0x0(%esi,%eiz,1),%esi
8010302d:	00 
8010302e:	66 90                	xchg   %ax,%ax

80103030 <ideinit>:
void ideinit(void) {
80103030:	55                   	push   %ebp
80103031:	89 e5                	mov    %esp,%ebp
80103033:	83 ec 10             	sub    $0x10,%esp
	initlock(&idelock, "ide");
80103036:	68 9b b3 10 80       	push   $0x8010b39b
8010303b:	68 c0 3d 13 80       	push   $0x80133dc0
80103040:	e8 3b 23 00 00       	call   80105380 <initlock>
	ioapicenable(IRQ_IDE, ncpu - 1);
80103045:	58                   	pop    %eax
80103046:	a1 84 3f 13 80       	mov    0x80133f84,%eax
8010304b:	5a                   	pop    %edx
8010304c:	83 e8 01             	sub    $0x1,%eax
8010304f:	50                   	push   %eax
80103050:	6a 0e                	push   $0xe
80103052:	e8 19 03 00 00       	call   80103370 <ioapicenable>
	asm volatile("in %1,%0" : "=a"(data) : "d"(port));
80103057:	ba f7 01 00 00       	mov    $0x1f7,%edx
8010305c:	ec                   	in     (%dx),%al
		if (!(r & IDE_BSY) && (r & IDE_DRDY)) {
8010305d:	83 e0 c0             	and    $0xffffffc0,%eax
80103060:	83 c4 10             	add    $0x10,%esp
80103063:	3c 40                	cmp    $0x40,%al
80103065:	74 16                	je     8010307d <ideinit+0x4d>
80103067:	b9 40 42 0f 00       	mov    $0xf4240,%ecx
8010306c:	8d 74 26 00          	lea    0x0(%esi,%eiz,1),%esi
	for (int i = 0; i < 1000000; i++) {
80103070:	83 e9 01             	sub    $0x1,%ecx
80103073:	74 08                	je     8010307d <ideinit+0x4d>
80103075:	ec                   	in     (%dx),%al
		if (!(r & IDE_BSY) && (r & IDE_DRDY)) {
80103076:	83 e0 c0             	and    $0xffffffc0,%eax
80103079:	3c 40                	cmp    $0x40,%al
8010307b:	75 f3                	jne    80103070 <ideinit+0x40>
	asm volatile("out %0,%1" : : "a"(data), "d"(port));
8010307d:	b8 f0 ff ff ff       	mov    $0xfffffff0,%eax
80103082:	ba f6 01 00 00       	mov    $0x1f6,%edx
80103087:	ee                   	out    %al,(%dx)
	asm volatile("in %1,%0" : "=a"(data) : "d"(port));
80103088:	ba f7 01 00 00       	mov    $0x1f7,%edx
8010308d:	ec                   	in     (%dx),%al
		if (inb(0x1f7) != 0) {
8010308e:	84 c0                	test   %al,%al
80103090:	75 18                	jne    801030aa <ideinit+0x7a>
80103092:	b9 e8 03 00 00       	mov    $0x3e8,%ecx
80103097:	2e 8d b4 26 00 00 00 	lea    %cs:0x0(%esi,%eiz,1),%esi
8010309e:	00 
8010309f:	90                   	nop
	for (int i = 0; i < 1000; i++) {
801030a0:	83 e9 01             	sub    $0x1,%ecx
801030a3:	74 0f                	je     801030b4 <ideinit+0x84>
801030a5:	ec                   	in     (%dx),%al
		if (inb(0x1f7) != 0) {
801030a6:	84 c0                	test   %al,%al
801030a8:	74 f6                	je     801030a0 <ideinit+0x70>
			havedisk1 = 1;
801030aa:	c7 05 a0 3d 13 80 01 	movl   $0x1,0x80133da0
801030b1:	00 00 00 
	asm volatile("out %0,%1" : : "a"(data), "d"(port));
801030b4:	b8 e0 ff ff ff       	mov    $0xffffffe0,%eax
801030b9:	ba f6 01 00 00       	mov    $0x1f6,%edx
801030be:	ee                   	out    %al,(%dx)
}
801030bf:	c9                   	leave
801030c0:	c3                   	ret
801030c1:	2e 8d b4 26 00 00 00 	lea    %cs:0x0(%esi,%eiz,1),%esi
801030c8:	00 
801030c9:	8d b4 26 00 00 00 00 	lea    0x0(%esi,%eiz,1),%esi

801030d0 <ideintr>:

void ideintr(void) {
801030d0:	55                   	push   %ebp
801030d1:	89 e5                	mov    %esp,%ebp
801030d3:	57                   	push   %edi
801030d4:	56                   	push   %esi
801030d5:	53                   	push   %ebx
801030d6:	83 ec 18             	sub    $0x18,%esp
	struct buf *b;

	acquire(&idelock);
801030d9:	68 c0 3d 13 80       	push   $0x80133dc0
801030de:	e8 8d 24 00 00       	call   80105570 <acquire>
	if ((b = idequeue) == 0) {
801030e3:	8b 1d a4 3d 13 80    	mov    0x80133da4,%ebx
801030e9:	83 c4 10             	add    $0x10,%esp
801030ec:	85 db                	test   %ebx,%ebx
801030ee:	74 33                	je     80103123 <ideintr+0x53>
		release(&idelock);
		return;
	}
	idequeue = b->qnext;
801030f0:	8b 43 58             	mov    0x58(%ebx),%eax
801030f3:	a3 a4 3d 13 80       	mov    %eax,0x80133da4

	// Baca data jika ini adalah operasi Read
	if (!(b->flags & B_DIRTY)) {
801030f8:	8b 13                	mov    (%ebx),%edx
		} else {
			cprintf("ide: read error on block %d\n", b->blockno);
			b->flags &= ~B_VALID; // Tandai gagal
		}
	} else {
		b->flags |= B_VALID; // Write selesai
801030fa:	89 d0                	mov    %edx,%eax
801030fc:	83 c8 02             	or     $0x2,%eax
	if (!(b->flags & B_DIRTY)) {
801030ff:	83 e2 04             	and    $0x4,%edx
80103102:	74 3c                	je     80103140 <ideintr+0x70>
	}

	b->flags &= ~B_DIRTY;
80103104:	83 e0 fb             	and    $0xfffffffb,%eax
	wakeup(b); // Bangunkan proses yang menunggu blok ini
80103107:	83 ec 0c             	sub    $0xc,%esp
	b->flags &= ~B_DIRTY;
8010310a:	89 03                	mov    %eax,(%ebx)
	wakeup(b); // Bangunkan proses yang menunggu blok ini
8010310c:	53                   	push   %ebx
8010310d:	e8 7e 1f 00 00       	call   80105090 <wakeup>

	if (idequeue != 0)
80103112:	a1 a4 3d 13 80       	mov    0x80133da4,%eax
80103117:	83 c4 10             	add    $0x10,%esp
8010311a:	85 c0                	test   %eax,%eax
8010311c:	74 05                	je     80103123 <ideintr+0x53>
		idestart(idequeue);
8010311e:	e8 fd fd ff ff       	call   80102f20 <idestart>
		release(&idelock);
80103123:	83 ec 0c             	sub    $0xc,%esp
80103126:	68 c0 3d 13 80       	push   $0x80133dc0
8010312b:	e8 e0 23 00 00       	call   80105510 <release>

	release(&idelock);
}
80103130:	8d 65 f4             	lea    -0xc(%ebp),%esp
80103133:	5b                   	pop    %ebx
80103134:	5e                   	pop    %esi
80103135:	5f                   	pop    %edi
80103136:	5d                   	pop    %ebp
80103137:	c3                   	ret
80103138:	2e 8d b4 26 00 00 00 	lea    %cs:0x0(%esi,%eiz,1),%esi
8010313f:	00 
	asm volatile("in %1,%0" : "=a"(data) : "d"(port));
80103140:	ba f7 01 00 00       	mov    $0x1f7,%edx
80103145:	ec                   	in     (%dx),%al
		if (!(r & IDE_BSY) && (r & IDE_DRDY)) {
80103146:	89 c2                	mov    %eax,%edx
80103148:	83 e2 c0             	and    $0xffffffc0,%edx
8010314b:	80 fa 40             	cmp    $0x40,%dl
8010314e:	74 24                	je     80103174 <ideintr+0xa4>
80103150:	b9 40 42 0f 00       	mov    $0xf4240,%ecx
80103155:	bf f7 01 00 00       	mov    $0x1f7,%edi
8010315a:	8d b6 00 00 00 00    	lea    0x0(%esi),%esi
	for (int i = 0; i < 1000000; i++) {
80103160:	83 e9 01             	sub    $0x1,%ecx
80103163:	74 33                	je     80103198 <ideintr+0xc8>
80103165:	89 fa                	mov    %edi,%edx
80103167:	ec                   	in     (%dx),%al
		if (!(r & IDE_BSY) && (r & IDE_DRDY)) {
80103168:	89 c6                	mov    %eax,%esi
8010316a:	83 e6 c0             	and    $0xffffffc0,%esi
8010316d:	89 f2                	mov    %esi,%edx
8010316f:	80 fa 40             	cmp    $0x40,%dl
80103172:	75 ec                	jne    80103160 <ideintr+0x90>
			if (checkerr && (r & (IDE_DF | IDE_ERR)))
80103174:	a8 21                	test   $0x21,%al
80103176:	75 20                	jne    80103198 <ideintr+0xc8>
			insl(0x1f0, b->data, BSIZE / 4); // Ambil data dari disk
80103178:	8d 7b 5c             	lea    0x5c(%ebx),%edi
	asm volatile("cld; rep insl"
8010317b:	b9 00 02 00 00       	mov    $0x200,%ecx
80103180:	ba f0 01 00 00       	mov    $0x1f0,%edx
80103185:	fc                   	cld
80103186:	f3 6d                	rep insl (%dx),%es:(%edi)
			b->flags |= B_VALID;
80103188:	8b 03                	mov    (%ebx),%eax
8010318a:	83 c8 02             	or     $0x2,%eax
8010318d:	e9 72 ff ff ff       	jmp    80103104 <ideintr+0x34>
80103192:	8d b6 00 00 00 00    	lea    0x0(%esi),%esi
			cprintf("ide: read error on block %d\n", b->blockno);
80103198:	83 ec 08             	sub    $0x8,%esp
8010319b:	ff 73 08             	push   0x8(%ebx)
8010319e:	68 9f b3 10 80       	push   $0x8010b39f
801031a3:	e8 78 df ff ff       	call   80101120 <cprintf>
			b->flags &= ~B_VALID; // Tandai gagal
801031a8:	8b 03                	mov    (%ebx),%eax
801031aa:	83 c4 10             	add    $0x10,%esp
801031ad:	83 e0 fd             	and    $0xfffffffd,%eax
801031b0:	e9 4f ff ff ff       	jmp    80103104 <ideintr+0x34>
801031b5:	2e 8d b4 26 00 00 00 	lea    %cs:0x0(%esi,%eiz,1),%esi
801031bc:	00 
801031bd:	8d 76 00             	lea    0x0(%esi),%esi

801031c0 <iderw>:

void iderw(struct buf *b) {
801031c0:	55                   	push   %ebp
801031c1:	89 e5                	mov    %esp,%ebp
801031c3:	53                   	push   %ebx
801031c4:	83 ec 10             	sub    $0x10,%esp
801031c7:	8b 5d 08             	mov    0x8(%ebp),%ebx
	struct buf **pp;

	if (!holdingsleep(&b->lock))
801031ca:	8d 43 0c             	lea    0xc(%ebx),%eax
801031cd:	50                   	push   %eax
801031ce:	e8 5d 21 00 00       	call   80105330 <holdingsleep>
801031d3:	83 c4 10             	add    $0x10,%esp
801031d6:	85 c0                	test   %eax,%eax
801031d8:	0f 84 ca 00 00 00    	je     801032a8 <iderw+0xe8>
		panic("iderw: buf not locked");
	if ((b->flags & (B_VALID | B_DIRTY)) == B_VALID)
801031de:	8b 03                	mov    (%ebx),%eax
801031e0:	83 e0 06             	and    $0x6,%eax
801031e3:	83 f8 02             	cmp    $0x2,%eax
801031e6:	0f 84 a4 00 00 00    	je     80103290 <iderw+0xd0>
		return;
	if (b->dev != 0 && !havedisk1)
801031ec:	8b 53 04             	mov    0x4(%ebx),%edx
801031ef:	85 d2                	test   %edx,%edx
801031f1:	74 0d                	je     80103200 <iderw+0x40>
801031f3:	a1 a0 3d 13 80       	mov    0x80133da0,%eax
801031f8:	85 c0                	test   %eax,%eax
801031fa:	0f 84 b5 00 00 00    	je     801032b5 <iderw+0xf5>
		panic("iderw: disk 1 missing");

	acquire(&idelock);
80103200:	83 ec 0c             	sub    $0xc,%esp
80103203:	68 c0 3d 13 80       	push   $0x80133dc0
80103208:	e8 63 23 00 00       	call   80105570 <acquire>

	// PENINGKATAN: SSTF (Shortest Seek Time First) Sederhana
	// Menyisipkan buffer ke antrean berdasarkan nomor blok terdekat
	b->qnext = 0;
	for (pp = &idequeue; *pp; pp = &(*pp)->qnext) {
8010320d:	a1 a4 3d 13 80       	mov    0x80133da4,%eax
	b->qnext = 0;
80103212:	c7 43 58 00 00 00 00 	movl   $0x0,0x58(%ebx)
	for (pp = &idequeue; *pp; pp = &(*pp)->qnext) {
80103219:	83 c4 10             	add    $0x10,%esp
8010321c:	85 c0                	test   %eax,%eax
8010321e:	0f 84 7d 00 00 00    	je     801032a1 <iderw+0xe1>
		// Urutkan antrean agar head disk bergerak searah (meminimalkan
		// seek)
		if (b->blockno < (*pp)->blockno)
80103224:	8b 4b 08             	mov    0x8(%ebx),%ecx
	for (pp = &idequeue; *pp; pp = &(*pp)->qnext) {
80103227:	ba a4 3d 13 80       	mov    $0x80133da4,%edx
8010322c:	eb 0c                	jmp    8010323a <iderw+0x7a>
8010322e:	66 90                	xchg   %ax,%ax
80103230:	8d 50 58             	lea    0x58(%eax),%edx
80103233:	8b 40 58             	mov    0x58(%eax),%eax
80103236:	85 c0                	test   %eax,%eax
80103238:	74 05                	je     8010323f <iderw+0x7f>
		if (b->blockno < (*pp)->blockno)
8010323a:	3b 48 08             	cmp    0x8(%eax),%ecx
8010323d:	73 f1                	jae    80103230 <iderw+0x70>
			break;
	}
	b->qnext = *pp;
8010323f:	89 43 58             	mov    %eax,0x58(%ebx)
	*pp = b;
80103242:	89 1a                	mov    %ebx,(%edx)

	if (idequeue == b)
80103244:	39 1d a4 3d 13 80    	cmp    %ebx,0x80133da4
8010324a:	74 4c                	je     80103298 <iderw+0xd8>
		idestart(b);

	// Tunggu sampai interupsi menandakan I/O selesai
	while ((b->flags & (B_VALID | B_DIRTY)) != B_VALID) {
8010324c:	8b 03                	mov    (%ebx),%eax
8010324e:	83 e0 06             	and    $0x6,%eax
80103251:	83 f8 02             	cmp    $0x2,%eax
80103254:	74 25                	je     8010327b <iderw+0xbb>
80103256:	2e 8d b4 26 00 00 00 	lea    %cs:0x0(%esi,%eiz,1),%esi
8010325d:	00 
8010325e:	66 90                	xchg   %ax,%ax
		sleep(b, &idelock);
80103260:	83 ec 08             	sub    $0x8,%esp
80103263:	68 c0 3d 13 80       	push   $0x80133dc0
80103268:	53                   	push   %ebx
80103269:	e8 62 1d 00 00       	call   80104fd0 <sleep>
	while ((b->flags & (B_VALID | B_DIRTY)) != B_VALID) {
8010326e:	8b 03                	mov    (%ebx),%eax
80103270:	83 c4 10             	add    $0x10,%esp
80103273:	83 e0 06             	and    $0x6,%eax
80103276:	83 f8 02             	cmp    $0x2,%eax
80103279:	75 e5                	jne    80103260 <iderw+0xa0>
	}

	release(&idelock);
8010327b:	c7 45 08 c0 3d 13 80 	movl   $0x80133dc0,0x8(%ebp)
80103282:	8b 5d fc             	mov    -0x4(%ebp),%ebx
80103285:	c9                   	leave
	release(&idelock);
80103286:	e9 85 22 00 00       	jmp    80105510 <release>
8010328b:	2e 8d 74 26 00       	lea    %cs:0x0(%esi,%eiz,1),%esi
80103290:	8b 5d fc             	mov    -0x4(%ebp),%ebx
80103293:	c9                   	leave
80103294:	c3                   	ret
80103295:	8d 76 00             	lea    0x0(%esi),%esi
		idestart(b);
80103298:	89 d8                	mov    %ebx,%eax
8010329a:	e8 81 fc ff ff       	call   80102f20 <idestart>
8010329f:	eb ab                	jmp    8010324c <iderw+0x8c>
	for (pp = &idequeue; *pp; pp = &(*pp)->qnext) {
801032a1:	ba a4 3d 13 80       	mov    $0x80133da4,%edx
801032a6:	eb 97                	jmp    8010323f <iderw+0x7f>
		panic("iderw: buf not locked");
801032a8:	83 ec 0c             	sub    $0xc,%esp
801032ab:	68 bc b3 10 80       	push   $0x8010b3bc
801032b0:	e8 3b db ff ff       	call   80100df0 <panic>
		panic("iderw: disk 1 missing");
801032b5:	83 ec 0c             	sub    $0xc,%esp
801032b8:	68 d2 b3 10 80       	push   $0x8010b3d2
801032bd:	e8 2e db ff ff       	call   80100df0 <panic>
801032c2:	66 90                	xchg   %ax,%ax
801032c4:	66 90                	xchg   %ax,%ax
801032c6:	66 90                	xchg   %ax,%ax
801032c8:	66 90                	xchg   %ax,%ax
801032ca:	66 90                	xchg   %ax,%ax
801032cc:	66 90                	xchg   %ax,%ax
801032ce:	66 90                	xchg   %ax,%ax

801032d0 <ioapicinit>:
static void ioapicwrite(int reg, uint data) {
	ioapic->reg = reg;
	ioapic->data = data;
}

void ioapicinit(void) {
801032d0:	55                   	push   %ebp
801032d1:	89 e5                	mov    %esp,%ebp
801032d3:	56                   	push   %esi
801032d4:	53                   	push   %ebx
	int i, id, maxintr;

	ioapic = (volatile struct ioapic *)IOAPIC;
801032d5:	c7 05 f4 3d 13 80 00 	movl   $0xfec00000,0x80133df4
801032dc:	00 c0 fe 
	ioapic->reg = reg;
801032df:	c7 05 00 00 c0 fe 01 	movl   $0x1,0xfec00000
801032e6:	00 00 00 
	return ioapic->data;
801032e9:	8b 15 f4 3d 13 80    	mov    0x80133df4,%edx
801032ef:	8b 72 10             	mov    0x10(%edx),%esi
	ioapic->reg = reg;
801032f2:	c7 02 00 00 00 00    	movl   $0x0,(%edx)
	return ioapic->data;
801032f8:	8b 1d f4 3d 13 80    	mov    0x80133df4,%ebx
	maxintr = (ioapicread(REG_VER) >> 16) & 0xFF;
	id = ioapicread(REG_ID) >> 24;
	if (id != ioapicid)
801032fe:	0f b6 15 80 3f 13 80 	movzbl 0x80133f80,%edx
	maxintr = (ioapicread(REG_VER) >> 16) & 0xFF;
80103305:	c1 ee 10             	shr    $0x10,%esi
80103308:	89 f0                	mov    %esi,%eax
8010330a:	0f b6 f0             	movzbl %al,%esi
	return ioapic->data;
8010330d:	8b 43 10             	mov    0x10(%ebx),%eax
	id = ioapicread(REG_ID) >> 24;
80103310:	c1 e8 18             	shr    $0x18,%eax
	if (id != ioapicid)
80103313:	39 c2                	cmp    %eax,%edx
80103315:	74 16                	je     8010332d <ioapicinit+0x5d>
		cprintf("ioapicinit: id isn't equal to ioapicid; not a MP\n");
80103317:	83 ec 0c             	sub    $0xc,%esp
8010331a:	68 6c b9 10 80       	push   $0x8010b96c
8010331f:	e8 fc dd ff ff       	call   80101120 <cprintf>
	ioapic->reg = reg;
80103324:	8b 1d f4 3d 13 80    	mov    0x80133df4,%ebx
8010332a:	83 c4 10             	add    $0x10,%esp
void ioapicinit(void) {
8010332d:	ba 10 00 00 00       	mov    $0x10,%edx
80103332:	31 c0                	xor    %eax,%eax
80103334:	8d 74 26 00          	lea    0x0(%esi,%eiz,1),%esi
	ioapic->reg = reg;
80103338:	89 13                	mov    %edx,(%ebx)
8010333a:	8d 48 20             	lea    0x20(%eax),%ecx
	ioapic->data = data;
8010333d:	8b 1d f4 3d 13 80    	mov    0x80133df4,%ebx

	// Mark all interrupts edge-triggered, active high, disabled,
	// and not routed to any CPUs.
	for (i = 0; i <= maxintr; i++) {
80103343:	83 c0 01             	add    $0x1,%eax
80103346:	81 c9 00 00 01 00    	or     $0x10000,%ecx
	ioapic->data = data;
8010334c:	89 4b 10             	mov    %ecx,0x10(%ebx)
	ioapic->reg = reg;
8010334f:	8d 4a 01             	lea    0x1(%edx),%ecx
	for (i = 0; i <= maxintr; i++) {
80103352:	83 c2 02             	add    $0x2,%edx
	ioapic->reg = reg;
80103355:	89 0b                	mov    %ecx,(%ebx)
	ioapic->data = data;
80103357:	8b 1d f4 3d 13 80    	mov    0x80133df4,%ebx
8010335d:	c7 43 10 00 00 00 00 	movl   $0x0,0x10(%ebx)
	for (i = 0; i <= maxintr; i++) {
80103364:	39 c6                	cmp    %eax,%esi
80103366:	7d d0                	jge    80103338 <ioapicinit+0x68>
		ioapicwrite(REG_TABLE + 2 * i, INT_DISABLED | (T_IRQ0 + i));
		ioapicwrite(REG_TABLE + 2 * i + 1, 0);
	}
}
80103368:	8d 65 f8             	lea    -0x8(%ebp),%esp
8010336b:	5b                   	pop    %ebx
8010336c:	5e                   	pop    %esi
8010336d:	5d                   	pop    %ebp
8010336e:	c3                   	ret
8010336f:	90                   	nop

80103370 <ioapicenable>:

void ioapicenable(int irq, int cpunum) {
80103370:	55                   	push   %ebp
	ioapic->reg = reg;
80103371:	8b 0d f4 3d 13 80    	mov    0x80133df4,%ecx
void ioapicenable(int irq, int cpunum) {
80103377:	89 e5                	mov    %esp,%ebp
80103379:	8b 45 08             	mov    0x8(%ebp),%eax
	// Mark interrupt edge-triggered, active high,
	// enabled, and routed to the given cpunum,
	// which happens to be that cpu's APIC ID.
	ioapicwrite(REG_TABLE + 2 * irq, T_IRQ0 + irq);
8010337c:	8d 50 20             	lea    0x20(%eax),%edx
8010337f:	8d 44 00 10          	lea    0x10(%eax,%eax,1),%eax
	ioapic->reg = reg;
80103383:	89 01                	mov    %eax,(%ecx)
	ioapic->data = data;
80103385:	8b 0d f4 3d 13 80    	mov    0x80133df4,%ecx
	ioapicwrite(REG_TABLE + 2 * irq + 1, cpunum << 24);
8010338b:	83 c0 01             	add    $0x1,%eax
	ioapic->data = data;
8010338e:	89 51 10             	mov    %edx,0x10(%ecx)
	ioapicwrite(REG_TABLE + 2 * irq + 1, cpunum << 24);
80103391:	8b 55 0c             	mov    0xc(%ebp),%edx
	ioapic->reg = reg;
80103394:	89 01                	mov    %eax,(%ecx)
	ioapic->data = data;
80103396:	a1 f4 3d 13 80       	mov    0x80133df4,%eax
	ioapicwrite(REG_TABLE + 2 * irq + 1, cpunum << 24);
8010339b:	c1 e2 18             	shl    $0x18,%edx
	ioapic->data = data;
8010339e:	89 50 10             	mov    %edx,0x10(%eax)
}
801033a1:	5d                   	pop    %ebp
801033a2:	c3                   	ret
801033a3:	66 90                	xchg   %ax,%ax
801033a5:	66 90                	xchg   %ax,%ax
801033a7:	66 90                	xchg   %ax,%ax
801033a9:	66 90                	xchg   %ax,%ax
801033ab:	66 90                	xchg   %ax,%ax
801033ad:	66 90                	xchg   %ax,%ax
801033af:	90                   	nop

801033b0 <kfree>:
// PAGEBREAK: 21
// Free the page of physical memory pointed at by v,
// which normally should have been returned by a
// call to kalloc().  (The exception is when
// initializing the allocator; see kinit above.)
void kfree(char *v) {
801033b0:	55                   	push   %ebp
801033b1:	89 e5                	mov    %esp,%ebp
801033b3:	53                   	push   %ebx
801033b4:	83 ec 04             	sub    $0x4,%esp
801033b7:	8b 5d 08             	mov    0x8(%ebp),%ebx
	struct run *r;

	if ((uint)v % PGSIZE || v < end || V2P(v) >= PHYSTOP)
801033ba:	f7 c3 ff 0f 00 00    	test   $0xfff,%ebx
801033c0:	75 76                	jne    80103438 <kfree+0x88>
801033c2:	81 fb 20 79 15 80    	cmp    $0x80157920,%ebx
801033c8:	72 6e                	jb     80103438 <kfree+0x88>
801033ca:	8d 83 00 00 00 80    	lea    -0x80000000(%ebx),%eax
801033d0:	3d ff ff ff 07       	cmp    $0x7ffffff,%eax
801033d5:	77 61                	ja     80103438 <kfree+0x88>
		panic("kfree");

	// Fill with junk to catch dangling refs.
	memset(v, 1, PGSIZE);
801033d7:	83 ec 04             	sub    $0x4,%esp
801033da:	68 00 10 00 00       	push   $0x1000
801033df:	6a 01                	push   $0x1
801033e1:	53                   	push   %ebx
801033e2:	e8 89 22 00 00       	call   80105670 <memset>

	if (kmem.use_lock)
801033e7:	8b 15 34 3e 13 80    	mov    0x80133e34,%edx
801033ed:	83 c4 10             	add    $0x10,%esp
801033f0:	85 d2                	test   %edx,%edx
801033f2:	75 1c                	jne    80103410 <kfree+0x60>
		acquire(&kmem.lock);
	r = (struct run *)v;
	r->next = kmem.freelist;
801033f4:	a1 38 3e 13 80       	mov    0x80133e38,%eax
801033f9:	89 03                	mov    %eax,(%ebx)
	kmem.freelist = r;
	if (kmem.use_lock)
801033fb:	a1 34 3e 13 80       	mov    0x80133e34,%eax
	kmem.freelist = r;
80103400:	89 1d 38 3e 13 80    	mov    %ebx,0x80133e38
	if (kmem.use_lock)
80103406:	85 c0                	test   %eax,%eax
80103408:	75 1e                	jne    80103428 <kfree+0x78>
		release(&kmem.lock);
}
8010340a:	8b 5d fc             	mov    -0x4(%ebp),%ebx
8010340d:	c9                   	leave
8010340e:	c3                   	ret
8010340f:	90                   	nop
		acquire(&kmem.lock);
80103410:	83 ec 0c             	sub    $0xc,%esp
80103413:	68 00 3e 13 80       	push   $0x80133e00
80103418:	e8 53 21 00 00       	call   80105570 <acquire>
8010341d:	83 c4 10             	add    $0x10,%esp
80103420:	eb d2                	jmp    801033f4 <kfree+0x44>
80103422:	8d b6 00 00 00 00    	lea    0x0(%esi),%esi
		release(&kmem.lock);
80103428:	c7 45 08 00 3e 13 80 	movl   $0x80133e00,0x8(%ebp)
}
8010342f:	8b 5d fc             	mov    -0x4(%ebp),%ebx
80103432:	c9                   	leave
		release(&kmem.lock);
80103433:	e9 d8 20 00 00       	jmp    80105510 <release>
		panic("kfree");
80103438:	83 ec 0c             	sub    $0xc,%esp
8010343b:	68 e8 b3 10 80       	push   $0x8010b3e8
80103440:	e8 ab d9 ff ff       	call   80100df0 <panic>
80103445:	2e 8d b4 26 00 00 00 	lea    %cs:0x0(%esi,%eiz,1),%esi
8010344c:	00 
8010344d:	8d 76 00             	lea    0x0(%esi),%esi

80103450 <freerange>:
void freerange(void *vstart, void *vend) {
80103450:	55                   	push   %ebp
80103451:	89 e5                	mov    %esp,%ebp
80103453:	56                   	push   %esi
80103454:	53                   	push   %ebx
	p = (char *)PGROUNDUP((uint)vstart);
80103455:	8b 45 08             	mov    0x8(%ebp),%eax
void freerange(void *vstart, void *vend) {
80103458:	8b 75 0c             	mov    0xc(%ebp),%esi
	p = (char *)PGROUNDUP((uint)vstart);
8010345b:	8d 98 ff 0f 00 00    	lea    0xfff(%eax),%ebx
80103461:	81 e3 00 f0 ff ff    	and    $0xfffff000,%ebx
	for (; p + PGSIZE <= (char *)vend; p += PGSIZE)
80103467:	81 c3 00 10 00 00    	add    $0x1000,%ebx
8010346d:	39 de                	cmp    %ebx,%esi
8010346f:	72 23                	jb     80103494 <freerange+0x44>
80103471:	8d b4 26 00 00 00 00 	lea    0x0(%esi,%eiz,1),%esi
		kfree(p);
80103478:	83 ec 0c             	sub    $0xc,%esp
8010347b:	8d 83 00 f0 ff ff    	lea    -0x1000(%ebx),%eax
	for (; p + PGSIZE <= (char *)vend; p += PGSIZE)
80103481:	81 c3 00 10 00 00    	add    $0x1000,%ebx
		kfree(p);
80103487:	50                   	push   %eax
80103488:	e8 23 ff ff ff       	call   801033b0 <kfree>
	for (; p + PGSIZE <= (char *)vend; p += PGSIZE)
8010348d:	83 c4 10             	add    $0x10,%esp
80103490:	39 de                	cmp    %ebx,%esi
80103492:	73 e4                	jae    80103478 <freerange+0x28>
}
80103494:	8d 65 f8             	lea    -0x8(%ebp),%esp
80103497:	5b                   	pop    %ebx
80103498:	5e                   	pop    %esi
80103499:	5d                   	pop    %ebp
8010349a:	c3                   	ret
8010349b:	2e 8d 74 26 00       	lea    %cs:0x0(%esi,%eiz,1),%esi

801034a0 <kinit2>:
void kinit2(void *vstart, void *vend) {
801034a0:	55                   	push   %ebp
801034a1:	89 e5                	mov    %esp,%ebp
801034a3:	56                   	push   %esi
801034a4:	53                   	push   %ebx
	p = (char *)PGROUNDUP((uint)vstart);
801034a5:	8b 45 08             	mov    0x8(%ebp),%eax
void kinit2(void *vstart, void *vend) {
801034a8:	8b 75 0c             	mov    0xc(%ebp),%esi
	p = (char *)PGROUNDUP((uint)vstart);
801034ab:	8d 98 ff 0f 00 00    	lea    0xfff(%eax),%ebx
801034b1:	81 e3 00 f0 ff ff    	and    $0xfffff000,%ebx
	for (; p + PGSIZE <= (char *)vend; p += PGSIZE)
801034b7:	81 c3 00 10 00 00    	add    $0x1000,%ebx
801034bd:	39 de                	cmp    %ebx,%esi
801034bf:	72 23                	jb     801034e4 <kinit2+0x44>
801034c1:	8d b4 26 00 00 00 00 	lea    0x0(%esi,%eiz,1),%esi
		kfree(p);
801034c8:	83 ec 0c             	sub    $0xc,%esp
801034cb:	8d 83 00 f0 ff ff    	lea    -0x1000(%ebx),%eax
	for (; p + PGSIZE <= (char *)vend; p += PGSIZE)
801034d1:	81 c3 00 10 00 00    	add    $0x1000,%ebx
		kfree(p);
801034d7:	50                   	push   %eax
801034d8:	e8 d3 fe ff ff       	call   801033b0 <kfree>
	for (; p + PGSIZE <= (char *)vend; p += PGSIZE)
801034dd:	83 c4 10             	add    $0x10,%esp
801034e0:	39 de                	cmp    %ebx,%esi
801034e2:	73 e4                	jae    801034c8 <kinit2+0x28>
	kmem.use_lock = 1;
801034e4:	c7 05 34 3e 13 80 01 	movl   $0x1,0x80133e34
801034eb:	00 00 00 
}
801034ee:	8d 65 f8             	lea    -0x8(%ebp),%esp
801034f1:	5b                   	pop    %ebx
801034f2:	5e                   	pop    %esi
801034f3:	5d                   	pop    %ebp
801034f4:	c3                   	ret
801034f5:	2e 8d b4 26 00 00 00 	lea    %cs:0x0(%esi,%eiz,1),%esi
801034fc:	00 
801034fd:	8d 76 00             	lea    0x0(%esi),%esi

80103500 <kinit1>:
void kinit1(void *vstart, void *vend) {
80103500:	55                   	push   %ebp
80103501:	89 e5                	mov    %esp,%ebp
80103503:	56                   	push   %esi
80103504:	53                   	push   %ebx
80103505:	8b 75 0c             	mov    0xc(%ebp),%esi
	initlock(&kmem.lock, "kmem");
80103508:	83 ec 08             	sub    $0x8,%esp
8010350b:	68 ee b3 10 80       	push   $0x8010b3ee
80103510:	68 00 3e 13 80       	push   $0x80133e00
80103515:	e8 66 1e 00 00       	call   80105380 <initlock>
	p = (char *)PGROUNDUP((uint)vstart);
8010351a:	8b 45 08             	mov    0x8(%ebp),%eax
	for (; p + PGSIZE <= (char *)vend; p += PGSIZE)
8010351d:	83 c4 10             	add    $0x10,%esp
	kmem.use_lock = 0;
80103520:	c7 05 34 3e 13 80 00 	movl   $0x0,0x80133e34
80103527:	00 00 00 
	p = (char *)PGROUNDUP((uint)vstart);
8010352a:	8d 98 ff 0f 00 00    	lea    0xfff(%eax),%ebx
80103530:	81 e3 00 f0 ff ff    	and    $0xfffff000,%ebx
	for (; p + PGSIZE <= (char *)vend; p += PGSIZE)
80103536:	81 c3 00 10 00 00    	add    $0x1000,%ebx
8010353c:	39 de                	cmp    %ebx,%esi
8010353e:	72 1c                	jb     8010355c <kinit1+0x5c>
		kfree(p);
80103540:	83 ec 0c             	sub    $0xc,%esp
80103543:	8d 83 00 f0 ff ff    	lea    -0x1000(%ebx),%eax
	for (; p + PGSIZE <= (char *)vend; p += PGSIZE)
80103549:	81 c3 00 10 00 00    	add    $0x1000,%ebx
		kfree(p);
8010354f:	50                   	push   %eax
80103550:	e8 5b fe ff ff       	call   801033b0 <kfree>
	for (; p + PGSIZE <= (char *)vend; p += PGSIZE)
80103555:	83 c4 10             	add    $0x10,%esp
80103558:	39 de                	cmp    %ebx,%esi
8010355a:	73 e4                	jae    80103540 <kinit1+0x40>
}
8010355c:	8d 65 f8             	lea    -0x8(%ebp),%esp
8010355f:	5b                   	pop    %ebx
80103560:	5e                   	pop    %esi
80103561:	5d                   	pop    %ebp
80103562:	c3                   	ret
80103563:	2e 8d b4 26 00 00 00 	lea    %cs:0x0(%esi,%eiz,1),%esi
8010356a:	00 
8010356b:	2e 8d 74 26 00       	lea    %cs:0x0(%esi,%eiz,1),%esi

80103570 <kalloc>:

// Allocate one 4096-byte page of physical memory.
// Returns a pointer that the kernel can use.
// Returns 0 if the memory cannot be allocated.
char *kalloc(void) {
80103570:	55                   	push   %ebp
80103571:	89 e5                	mov    %esp,%ebp
80103573:	53                   	push   %ebx
80103574:	83 ec 04             	sub    $0x4,%esp
	struct run *r;

	if (kmem.use_lock)
80103577:	a1 34 3e 13 80       	mov    0x80133e34,%eax
8010357c:	85 c0                	test   %eax,%eax
8010357e:	75 20                	jne    801035a0 <kalloc+0x30>
		acquire(&kmem.lock);
	r = kmem.freelist;
80103580:	8b 1d 38 3e 13 80    	mov    0x80133e38,%ebx
	if (r)
80103586:	85 db                	test   %ebx,%ebx
80103588:	74 07                	je     80103591 <kalloc+0x21>
		kmem.freelist = r->next;
8010358a:	8b 03                	mov    (%ebx),%eax
8010358c:	a3 38 3e 13 80       	mov    %eax,0x80133e38
	if (kmem.use_lock)
		release(&kmem.lock);
	return (char *)r;
}
80103591:	89 d8                	mov    %ebx,%eax
80103593:	8b 5d fc             	mov    -0x4(%ebp),%ebx
80103596:	c9                   	leave
80103597:	c3                   	ret
80103598:	2e 8d b4 26 00 00 00 	lea    %cs:0x0(%esi,%eiz,1),%esi
8010359f:	00 
		acquire(&kmem.lock);
801035a0:	83 ec 0c             	sub    $0xc,%esp
801035a3:	68 00 3e 13 80       	push   $0x80133e00
801035a8:	e8 c3 1f 00 00       	call   80105570 <acquire>
	r = kmem.freelist;
801035ad:	8b 1d 38 3e 13 80    	mov    0x80133e38,%ebx
	if (kmem.use_lock)
801035b3:	a1 34 3e 13 80       	mov    0x80133e34,%eax
	if (r)
801035b8:	83 c4 10             	add    $0x10,%esp
801035bb:	85 db                	test   %ebx,%ebx
801035bd:	74 08                	je     801035c7 <kalloc+0x57>
		kmem.freelist = r->next;
801035bf:	8b 13                	mov    (%ebx),%edx
801035c1:	89 15 38 3e 13 80    	mov    %edx,0x80133e38
	if (kmem.use_lock)
801035c7:	85 c0                	test   %eax,%eax
801035c9:	74 c6                	je     80103591 <kalloc+0x21>
		release(&kmem.lock);
801035cb:	83 ec 0c             	sub    $0xc,%esp
801035ce:	68 00 3e 13 80       	push   $0x80133e00
801035d3:	e8 38 1f 00 00       	call   80105510 <release>
}
801035d8:	89 d8                	mov    %ebx,%eax
		release(&kmem.lock);
801035da:	83 c4 10             	add    $0x10,%esp
}
801035dd:	8b 5d fc             	mov    -0x4(%ebp),%ebx
801035e0:	c9                   	leave
801035e1:	c3                   	ret
801035e2:	66 90                	xchg   %ax,%ax
801035e4:	66 90                	xchg   %ax,%ax
801035e6:	66 90                	xchg   %ax,%ax
801035e8:	66 90                	xchg   %ax,%ax
801035ea:	66 90                	xchg   %ax,%ax
801035ec:	66 90                	xchg   %ax,%ax
801035ee:	66 90                	xchg   %ax,%ax

801035f0 <kbdgetc>:
	asm volatile("in %1,%0" : "=a"(data) : "d"(port));
801035f0:	ba 64 00 00 00       	mov    $0x64,%edx
801035f5:	ec                   	in     (%dx),%al
	static uint shift;
	static uchar *charcode[4] = {normalmap, shiftmap, ctlmap, ctlmap};
	uint st, data, c;

	st = inb(KBSTATP);
	if ((st & KBS_DIB) == 0)
801035f6:	a8 01                	test   $0x1,%al
801035f8:	0f 84 12 01 00 00    	je     80103710 <kbdgetc+0x120>
int kbdgetc(void) {
801035fe:	55                   	push   %ebp
801035ff:	ba 60 00 00 00       	mov    $0x60,%edx
80103604:	89 e5                	mov    %esp,%ebp
80103606:	53                   	push   %ebx
80103607:	83 ec 34             	sub    $0x34,%esp
8010360a:	ec                   	in     (%dx),%al
	data = inb(KBDATAP);

	message msg;

	if (data == 0xE0) {
		shift |= E0ESC;
8010360b:	8b 15 40 3e 13 80    	mov    0x80133e40,%edx
	data = inb(KBDATAP);
80103611:	0f b6 d8             	movzbl %al,%ebx
	if (data == 0xE0) {
80103614:	3c e0                	cmp    $0xe0,%al
80103616:	0f 84 84 00 00 00    	je     801036a0 <kbdgetc+0xb0>
		return 0;
	} else if (data & 0x80) {
		// Key released
		data = (shift & E0ESC ? data : data & 0x7F);
8010361c:	89 d1                	mov    %edx,%ecx
8010361e:	83 e1 40             	and    $0x40,%ecx
	} else if (data & 0x80) {
80103621:	84 c0                	test   %al,%al
80103623:	0f 88 87 00 00 00    	js     801036b0 <kbdgetc+0xc0>
		msg.msg_type = M_KEY_UP;
		msg.params[0] = c;
		msg.params[1] = shift;
		handleMessage(&msg);
		return 0;
	} else if (shift & E0ESC) {
80103629:	85 c9                	test   %ecx,%ecx
8010362b:	74 09                	je     80103636 <kbdgetc+0x46>
		// Last character was an E0 escape; or with 0x80
		data |= 0x80;
8010362d:	83 c8 80             	or     $0xffffff80,%eax
		shift &= ~E0ESC;
80103630:	83 e2 bf             	and    $0xffffffbf,%edx
		data |= 0x80;
80103633:	0f b6 d8             	movzbl %al,%ebx
	}

	shift |= shiftcode[data];
80103636:	0f b6 83 60 bc 10 80 	movzbl -0x7fef43a0(%ebx),%eax
	shift ^= togglecode[data];
	msg.msg_type = M_KEY_DOWN;
	msg.params[0] = normalmap[data];
	msg.params[1] = shift;
	handleMessage(&msg);
8010363d:	83 ec 0c             	sub    $0xc,%esp
	msg.msg_type = M_KEY_DOWN;
80103640:	c7 45 cc 02 00 00 00 	movl   $0x2,-0x34(%ebp)
	shift |= shiftcode[data];
80103647:	09 d0                	or     %edx,%eax
	shift ^= togglecode[data];
80103649:	0f b6 93 60 bb 10 80 	movzbl -0x7fef44a0(%ebx),%edx
80103650:	31 d0                	xor    %edx,%eax
	msg.params[0] = normalmap[data];
80103652:	0f b6 93 e0 08 11 80 	movzbl -0x7feef720(%ebx),%edx
	shift ^= togglecode[data];
80103659:	a3 40 3e 13 80       	mov    %eax,0x80133e40
	msg.params[1] = shift;
8010365e:	89 45 d4             	mov    %eax,-0x2c(%ebp)
	handleMessage(&msg);
80103661:	8d 45 cc             	lea    -0x34(%ebp),%eax
80103664:	50                   	push   %eax
	msg.params[0] = normalmap[data];
80103665:	89 55 d0             	mov    %edx,-0x30(%ebp)
	handleMessage(&msg);
80103668:	e8 f3 54 00 00       	call   80108b60 <handleMessage>

	c = charcode[shift & (CTL | SHIFT)][data];
8010366d:	8b 15 40 3e 13 80    	mov    0x80133e40,%edx
	if (shift & CAPSLOCK) {
80103673:	83 c4 10             	add    $0x10,%esp
	c = charcode[shift & (CTL | SHIFT)][data];
80103676:	89 d0                	mov    %edx,%eax
80103678:	83 e0 03             	and    $0x3,%eax
	if (shift & CAPSLOCK) {
8010367b:	83 e2 08             	and    $0x8,%edx
	c = charcode[shift & (CTL | SHIFT)][data];
8010367e:	8b 04 85 40 bb 10 80 	mov    -0x7fef44c0(,%eax,4),%eax
80103685:	0f b6 04 18          	movzbl (%eax,%ebx,1),%eax
	if (shift & CAPSLOCK) {
80103689:	74 0b                	je     80103696 <kbdgetc+0xa6>
		if ('a' <= c && c <= 'z')
8010368b:	8d 50 9f             	lea    -0x61(%eax),%edx
8010368e:	83 fa 19             	cmp    $0x19,%edx
80103691:	77 65                	ja     801036f8 <kbdgetc+0x108>
			c += 'A' - 'a';
80103693:	83 e8 20             	sub    $0x20,%eax
		else if ('A' <= c && c <= 'Z')
			c += 'a' - 'A';
	}

	return c;
}
80103696:	8b 5d fc             	mov    -0x4(%ebp),%ebx
80103699:	c9                   	leave
8010369a:	c3                   	ret
8010369b:	2e 8d 74 26 00       	lea    %cs:0x0(%esi,%eiz,1),%esi
		shift |= E0ESC;
801036a0:	83 ca 40             	or     $0x40,%edx
		return 0;
801036a3:	31 c0                	xor    %eax,%eax
		shift |= E0ESC;
801036a5:	89 15 40 3e 13 80    	mov    %edx,0x80133e40
}
801036ab:	8b 5d fc             	mov    -0x4(%ebp),%ebx
801036ae:	c9                   	leave
801036af:	c3                   	ret
		data = (shift & E0ESC ? data : data & 0x7F);
801036b0:	83 e0 7f             	and    $0x7f,%eax
801036b3:	85 c9                	test   %ecx,%ecx
		msg.msg_type = M_KEY_UP;
801036b5:	c7 45 cc 01 00 00 00 	movl   $0x1,-0x34(%ebp)
		data = (shift & E0ESC ? data : data & 0x7F);
801036bc:	0f 44 d8             	cmove  %eax,%ebx
		handleMessage(&msg);
801036bf:	83 ec 0c             	sub    $0xc,%esp
		shift &= ~(shiftcode[data] | E0ESC);
801036c2:	0f b6 83 60 bc 10 80 	movzbl -0x7fef43a0(%ebx),%eax
801036c9:	83 c8 40             	or     $0x40,%eax
801036cc:	0f b6 c0             	movzbl %al,%eax
801036cf:	f7 d0                	not    %eax
801036d1:	21 d0                	and    %edx,%eax
		msg.params[0] = c;
801036d3:	0f b6 93 e0 08 11 80 	movzbl -0x7feef720(%ebx),%edx
		shift &= ~(shiftcode[data] | E0ESC);
801036da:	a3 40 3e 13 80       	mov    %eax,0x80133e40
		msg.params[1] = shift;
801036df:	89 45 d4             	mov    %eax,-0x2c(%ebp)
		handleMessage(&msg);
801036e2:	8d 45 cc             	lea    -0x34(%ebp),%eax
801036e5:	50                   	push   %eax
		msg.params[0] = c;
801036e6:	89 55 d0             	mov    %edx,-0x30(%ebp)
		handleMessage(&msg);
801036e9:	e8 72 54 00 00       	call   80108b60 <handleMessage>
		return 0;
801036ee:	83 c4 10             	add    $0x10,%esp
		return 0;
801036f1:	31 c0                	xor    %eax,%eax
801036f3:	eb b6                	jmp    801036ab <kbdgetc+0xbb>
801036f5:	8d 76 00             	lea    0x0(%esi),%esi
		else if ('A' <= c && c <= 'Z')
801036f8:	8d 48 bf             	lea    -0x41(%eax),%ecx
			c += 'a' - 'A';
801036fb:	8d 50 20             	lea    0x20(%eax),%edx
}
801036fe:	8b 5d fc             	mov    -0x4(%ebp),%ebx
80103701:	c9                   	leave
			c += 'a' - 'A';
80103702:	83 f9 1a             	cmp    $0x1a,%ecx
80103705:	0f 42 c2             	cmovb  %edx,%eax
}
80103708:	c3                   	ret
80103709:	8d b4 26 00 00 00 00 	lea    0x0(%esi,%eiz,1),%esi
		return -1;
80103710:	b8 ff ff ff ff       	mov    $0xffffffff,%eax
}
80103715:	c3                   	ret
80103716:	2e 8d b4 26 00 00 00 	lea    %cs:0x0(%esi,%eiz,1),%esi
8010371d:	00 
8010371e:	66 90                	xchg   %ax,%ax

80103720 <kbdintr>:

void kbdintr(void) {
80103720:	55                   	push   %ebp
80103721:	89 e5                	mov    %esp,%ebp
80103723:	83 ec 14             	sub    $0x14,%esp
	//  consoleintr(kbdgetc);
	acquire(&kbdlock);
80103726:	68 60 3e 13 80       	push   $0x80133e60
8010372b:	e8 40 1e 00 00       	call   80105570 <acquire>
	kbdgetc();
80103730:	e8 bb fe ff ff       	call   801035f0 <kbdgetc>
	release(&kbdlock);
80103735:	c7 04 24 60 3e 13 80 	movl   $0x80133e60,(%esp)
8010373c:	e8 cf 1d 00 00       	call   80105510 <release>
}
80103741:	83 c4 10             	add    $0x10,%esp
80103744:	c9                   	leave
80103745:	c3                   	ret
80103746:	66 90                	xchg   %ax,%ax
80103748:	66 90                	xchg   %ax,%ax
8010374a:	66 90                	xchg   %ax,%ax
8010374c:	66 90                	xchg   %ax,%ax
8010374e:	66 90                	xchg   %ax,%ax

80103750 <lapicinit>:
	lapic[index] = value;
	lapic[ID]; // wait for write to finish, by reading
}

void lapicinit(void) {
	if (!lapic)
80103750:	a1 94 3e 13 80       	mov    0x80133e94,%eax
80103755:	85 c0                	test   %eax,%eax
80103757:	0f 84 c3 00 00 00    	je     80103820 <lapicinit+0xd0>
	lapic[index] = value;
8010375d:	c7 80 f0 00 00 00 3f 	movl   $0x13f,0xf0(%eax)
80103764:	01 00 00 
	lapic[ID]; // wait for write to finish, by reading
80103767:	8b 50 20             	mov    0x20(%eax),%edx
	lapic[index] = value;
8010376a:	c7 80 e0 03 00 00 0b 	movl   $0xb,0x3e0(%eax)
80103771:	00 00 00 
	lapic[ID]; // wait for write to finish, by reading
80103774:	8b 50 20             	mov    0x20(%eax),%edx
	lapic[index] = value;
80103777:	c7 80 20 03 00 00 20 	movl   $0x20020,0x320(%eax)
8010377e:	00 02 00 
	lapic[ID]; // wait for write to finish, by reading
80103781:	8b 50 20             	mov    0x20(%eax),%edx
	lapic[index] = value;
80103784:	c7 80 80 03 00 00 80 	movl   $0x989680,0x380(%eax)
8010378b:	96 98 00 
	lapic[ID]; // wait for write to finish, by reading
8010378e:	8b 50 20             	mov    0x20(%eax),%edx
	lapic[index] = value;
80103791:	c7 80 50 03 00 00 00 	movl   $0x10000,0x350(%eax)
80103798:	00 01 00 
	lapic[ID]; // wait for write to finish, by reading
8010379b:	8b 50 20             	mov    0x20(%eax),%edx
	lapic[index] = value;
8010379e:	c7 80 60 03 00 00 00 	movl   $0x10000,0x360(%eax)
801037a5:	00 01 00 
	lapic[ID]; // wait for write to finish, by reading
801037a8:	8b 50 20             	mov    0x20(%eax),%edx
	lapicw(LINT0, MASKED);
	lapicw(LINT1, MASKED);

	// Disable performance counter overflow interrupts
	// on machines that provide that interrupt entry.
	if (((lapic[VER] >> 16) & 0xFF) >= 4)
801037ab:	8b 50 30             	mov    0x30(%eax),%edx
801037ae:	81 e2 00 00 fc 00    	and    $0xfc0000,%edx
801037b4:	75 72                	jne    80103828 <lapicinit+0xd8>
	lapic[index] = value;
801037b6:	c7 80 70 03 00 00 33 	movl   $0x33,0x370(%eax)
801037bd:	00 00 00 
	lapic[ID]; // wait for write to finish, by reading
801037c0:	8b 50 20             	mov    0x20(%eax),%edx
	lapic[index] = value;
801037c3:	c7 80 80 02 00 00 00 	movl   $0x0,0x280(%eax)
801037ca:	00 00 00 
	lapic[ID]; // wait for write to finish, by reading
801037cd:	8b 50 20             	mov    0x20(%eax),%edx
	lapic[index] = value;
801037d0:	c7 80 80 02 00 00 00 	movl   $0x0,0x280(%eax)
801037d7:	00 00 00 
	lapic[ID]; // wait for write to finish, by reading
801037da:	8b 50 20             	mov    0x20(%eax),%edx
	lapic[index] = value;
801037dd:	c7 80 b0 00 00 00 00 	movl   $0x0,0xb0(%eax)
801037e4:	00 00 00 
	lapic[ID]; // wait for write to finish, by reading
801037e7:	8b 50 20             	mov    0x20(%eax),%edx
	lapic[index] = value;
801037ea:	c7 80 10 03 00 00 00 	movl   $0x0,0x310(%eax)
801037f1:	00 00 00 
	lapic[ID]; // wait for write to finish, by reading
801037f4:	8b 50 20             	mov    0x20(%eax),%edx
	lapic[index] = value;
801037f7:	c7 80 00 03 00 00 00 	movl   $0x88500,0x300(%eax)
801037fe:	85 08 00 
	lapic[ID]; // wait for write to finish, by reading
80103801:	8b 50 20             	mov    0x20(%eax),%edx
	lapicw(EOI, 0);

	// Send an Init Level De-Assert to synchronise arbitration ID's.
	lapicw(ICRHI, 0);
	lapicw(ICRLO, BCAST | INIT | LEVEL);
	while (lapic[ICRLO] & DELIVS)
80103804:	8d 74 26 00          	lea    0x0(%esi,%eiz,1),%esi
80103808:	8b 90 00 03 00 00    	mov    0x300(%eax),%edx
8010380e:	80 e6 10             	and    $0x10,%dh
80103811:	75 f5                	jne    80103808 <lapicinit+0xb8>
	lapic[index] = value;
80103813:	c7 80 80 00 00 00 00 	movl   $0x0,0x80(%eax)
8010381a:	00 00 00 
	lapic[ID]; // wait for write to finish, by reading
8010381d:	8b 40 20             	mov    0x20(%eax),%eax
		;

	// Enable interrupts on the APIC (but not on the processor).
	lapicw(TPR, 0);
}
80103820:	c3                   	ret
80103821:	8d b4 26 00 00 00 00 	lea    0x0(%esi,%eiz,1),%esi
	lapic[index] = value;
80103828:	c7 80 40 03 00 00 00 	movl   $0x10000,0x340(%eax)
8010382f:	00 01 00 
	lapic[ID]; // wait for write to finish, by reading
80103832:	8b 50 20             	mov    0x20(%eax),%edx
}
80103835:	e9 7c ff ff ff       	jmp    801037b6 <lapicinit+0x66>
8010383a:	8d b6 00 00 00 00    	lea    0x0(%esi),%esi

80103840 <lapicid>:

int lapicid(void) {
	if (!lapic)
80103840:	a1 94 3e 13 80       	mov    0x80133e94,%eax
80103845:	85 c0                	test   %eax,%eax
80103847:	74 07                	je     80103850 <lapicid+0x10>
		return 0;
	return lapic[ID] >> 24;
80103849:	8b 40 20             	mov    0x20(%eax),%eax
8010384c:	c1 e8 18             	shr    $0x18,%eax
8010384f:	c3                   	ret
		return 0;
80103850:	31 c0                	xor    %eax,%eax
}
80103852:	c3                   	ret
80103853:	2e 8d b4 26 00 00 00 	lea    %cs:0x0(%esi,%eiz,1),%esi
8010385a:	00 
8010385b:	2e 8d 74 26 00       	lea    %cs:0x0(%esi,%eiz,1),%esi

80103860 <lapiceoi>:

// Acknowledge interrupt.
void lapiceoi(void) {
	if (lapic)
80103860:	a1 94 3e 13 80       	mov    0x80133e94,%eax
80103865:	85 c0                	test   %eax,%eax
80103867:	74 0d                	je     80103876 <lapiceoi+0x16>
	lapic[index] = value;
80103869:	c7 80 b0 00 00 00 00 	movl   $0x0,0xb0(%eax)
80103870:	00 00 00 
	lapic[ID]; // wait for write to finish, by reading
80103873:	8b 40 20             	mov    0x20(%eax),%eax
		lapicw(EOI, 0);
}
80103876:	c3                   	ret
80103877:	2e 8d b4 26 00 00 00 	lea    %cs:0x0(%esi,%eiz,1),%esi
8010387e:	00 
8010387f:	90                   	nop

80103880 <microdelay>:

// Spin for a given number of microseconds.
// On real hardware would want to tune this dynamically.
void microdelay(int us) {}
80103880:	c3                   	ret
80103881:	2e 8d b4 26 00 00 00 	lea    %cs:0x0(%esi,%eiz,1),%esi
80103888:	00 
80103889:	8d b4 26 00 00 00 00 	lea    0x0(%esi,%eiz,1),%esi

80103890 <lapicstartap>:
#define CMOS_PORT 0x70
#define CMOS_RETURN 0x71

// Start additional processor running entry code at addr.
// See Appendix B of MultiProcessor Specification.
void lapicstartap(uchar apicid, uint addr) {
80103890:	55                   	push   %ebp
	asm volatile("out %0,%1" : : "a"(data), "d"(port));
80103891:	b8 0f 00 00 00       	mov    $0xf,%eax
80103896:	ba 70 00 00 00       	mov    $0x70,%edx
8010389b:	89 e5                	mov    %esp,%ebp
8010389d:	53                   	push   %ebx
8010389e:	8b 4d 0c             	mov    0xc(%ebp),%ecx
801038a1:	8b 5d 08             	mov    0x8(%ebp),%ebx
801038a4:	ee                   	out    %al,(%dx)
801038a5:	b8 0a 00 00 00       	mov    $0xa,%eax
801038aa:	ba 71 00 00 00       	mov    $0x71,%edx
801038af:	ee                   	out    %al,(%dx)
	// and the warm reset vector (DWORD based at 40:67) to point at
	// the AP startup code prior to the [universal startup algorithm]."
	outb(CMOS_PORT, 0xF); // offset 0xF is shutdown code
	outb(CMOS_PORT + 1, 0x0A);
	wrv = (ushort *)P2V((0x40 << 4 | 0x67)); // Warm reset vector
	wrv[0] = 0;
801038b0:	31 c0                	xor    %eax,%eax
	lapic[index] = value;
801038b2:	c1 e3 18             	shl    $0x18,%ebx
	wrv[0] = 0;
801038b5:	66 a3 67 04 00 80    	mov    %ax,0x80000467
	wrv[1] = addr >> 4;
801038bb:	89 c8                	mov    %ecx,%eax
	// when it is in the halted state due to an INIT.  So the second
	// should be ignored, but it is part of the official Intel algorithm.
	// Bochs complains about the second one.  Too bad for Bochs.
	for (i = 0; i < 2; i++) {
		lapicw(ICRHI, apicid << 24);
		lapicw(ICRLO, STARTUP | (addr >> 12));
801038bd:	c1 e9 0c             	shr    $0xc,%ecx
	lapic[index] = value;
801038c0:	89 da                	mov    %ebx,%edx
	wrv[1] = addr >> 4;
801038c2:	c1 e8 04             	shr    $0x4,%eax
		lapicw(ICRLO, STARTUP | (addr >> 12));
801038c5:	80 cd 06             	or     $0x6,%ch
	wrv[1] = addr >> 4;
801038c8:	66 a3 69 04 00 80    	mov    %ax,0x80000469
	lapic[index] = value;
801038ce:	a1 94 3e 13 80       	mov    0x80133e94,%eax
801038d3:	89 98 10 03 00 00    	mov    %ebx,0x310(%eax)
	lapic[ID]; // wait for write to finish, by reading
801038d9:	8b 58 20             	mov    0x20(%eax),%ebx
	lapic[index] = value;
801038dc:	c7 80 00 03 00 00 00 	movl   $0xc500,0x300(%eax)
801038e3:	c5 00 00 
	lapic[ID]; // wait for write to finish, by reading
801038e6:	8b 58 20             	mov    0x20(%eax),%ebx
	lapic[index] = value;
801038e9:	c7 80 00 03 00 00 00 	movl   $0x8500,0x300(%eax)
801038f0:	85 00 00 
	lapic[ID]; // wait for write to finish, by reading
801038f3:	8b 58 20             	mov    0x20(%eax),%ebx
	lapic[index] = value;
801038f6:	89 90 10 03 00 00    	mov    %edx,0x310(%eax)
	lapic[ID]; // wait for write to finish, by reading
801038fc:	8b 58 20             	mov    0x20(%eax),%ebx
	lapic[index] = value;
801038ff:	89 88 00 03 00 00    	mov    %ecx,0x300(%eax)
	lapic[ID]; // wait for write to finish, by reading
80103905:	8b 58 20             	mov    0x20(%eax),%ebx
	lapic[index] = value;
80103908:	89 90 10 03 00 00    	mov    %edx,0x310(%eax)
	lapic[ID]; // wait for write to finish, by reading
8010390e:	8b 50 20             	mov    0x20(%eax),%edx
	lapic[index] = value;
80103911:	89 88 00 03 00 00    	mov    %ecx,0x300(%eax)
	lapic[ID]; // wait for write to finish, by reading
80103917:	8b 40 20             	mov    0x20(%eax),%eax
		microdelay(200);
	}
}
8010391a:	8b 5d fc             	mov    -0x4(%ebp),%ebx
8010391d:	c9                   	leave
8010391e:	c3                   	ret
8010391f:	90                   	nop

80103920 <cmostime>:
	r->month = cmos_read(MONTH);
	r->year = cmos_read(YEAR);
}

// qemu seems to use 24-hour GWT and the values are BCD encoded
void cmostime(struct rtcdate *r) {
80103920:	55                   	push   %ebp
80103921:	b8 0b 00 00 00       	mov    $0xb,%eax
80103926:	ba 70 00 00 00       	mov    $0x70,%edx
8010392b:	89 e5                	mov    %esp,%ebp
8010392d:	57                   	push   %edi
8010392e:	56                   	push   %esi
8010392f:	53                   	push   %ebx
80103930:	83 ec 4c             	sub    $0x4c,%esp
80103933:	ee                   	out    %al,(%dx)
	asm volatile("in %1,%0" : "=a"(data) : "d"(port));
80103934:	ba 71 00 00 00       	mov    $0x71,%edx
80103939:	ec                   	in     (%dx),%al
	struct rtcdate t1, t2;
	int sb, bcd;

	sb = cmos_read(CMOS_STATB);

	bcd = (sb & (1 << 2)) == 0;
8010393a:	83 e0 04             	and    $0x4,%eax
	asm volatile("out %0,%1" : : "a"(data), "d"(port));
8010393d:	bf 70 00 00 00       	mov    $0x70,%edi
80103942:	88 45 b3             	mov    %al,-0x4d(%ebp)
80103945:	8d 76 00             	lea    0x0(%esi),%esi
80103948:	31 c0                	xor    %eax,%eax
8010394a:	89 fa                	mov    %edi,%edx
8010394c:	ee                   	out    %al,(%dx)
	asm volatile("in %1,%0" : "=a"(data) : "d"(port));
8010394d:	b9 71 00 00 00       	mov    $0x71,%ecx
80103952:	89 ca                	mov    %ecx,%edx
80103954:	ec                   	in     (%dx),%al
80103955:	88 45 b7             	mov    %al,-0x49(%ebp)
	asm volatile("out %0,%1" : : "a"(data), "d"(port));
80103958:	89 fa                	mov    %edi,%edx
8010395a:	b8 02 00 00 00       	mov    $0x2,%eax
8010395f:	ee                   	out    %al,(%dx)
	asm volatile("in %1,%0" : "=a"(data) : "d"(port));
80103960:	89 ca                	mov    %ecx,%edx
80103962:	ec                   	in     (%dx),%al
80103963:	88 45 b6             	mov    %al,-0x4a(%ebp)
	asm volatile("out %0,%1" : : "a"(data), "d"(port));
80103966:	89 fa                	mov    %edi,%edx
80103968:	b8 04 00 00 00       	mov    $0x4,%eax
8010396d:	ee                   	out    %al,(%dx)
	asm volatile("in %1,%0" : "=a"(data) : "d"(port));
8010396e:	89 ca                	mov    %ecx,%edx
80103970:	ec                   	in     (%dx),%al
80103971:	88 45 b5             	mov    %al,-0x4b(%ebp)
	asm volatile("out %0,%1" : : "a"(data), "d"(port));
80103974:	89 fa                	mov    %edi,%edx
80103976:	b8 07 00 00 00       	mov    $0x7,%eax
8010397b:	ee                   	out    %al,(%dx)
	asm volatile("in %1,%0" : "=a"(data) : "d"(port));
8010397c:	89 ca                	mov    %ecx,%edx
8010397e:	ec                   	in     (%dx),%al
8010397f:	88 45 b4             	mov    %al,-0x4c(%ebp)
	asm volatile("out %0,%1" : : "a"(data), "d"(port));
80103982:	89 fa                	mov    %edi,%edx
80103984:	b8 08 00 00 00       	mov    $0x8,%eax
80103989:	ee                   	out    %al,(%dx)
	asm volatile("in %1,%0" : "=a"(data) : "d"(port));
8010398a:	89 ca                	mov    %ecx,%edx
8010398c:	ec                   	in     (%dx),%al
8010398d:	89 c6                	mov    %eax,%esi
	asm volatile("out %0,%1" : : "a"(data), "d"(port));
8010398f:	89 fa                	mov    %edi,%edx
80103991:	b8 09 00 00 00       	mov    $0x9,%eax
80103996:	ee                   	out    %al,(%dx)
	asm volatile("in %1,%0" : "=a"(data) : "d"(port));
80103997:	89 ca                	mov    %ecx,%edx
80103999:	ec                   	in     (%dx),%al
8010399a:	0f b6 d8             	movzbl %al,%ebx
	asm volatile("out %0,%1" : : "a"(data), "d"(port));
8010399d:	89 fa                	mov    %edi,%edx
8010399f:	b8 0a 00 00 00       	mov    $0xa,%eax
801039a4:	ee                   	out    %al,(%dx)
	asm volatile("in %1,%0" : "=a"(data) : "d"(port));
801039a5:	89 ca                	mov    %ecx,%edx
801039a7:	ec                   	in     (%dx),%al

	// make sure CMOS doesn't modify time while we read it
	for (;;) {
		fill_rtcdate(&t1);
		if (cmos_read(CMOS_STATA) & CMOS_UIP)
801039a8:	84 c0                	test   %al,%al
801039aa:	78 9c                	js     80103948 <cmostime+0x28>
	return inb(CMOS_RETURN);
801039ac:	0f b6 45 b7          	movzbl -0x49(%ebp),%eax
801039b0:	89 f2                	mov    %esi,%edx
801039b2:	89 5d cc             	mov    %ebx,-0x34(%ebp)
801039b5:	0f b6 f2             	movzbl %dl,%esi
	asm volatile("out %0,%1" : : "a"(data), "d"(port));
801039b8:	89 fa                	mov    %edi,%edx
801039ba:	89 45 b8             	mov    %eax,-0x48(%ebp)
801039bd:	0f b6 45 b6          	movzbl -0x4a(%ebp),%eax
801039c1:	89 75 c8             	mov    %esi,-0x38(%ebp)
801039c4:	89 45 bc             	mov    %eax,-0x44(%ebp)
801039c7:	0f b6 45 b5          	movzbl -0x4b(%ebp),%eax
801039cb:	89 45 c0             	mov    %eax,-0x40(%ebp)
801039ce:	0f b6 45 b4          	movzbl -0x4c(%ebp),%eax
801039d2:	89 45 c4             	mov    %eax,-0x3c(%ebp)
801039d5:	31 c0                	xor    %eax,%eax
801039d7:	ee                   	out    %al,(%dx)
	asm volatile("in %1,%0" : "=a"(data) : "d"(port));
801039d8:	89 ca                	mov    %ecx,%edx
801039da:	ec                   	in     (%dx),%al
801039db:	0f b6 c0             	movzbl %al,%eax
	asm volatile("out %0,%1" : : "a"(data), "d"(port));
801039de:	89 fa                	mov    %edi,%edx
801039e0:	89 45 d0             	mov    %eax,-0x30(%ebp)
801039e3:	b8 02 00 00 00       	mov    $0x2,%eax
801039e8:	ee                   	out    %al,(%dx)
	asm volatile("in %1,%0" : "=a"(data) : "d"(port));
801039e9:	89 ca                	mov    %ecx,%edx
801039eb:	ec                   	in     (%dx),%al
801039ec:	0f b6 c0             	movzbl %al,%eax
	asm volatile("out %0,%1" : : "a"(data), "d"(port));
801039ef:	89 fa                	mov    %edi,%edx
801039f1:	89 45 d4             	mov    %eax,-0x2c(%ebp)
801039f4:	b8 04 00 00 00       	mov    $0x4,%eax
801039f9:	ee                   	out    %al,(%dx)
	asm volatile("in %1,%0" : "=a"(data) : "d"(port));
801039fa:	89 ca                	mov    %ecx,%edx
801039fc:	ec                   	in     (%dx),%al
801039fd:	0f b6 c0             	movzbl %al,%eax
	asm volatile("out %0,%1" : : "a"(data), "d"(port));
80103a00:	89 fa                	mov    %edi,%edx
80103a02:	89 45 d8             	mov    %eax,-0x28(%ebp)
80103a05:	b8 07 00 00 00       	mov    $0x7,%eax
80103a0a:	ee                   	out    %al,(%dx)
	asm volatile("in %1,%0" : "=a"(data) : "d"(port));
80103a0b:	89 ca                	mov    %ecx,%edx
80103a0d:	ec                   	in     (%dx),%al
80103a0e:	0f b6 c0             	movzbl %al,%eax
	asm volatile("out %0,%1" : : "a"(data), "d"(port));
80103a11:	89 fa                	mov    %edi,%edx
80103a13:	89 45 dc             	mov    %eax,-0x24(%ebp)
80103a16:	b8 08 00 00 00       	mov    $0x8,%eax
80103a1b:	ee                   	out    %al,(%dx)
	asm volatile("in %1,%0" : "=a"(data) : "d"(port));
80103a1c:	89 ca                	mov    %ecx,%edx
80103a1e:	ec                   	in     (%dx),%al
80103a1f:	0f b6 c0             	movzbl %al,%eax
	asm volatile("out %0,%1" : : "a"(data), "d"(port));
80103a22:	89 fa                	mov    %edi,%edx
80103a24:	89 45 e0             	mov    %eax,-0x20(%ebp)
80103a27:	b8 09 00 00 00       	mov    $0x9,%eax
80103a2c:	ee                   	out    %al,(%dx)
	asm volatile("in %1,%0" : "=a"(data) : "d"(port));
80103a2d:	89 ca                	mov    %ecx,%edx
80103a2f:	ec                   	in     (%dx),%al
80103a30:	0f b6 c0             	movzbl %al,%eax
			continue;
		fill_rtcdate(&t2);
		if (memcmp(&t1, &t2, sizeof(t1)) == 0)
80103a33:	83 ec 04             	sub    $0x4,%esp
	return inb(CMOS_RETURN);
80103a36:	89 45 e4             	mov    %eax,-0x1c(%ebp)
		if (memcmp(&t1, &t2, sizeof(t1)) == 0)
80103a39:	8d 45 d0             	lea    -0x30(%ebp),%eax
80103a3c:	6a 18                	push   $0x18
80103a3e:	50                   	push   %eax
80103a3f:	8d 45 b8             	lea    -0x48(%ebp),%eax
80103a42:	50                   	push   %eax
80103a43:	e8 68 1c 00 00       	call   801056b0 <memcmp>
80103a48:	83 c4 10             	add    $0x10,%esp
80103a4b:	85 c0                	test   %eax,%eax
80103a4d:	0f 85 f5 fe ff ff    	jne    80103948 <cmostime+0x28>
			break;
	}

	// convert
	if (bcd) {
80103a53:	0f b6 75 b3          	movzbl -0x4d(%ebp),%esi
80103a57:	8b 5d 08             	mov    0x8(%ebp),%ebx
80103a5a:	89 f0                	mov    %esi,%eax
80103a5c:	84 c0                	test   %al,%al
80103a5e:	75 78                	jne    80103ad8 <cmostime+0x1b8>
#define CONV(x) (t1.x = ((t1.x >> 4) * 10) + (t1.x & 0xf))
		CONV(second);
80103a60:	8b 45 b8             	mov    -0x48(%ebp),%eax
80103a63:	89 c2                	mov    %eax,%edx
80103a65:	83 e0 0f             	and    $0xf,%eax
80103a68:	c1 ea 04             	shr    $0x4,%edx
80103a6b:	8d 14 92             	lea    (%edx,%edx,4),%edx
80103a6e:	8d 04 50             	lea    (%eax,%edx,2),%eax
80103a71:	89 45 b8             	mov    %eax,-0x48(%ebp)
		CONV(minute);
80103a74:	8b 45 bc             	mov    -0x44(%ebp),%eax
80103a77:	89 c2                	mov    %eax,%edx
80103a79:	83 e0 0f             	and    $0xf,%eax
80103a7c:	c1 ea 04             	shr    $0x4,%edx
80103a7f:	8d 14 92             	lea    (%edx,%edx,4),%edx
80103a82:	8d 04 50             	lea    (%eax,%edx,2),%eax
80103a85:	89 45 bc             	mov    %eax,-0x44(%ebp)
		CONV(hour);
80103a88:	8b 45 c0             	mov    -0x40(%ebp),%eax
80103a8b:	89 c2                	mov    %eax,%edx
80103a8d:	83 e0 0f             	and    $0xf,%eax
80103a90:	c1 ea 04             	shr    $0x4,%edx
80103a93:	8d 14 92             	lea    (%edx,%edx,4),%edx
80103a96:	8d 04 50             	lea    (%eax,%edx,2),%eax
80103a99:	89 45 c0             	mov    %eax,-0x40(%ebp)
		CONV(day);
80103a9c:	8b 45 c4             	mov    -0x3c(%ebp),%eax
80103a9f:	89 c2                	mov    %eax,%edx
80103aa1:	83 e0 0f             	and    $0xf,%eax
80103aa4:	c1 ea 04             	shr    $0x4,%edx
80103aa7:	8d 14 92             	lea    (%edx,%edx,4),%edx
80103aaa:	8d 04 50             	lea    (%eax,%edx,2),%eax
80103aad:	89 45 c4             	mov    %eax,-0x3c(%ebp)
		CONV(month);
80103ab0:	8b 45 c8             	mov    -0x38(%ebp),%eax
80103ab3:	89 c2                	mov    %eax,%edx
80103ab5:	83 e0 0f             	and    $0xf,%eax
80103ab8:	c1 ea 04             	shr    $0x4,%edx
80103abb:	8d 14 92             	lea    (%edx,%edx,4),%edx
80103abe:	8d 04 50             	lea    (%eax,%edx,2),%eax
80103ac1:	89 45 c8             	mov    %eax,-0x38(%ebp)
		CONV(year);
80103ac4:	8b 45 cc             	mov    -0x34(%ebp),%eax
80103ac7:	89 c2                	mov    %eax,%edx
80103ac9:	83 e0 0f             	and    $0xf,%eax
80103acc:	c1 ea 04             	shr    $0x4,%edx
80103acf:	8d 14 92             	lea    (%edx,%edx,4),%edx
80103ad2:	8d 04 50             	lea    (%eax,%edx,2),%eax
80103ad5:	89 45 cc             	mov    %eax,-0x34(%ebp)
#undef CONV
	}

	*r = t1;
80103ad8:	8b 45 b8             	mov    -0x48(%ebp),%eax
80103adb:	89 03                	mov    %eax,(%ebx)
80103add:	8b 45 bc             	mov    -0x44(%ebp),%eax
80103ae0:	89 43 04             	mov    %eax,0x4(%ebx)
80103ae3:	8b 45 c0             	mov    -0x40(%ebp),%eax
80103ae6:	89 43 08             	mov    %eax,0x8(%ebx)
80103ae9:	8b 45 c4             	mov    -0x3c(%ebp),%eax
80103aec:	89 43 0c             	mov    %eax,0xc(%ebx)
80103aef:	8b 45 c8             	mov    -0x38(%ebp),%eax
80103af2:	89 43 10             	mov    %eax,0x10(%ebx)
80103af5:	8b 45 cc             	mov    -0x34(%ebp),%eax
80103af8:	89 43 14             	mov    %eax,0x14(%ebx)
	r->year += 2000;
80103afb:	81 43 14 d0 07 00 00 	addl   $0x7d0,0x14(%ebx)
}
80103b02:	8d 65 f4             	lea    -0xc(%ebp),%esp
80103b05:	5b                   	pop    %ebx
80103b06:	5e                   	pop    %esi
80103b07:	5f                   	pop    %edi
80103b08:	5d                   	pop    %ebp
80103b09:	c3                   	ret
80103b0a:	66 90                	xchg   %ax,%ax
80103b0c:	66 90                	xchg   %ax,%ax
80103b0e:	66 90                	xchg   %ax,%ax

80103b10 <install_trans>:

// Copy committed blocks from log to their home location
static void install_trans(void) {
	int tail;

	for (tail = 0; tail < log.lh.n; tail++) {
80103b10:	8b 0d e8 3e 13 80    	mov    0x80133ee8,%ecx
80103b16:	85 c9                	test   %ecx,%ecx
80103b18:	0f 8e 8a 00 00 00    	jle    80103ba8 <install_trans+0x98>
static void install_trans(void) {
80103b1e:	55                   	push   %ebp
80103b1f:	89 e5                	mov    %esp,%ebp
80103b21:	57                   	push   %edi
	for (tail = 0; tail < log.lh.n; tail++) {
80103b22:	31 ff                	xor    %edi,%edi
static void install_trans(void) {
80103b24:	56                   	push   %esi
80103b25:	53                   	push   %ebx
80103b26:	83 ec 0c             	sub    $0xc,%esp
80103b29:	8d b4 26 00 00 00 00 	lea    0x0(%esi,%eiz,1),%esi
		struct buf *lbuf =
			bread(log.dev, log.start + tail + 1); // read log block
80103b30:	a1 d4 3e 13 80       	mov    0x80133ed4,%eax
80103b35:	83 ec 08             	sub    $0x8,%esp
80103b38:	01 f8                	add    %edi,%eax
80103b3a:	83 c0 01             	add    $0x1,%eax
80103b3d:	50                   	push   %eax
80103b3e:	ff 35 e4 3e 13 80    	push   0x80133ee4
80103b44:	e8 f7 cf ff ff       	call   80100b40 <bread>
80103b49:	89 c6                	mov    %eax,%esi
		struct buf *dbuf =
			bread(log.dev, log.lh.block[tail]); // read dst
80103b4b:	58                   	pop    %eax
80103b4c:	5a                   	pop    %edx
80103b4d:	ff 34 bd ec 3e 13 80 	push   -0x7fecc114(,%edi,4)
80103b54:	ff 35 e4 3e 13 80    	push   0x80133ee4
	for (tail = 0; tail < log.lh.n; tail++) {
80103b5a:	83 c7 01             	add    $0x1,%edi
			bread(log.dev, log.lh.block[tail]); // read dst
80103b5d:	e8 de cf ff ff       	call   80100b40 <bread>
		memmove(dbuf->data, lbuf->data, BSIZE);	    // copy block to dst
80103b62:	83 c4 0c             	add    $0xc,%esp
			bread(log.dev, log.lh.block[tail]); // read dst
80103b65:	89 c3                	mov    %eax,%ebx
		memmove(dbuf->data, lbuf->data, BSIZE);	    // copy block to dst
80103b67:	8d 46 5c             	lea    0x5c(%esi),%eax
80103b6a:	68 00 08 00 00       	push   $0x800
80103b6f:	50                   	push   %eax
80103b70:	8d 43 5c             	lea    0x5c(%ebx),%eax
80103b73:	50                   	push   %eax
80103b74:	e8 87 1b 00 00       	call   80105700 <memmove>
		bwrite(dbuf);				    // write dst to disk
80103b79:	89 1c 24             	mov    %ebx,(%esp)
80103b7c:	e8 9f d0 ff ff       	call   80100c20 <bwrite>
		brelse(lbuf);
80103b81:	89 34 24             	mov    %esi,(%esp)
80103b84:	e8 d7 d0 ff ff       	call   80100c60 <brelse>
		brelse(dbuf);
80103b89:	89 1c 24             	mov    %ebx,(%esp)
80103b8c:	e8 cf d0 ff ff       	call   80100c60 <brelse>
	for (tail = 0; tail < log.lh.n; tail++) {
80103b91:	83 c4 10             	add    $0x10,%esp
80103b94:	39 3d e8 3e 13 80    	cmp    %edi,0x80133ee8
80103b9a:	7f 94                	jg     80103b30 <install_trans+0x20>
	}
}
80103b9c:	8d 65 f4             	lea    -0xc(%ebp),%esp
80103b9f:	5b                   	pop    %ebx
80103ba0:	5e                   	pop    %esi
80103ba1:	5f                   	pop    %edi
80103ba2:	5d                   	pop    %ebp
80103ba3:	c3                   	ret
80103ba4:	8d 74 26 00          	lea    0x0(%esi,%eiz,1),%esi
80103ba8:	c3                   	ret
80103ba9:	8d b4 26 00 00 00 00 	lea    0x0(%esi,%eiz,1),%esi

80103bb0 <write_head>:
}

// Write in-memory log header to disk.
// This is the true point at which the
// current transaction commits.
static void write_head(void) {
80103bb0:	55                   	push   %ebp
80103bb1:	89 e5                	mov    %esp,%ebp
80103bb3:	53                   	push   %ebx
80103bb4:	83 ec 0c             	sub    $0xc,%esp
	struct buf *buf = bread(log.dev, log.start);
80103bb7:	ff 35 d4 3e 13 80    	push   0x80133ed4
80103bbd:	ff 35 e4 3e 13 80    	push   0x80133ee4
80103bc3:	e8 78 cf ff ff       	call   80100b40 <bread>
	struct logheader *hb = (struct logheader *)(buf->data);
	int i;
	hb->n = log.lh.n;
	for (i = 0; i < log.lh.n; i++) {
80103bc8:	83 c4 10             	add    $0x10,%esp
	struct buf *buf = bread(log.dev, log.start);
80103bcb:	89 c3                	mov    %eax,%ebx
	hb->n = log.lh.n;
80103bcd:	a1 e8 3e 13 80       	mov    0x80133ee8,%eax
80103bd2:	89 43 5c             	mov    %eax,0x5c(%ebx)
	for (i = 0; i < log.lh.n; i++) {
80103bd5:	85 c0                	test   %eax,%eax
80103bd7:	7e 19                	jle    80103bf2 <write_head+0x42>
80103bd9:	31 d2                	xor    %edx,%edx
80103bdb:	2e 8d 74 26 00       	lea    %cs:0x0(%esi,%eiz,1),%esi
		hb->block[i] = log.lh.block[i];
80103be0:	8b 0c 95 ec 3e 13 80 	mov    -0x7fecc114(,%edx,4),%ecx
80103be7:	89 4c 93 60          	mov    %ecx,0x60(%ebx,%edx,4)
	for (i = 0; i < log.lh.n; i++) {
80103beb:	83 c2 01             	add    $0x1,%edx
80103bee:	39 d0                	cmp    %edx,%eax
80103bf0:	75 ee                	jne    80103be0 <write_head+0x30>
	}
	bwrite(buf);
80103bf2:	83 ec 0c             	sub    $0xc,%esp
80103bf5:	53                   	push   %ebx
80103bf6:	e8 25 d0 ff ff       	call   80100c20 <bwrite>
	brelse(buf);
80103bfb:	89 1c 24             	mov    %ebx,(%esp)
80103bfe:	e8 5d d0 ff ff       	call   80100c60 <brelse>
}
80103c03:	8b 5d fc             	mov    -0x4(%ebp),%ebx
80103c06:	83 c4 10             	add    $0x10,%esp
80103c09:	c9                   	leave
80103c0a:	c3                   	ret
80103c0b:	2e 8d 74 26 00       	lea    %cs:0x0(%esi,%eiz,1),%esi

80103c10 <initlog>:
void initlog(int dev) {
80103c10:	55                   	push   %ebp
80103c11:	89 e5                	mov    %esp,%ebp
80103c13:	53                   	push   %ebx
80103c14:	83 ec 2c             	sub    $0x2c,%esp
80103c17:	8b 5d 08             	mov    0x8(%ebp),%ebx
	initlock(&log.lock, "log");
80103c1a:	68 f3 b3 10 80       	push   $0x8010b3f3
80103c1f:	68 a0 3e 13 80       	push   $0x80133ea0
80103c24:	e8 57 17 00 00       	call   80105380 <initlock>
	readsb(dev, &sb);
80103c29:	58                   	pop    %eax
80103c2a:	8d 45 d8             	lea    -0x28(%ebp),%eax
80103c2d:	5a                   	pop    %edx
80103c2e:	50                   	push   %eax
80103c2f:	53                   	push   %ebx
80103c30:	e8 3b e6 ff ff       	call   80102270 <readsb>
	log.start = sb.logstart;
80103c35:	8b 45 e8             	mov    -0x18(%ebp),%eax
	struct buf *buf = bread(log.dev, log.start);
80103c38:	59                   	pop    %ecx
	log.dev = dev;
80103c39:	89 1d e4 3e 13 80    	mov    %ebx,0x80133ee4
	log.size = sb.nlog;
80103c3f:	8b 55 e4             	mov    -0x1c(%ebp),%edx
	log.start = sb.logstart;
80103c42:	a3 d4 3e 13 80       	mov    %eax,0x80133ed4
	log.size = sb.nlog;
80103c47:	89 15 d8 3e 13 80    	mov    %edx,0x80133ed8
	struct buf *buf = bread(log.dev, log.start);
80103c4d:	5a                   	pop    %edx
80103c4e:	50                   	push   %eax
80103c4f:	53                   	push   %ebx
80103c50:	e8 eb ce ff ff       	call   80100b40 <bread>
	for (i = 0; i < log.lh.n; i++) {
80103c55:	83 c4 10             	add    $0x10,%esp
	log.lh.n = lh->n;
80103c58:	8b 58 5c             	mov    0x5c(%eax),%ebx
80103c5b:	89 1d e8 3e 13 80    	mov    %ebx,0x80133ee8
	for (i = 0; i < log.lh.n; i++) {
80103c61:	85 db                	test   %ebx,%ebx
80103c63:	7e 1d                	jle    80103c82 <initlog+0x72>
80103c65:	31 d2                	xor    %edx,%edx
80103c67:	2e 8d b4 26 00 00 00 	lea    %cs:0x0(%esi,%eiz,1),%esi
80103c6e:	00 
80103c6f:	90                   	nop
		log.lh.block[i] = lh->block[i];
80103c70:	8b 4c 90 60          	mov    0x60(%eax,%edx,4),%ecx
80103c74:	89 0c 95 ec 3e 13 80 	mov    %ecx,-0x7fecc114(,%edx,4)
	for (i = 0; i < log.lh.n; i++) {
80103c7b:	83 c2 01             	add    $0x1,%edx
80103c7e:	39 d3                	cmp    %edx,%ebx
80103c80:	75 ee                	jne    80103c70 <initlog+0x60>
	brelse(buf);
80103c82:	83 ec 0c             	sub    $0xc,%esp
80103c85:	50                   	push   %eax
80103c86:	e8 d5 cf ff ff       	call   80100c60 <brelse>

static void recover_from_log(void) {
	read_head();
	install_trans(); // if committed, copy from log to disk
80103c8b:	e8 80 fe ff ff       	call   80103b10 <install_trans>
	log.lh.n = 0;
80103c90:	c7 05 e8 3e 13 80 00 	movl   $0x0,0x80133ee8
80103c97:	00 00 00 
	write_head(); // clear the log
80103c9a:	e8 11 ff ff ff       	call   80103bb0 <write_head>
}
80103c9f:	8b 5d fc             	mov    -0x4(%ebp),%ebx
80103ca2:	83 c4 10             	add    $0x10,%esp
80103ca5:	c9                   	leave
80103ca6:	c3                   	ret
80103ca7:	2e 8d b4 26 00 00 00 	lea    %cs:0x0(%esi,%eiz,1),%esi
80103cae:	00 
80103caf:	90                   	nop

80103cb0 <begin_op>:
}

// called at the start of each FS system call.
void begin_op(void) {
80103cb0:	55                   	push   %ebp
80103cb1:	89 e5                	mov    %esp,%ebp
80103cb3:	83 ec 14             	sub    $0x14,%esp
	acquire(&log.lock);
80103cb6:	68 a0 3e 13 80       	push   $0x80133ea0
80103cbb:	e8 b0 18 00 00       	call   80105570 <acquire>
80103cc0:	83 c4 10             	add    $0x10,%esp
80103cc3:	eb 18                	jmp    80103cdd <begin_op+0x2d>
80103cc5:	8d 76 00             	lea    0x0(%esi),%esi
	while (1) {
		if (log.committing) {
			sleep(&log, &log.lock);
80103cc8:	83 ec 08             	sub    $0x8,%esp
80103ccb:	68 a0 3e 13 80       	push   $0x80133ea0
80103cd0:	68 a0 3e 13 80       	push   $0x80133ea0
80103cd5:	e8 f6 12 00 00       	call   80104fd0 <sleep>
80103cda:	83 c4 10             	add    $0x10,%esp
		if (log.committing) {
80103cdd:	a1 e0 3e 13 80       	mov    0x80133ee0,%eax
80103ce2:	85 c0                	test   %eax,%eax
80103ce4:	75 e2                	jne    80103cc8 <begin_op+0x18>
		} else if (log.lh.n + (log.outstanding + 1) * MAXOPBLOCKS >
80103ce6:	a1 dc 3e 13 80       	mov    0x80133edc,%eax
80103ceb:	8b 15 e8 3e 13 80    	mov    0x80133ee8,%edx
80103cf1:	83 c0 01             	add    $0x1,%eax
80103cf4:	8d 0c 80             	lea    (%eax,%eax,4),%ecx
80103cf7:	8d 14 4a             	lea    (%edx,%ecx,2),%edx
80103cfa:	83 fa 1e             	cmp    $0x1e,%edx
80103cfd:	7f c9                	jg     80103cc8 <begin_op+0x18>
			   LOGSIZE) {
			// this op might exhaust log space; wait for commit.
			sleep(&log, &log.lock);
		} else {
			log.outstanding += 1;
			release(&log.lock);
80103cff:	83 ec 0c             	sub    $0xc,%esp
			log.outstanding += 1;
80103d02:	a3 dc 3e 13 80       	mov    %eax,0x80133edc
			release(&log.lock);
80103d07:	68 a0 3e 13 80       	push   $0x80133ea0
80103d0c:	e8 ff 17 00 00       	call   80105510 <release>
			break;
		}
	}
}
80103d11:	83 c4 10             	add    $0x10,%esp
80103d14:	c9                   	leave
80103d15:	c3                   	ret
80103d16:	2e 8d b4 26 00 00 00 	lea    %cs:0x0(%esi,%eiz,1),%esi
80103d1d:	00 
80103d1e:	66 90                	xchg   %ax,%ax

80103d20 <end_op>:

// called at the end of each FS system call.
// commits if this was the last outstanding operation.
void end_op(void) {
80103d20:	55                   	push   %ebp
80103d21:	89 e5                	mov    %esp,%ebp
80103d23:	57                   	push   %edi
80103d24:	56                   	push   %esi
80103d25:	53                   	push   %ebx
80103d26:	83 ec 18             	sub    $0x18,%esp
	int do_commit = 0;

	acquire(&log.lock);
80103d29:	68 a0 3e 13 80       	push   $0x80133ea0
80103d2e:	e8 3d 18 00 00       	call   80105570 <acquire>
	log.outstanding -= 1;
80103d33:	a1 dc 3e 13 80       	mov    0x80133edc,%eax
	if (log.committing)
80103d38:	8b 35 e0 3e 13 80    	mov    0x80133ee0,%esi
80103d3e:	83 c4 10             	add    $0x10,%esp
	log.outstanding -= 1;
80103d41:	8d 58 ff             	lea    -0x1(%eax),%ebx
80103d44:	89 1d dc 3e 13 80    	mov    %ebx,0x80133edc
	if (log.committing)
80103d4a:	85 f6                	test   %esi,%esi
80103d4c:	0f 85 22 01 00 00    	jne    80103e74 <end_op+0x154>
		panic("log.committing");
	if (log.outstanding == 0) {
80103d52:	85 db                	test   %ebx,%ebx
80103d54:	0f 85 f6 00 00 00    	jne    80103e50 <end_op+0x130>
		do_commit = 1;
		log.committing = 1;
80103d5a:	c7 05 e0 3e 13 80 01 	movl   $0x1,0x80133ee0
80103d61:	00 00 00 
		// begin_op() may be waiting for log space,
		// and decrementing log.outstanding has decreased
		// the amount of reserved space.
		wakeup(&log);
	}
	release(&log.lock);
80103d64:	83 ec 0c             	sub    $0xc,%esp
80103d67:	68 a0 3e 13 80       	push   $0x80133ea0
80103d6c:	e8 9f 17 00 00       	call   80105510 <release>
		brelse(to);
	}
}

static void commit() {
	if (log.lh.n > 0) {
80103d71:	8b 0d e8 3e 13 80    	mov    0x80133ee8,%ecx
80103d77:	83 c4 10             	add    $0x10,%esp
80103d7a:	85 c9                	test   %ecx,%ecx
80103d7c:	7f 42                	jg     80103dc0 <end_op+0xa0>
		acquire(&log.lock);
80103d7e:	83 ec 0c             	sub    $0xc,%esp
80103d81:	68 a0 3e 13 80       	push   $0x80133ea0
80103d86:	e8 e5 17 00 00       	call   80105570 <acquire>
		log.committing = 0;
80103d8b:	c7 05 e0 3e 13 80 00 	movl   $0x0,0x80133ee0
80103d92:	00 00 00 
		wakeup(&log);
80103d95:	c7 04 24 a0 3e 13 80 	movl   $0x80133ea0,(%esp)
80103d9c:	e8 ef 12 00 00       	call   80105090 <wakeup>
		release(&log.lock);
80103da1:	c7 04 24 a0 3e 13 80 	movl   $0x80133ea0,(%esp)
80103da8:	e8 63 17 00 00       	call   80105510 <release>
80103dad:	83 c4 10             	add    $0x10,%esp
}
80103db0:	8d 65 f4             	lea    -0xc(%ebp),%esp
80103db3:	5b                   	pop    %ebx
80103db4:	5e                   	pop    %esi
80103db5:	5f                   	pop    %edi
80103db6:	5d                   	pop    %ebp
80103db7:	c3                   	ret
80103db8:	2e 8d b4 26 00 00 00 	lea    %cs:0x0(%esi,%eiz,1),%esi
80103dbf:	00 
			bread(log.dev, log.start + tail + 1); // log block
80103dc0:	a1 d4 3e 13 80       	mov    0x80133ed4,%eax
80103dc5:	83 ec 08             	sub    $0x8,%esp
80103dc8:	01 d8                	add    %ebx,%eax
80103dca:	83 c0 01             	add    $0x1,%eax
80103dcd:	50                   	push   %eax
80103dce:	ff 35 e4 3e 13 80    	push   0x80133ee4
80103dd4:	e8 67 cd ff ff       	call   80100b40 <bread>
80103dd9:	89 c6                	mov    %eax,%esi
			bread(log.dev, log.lh.block[tail]); // cache block
80103ddb:	58                   	pop    %eax
80103ddc:	5a                   	pop    %edx
80103ddd:	ff 34 9d ec 3e 13 80 	push   -0x7fecc114(,%ebx,4)
80103de4:	ff 35 e4 3e 13 80    	push   0x80133ee4
	for (tail = 0; tail < log.lh.n; tail++) {
80103dea:	83 c3 01             	add    $0x1,%ebx
			bread(log.dev, log.lh.block[tail]); // cache block
80103ded:	e8 4e cd ff ff       	call   80100b40 <bread>
		memmove(to->data, from->data, BSIZE);
80103df2:	83 c4 0c             	add    $0xc,%esp
			bread(log.dev, log.lh.block[tail]); // cache block
80103df5:	89 c7                	mov    %eax,%edi
		memmove(to->data, from->data, BSIZE);
80103df7:	8d 40 5c             	lea    0x5c(%eax),%eax
80103dfa:	68 00 08 00 00       	push   $0x800
80103dff:	50                   	push   %eax
80103e00:	8d 46 5c             	lea    0x5c(%esi),%eax
80103e03:	50                   	push   %eax
80103e04:	e8 f7 18 00 00       	call   80105700 <memmove>
		bwrite(to); // write the log
80103e09:	89 34 24             	mov    %esi,(%esp)
80103e0c:	e8 0f ce ff ff       	call   80100c20 <bwrite>
		brelse(from);
80103e11:	89 3c 24             	mov    %edi,(%esp)
80103e14:	e8 47 ce ff ff       	call   80100c60 <brelse>
		brelse(to);
80103e19:	89 34 24             	mov    %esi,(%esp)
80103e1c:	e8 3f ce ff ff       	call   80100c60 <brelse>
	for (tail = 0; tail < log.lh.n; tail++) {
80103e21:	83 c4 10             	add    $0x10,%esp
80103e24:	3b 1d e8 3e 13 80    	cmp    0x80133ee8,%ebx
80103e2a:	7c 94                	jl     80103dc0 <end_op+0xa0>
		write_log();	 // Write modified blocks from cache to log
		write_head();	 // Write header to disk -- the real commit
80103e2c:	e8 7f fd ff ff       	call   80103bb0 <write_head>
		install_trans(); // Now install writes to home locations
80103e31:	e8 da fc ff ff       	call   80103b10 <install_trans>
		log.lh.n = 0;
80103e36:	c7 05 e8 3e 13 80 00 	movl   $0x0,0x80133ee8
80103e3d:	00 00 00 
		write_head(); // Erase the transaction from the log
80103e40:	e8 6b fd ff ff       	call   80103bb0 <write_head>
80103e45:	e9 34 ff ff ff       	jmp    80103d7e <end_op+0x5e>
80103e4a:	8d b6 00 00 00 00    	lea    0x0(%esi),%esi
		wakeup(&log);
80103e50:	83 ec 0c             	sub    $0xc,%esp
80103e53:	68 a0 3e 13 80       	push   $0x80133ea0
80103e58:	e8 33 12 00 00       	call   80105090 <wakeup>
	release(&log.lock);
80103e5d:	c7 04 24 a0 3e 13 80 	movl   $0x80133ea0,(%esp)
80103e64:	e8 a7 16 00 00       	call   80105510 <release>
80103e69:	83 c4 10             	add    $0x10,%esp
}
80103e6c:	8d 65 f4             	lea    -0xc(%ebp),%esp
80103e6f:	5b                   	pop    %ebx
80103e70:	5e                   	pop    %esi
80103e71:	5f                   	pop    %edi
80103e72:	5d                   	pop    %ebp
80103e73:	c3                   	ret
		panic("log.committing");
80103e74:	83 ec 0c             	sub    $0xc,%esp
80103e77:	68 f7 b3 10 80       	push   $0x8010b3f7
80103e7c:	e8 6f cf ff ff       	call   80100df0 <panic>
80103e81:	2e 8d b4 26 00 00 00 	lea    %cs:0x0(%esi,%eiz,1),%esi
80103e88:	00 
80103e89:	8d b4 26 00 00 00 00 	lea    0x0(%esi,%eiz,1),%esi

80103e90 <log_write>:
// log_write() replaces bwrite(); a typical use is:
//   bp = bread(...)
//   modify bp->data[]
//   log_write(bp)
//   brelse(bp)
void log_write(struct buf *b) {
80103e90:	55                   	push   %ebp
80103e91:	89 e5                	mov    %esp,%ebp
80103e93:	53                   	push   %ebx
80103e94:	83 ec 04             	sub    $0x4,%esp
	int i;

	if (log.lh.n >= LOGSIZE || log.lh.n >= log.size - 1)
80103e97:	8b 15 e8 3e 13 80    	mov    0x80133ee8,%edx
void log_write(struct buf *b) {
80103e9d:	8b 5d 08             	mov    0x8(%ebp),%ebx
	if (log.lh.n >= LOGSIZE || log.lh.n >= log.size - 1)
80103ea0:	83 fa 1d             	cmp    $0x1d,%edx
80103ea3:	7f 7d                	jg     80103f22 <log_write+0x92>
80103ea5:	a1 d8 3e 13 80       	mov    0x80133ed8,%eax
80103eaa:	83 e8 01             	sub    $0x1,%eax
80103ead:	39 c2                	cmp    %eax,%edx
80103eaf:	7d 71                	jge    80103f22 <log_write+0x92>
		panic("too big a transaction");
	if (log.outstanding < 1)
80103eb1:	a1 dc 3e 13 80       	mov    0x80133edc,%eax
80103eb6:	85 c0                	test   %eax,%eax
80103eb8:	7e 75                	jle    80103f2f <log_write+0x9f>
		panic("log_write outside of trans");

	acquire(&log.lock);
80103eba:	83 ec 0c             	sub    $0xc,%esp
80103ebd:	68 a0 3e 13 80       	push   $0x80133ea0
80103ec2:	e8 a9 16 00 00       	call   80105570 <acquire>
	for (i = 0; i < log.lh.n; i++) {
		if (log.lh.block[i] == b->blockno) // log absorbtion
80103ec7:	8b 4b 08             	mov    0x8(%ebx),%ecx
	for (i = 0; i < log.lh.n; i++) {
80103eca:	83 c4 10             	add    $0x10,%esp
80103ecd:	31 c0                	xor    %eax,%eax
80103ecf:	8b 15 e8 3e 13 80    	mov    0x80133ee8,%edx
80103ed5:	85 d2                	test   %edx,%edx
80103ed7:	7f 0e                	jg     80103ee7 <log_write+0x57>
80103ed9:	eb 15                	jmp    80103ef0 <log_write+0x60>
80103edb:	2e 8d 74 26 00       	lea    %cs:0x0(%esi,%eiz,1),%esi
80103ee0:	83 c0 01             	add    $0x1,%eax
80103ee3:	39 c2                	cmp    %eax,%edx
80103ee5:	74 29                	je     80103f10 <log_write+0x80>
		if (log.lh.block[i] == b->blockno) // log absorbtion
80103ee7:	39 0c 85 ec 3e 13 80 	cmp    %ecx,-0x7fecc114(,%eax,4)
80103eee:	75 f0                	jne    80103ee0 <log_write+0x50>
			break;
	}
	log.lh.block[i] = b->blockno;
80103ef0:	89 0c 85 ec 3e 13 80 	mov    %ecx,-0x7fecc114(,%eax,4)
	if (i == log.lh.n)
80103ef7:	39 c2                	cmp    %eax,%edx
80103ef9:	74 1c                	je     80103f17 <log_write+0x87>
		log.lh.n++;
	b->flags |= B_DIRTY; // prevent eviction
80103efb:	83 0b 04             	orl    $0x4,(%ebx)
	release(&log.lock);
}
80103efe:	8b 5d fc             	mov    -0x4(%ebp),%ebx
	release(&log.lock);
80103f01:	c7 45 08 a0 3e 13 80 	movl   $0x80133ea0,0x8(%ebp)
}
80103f08:	c9                   	leave
	release(&log.lock);
80103f09:	e9 02 16 00 00       	jmp    80105510 <release>
80103f0e:	66 90                	xchg   %ax,%ax
	log.lh.block[i] = b->blockno;
80103f10:	89 0c 95 ec 3e 13 80 	mov    %ecx,-0x7fecc114(,%edx,4)
		log.lh.n++;
80103f17:	83 c2 01             	add    $0x1,%edx
80103f1a:	89 15 e8 3e 13 80    	mov    %edx,0x80133ee8
80103f20:	eb d9                	jmp    80103efb <log_write+0x6b>
		panic("too big a transaction");
80103f22:	83 ec 0c             	sub    $0xc,%esp
80103f25:	68 06 b4 10 80       	push   $0x8010b406
80103f2a:	e8 c1 ce ff ff       	call   80100df0 <panic>
		panic("log_write outside of trans");
80103f2f:	83 ec 0c             	sub    $0xc,%esp
80103f32:	68 1c b4 10 80       	push   $0x8010b41c
80103f37:	e8 b4 ce ff ff       	call   80100df0 <panic>
80103f3c:	66 90                	xchg   %ax,%ax
80103f3e:	66 90                	xchg   %ax,%ax

80103f40 <mpmain>:
	seginit();
	lapicinit();
	mpmain();
}

static void mpmain(void) {
80103f40:	55                   	push   %ebp
80103f41:	89 e5                	mov    %esp,%ebp
80103f43:	53                   	push   %ebx
80103f44:	83 ec 04             	sub    $0x4,%esp
	cprintf("cpu%d: starting %d\n", cpuid(), cpuid());
80103f47:	e8 84 09 00 00       	call   801048d0 <cpuid>
80103f4c:	89 c3                	mov    %eax,%ebx
80103f4e:	e8 7d 09 00 00       	call   801048d0 <cpuid>
80103f53:	83 ec 04             	sub    $0x4,%esp
80103f56:	53                   	push   %ebx
80103f57:	50                   	push   %eax
80103f58:	68 37 b4 10 80       	push   $0x8010b437
80103f5d:	e8 be d1 ff ff       	call   80101120 <cprintf>
	idtinit();
80103f62:	e8 79 2a 00 00       	call   801069e0 <idtinit>
	xchg(&(mycpu()->started), 1);
80103f67:	e8 04 09 00 00       	call   80104870 <mycpu>
80103f6c:	89 c2                	mov    %eax,%edx

static inline uint xchg(volatile uint *addr, uint newval) {
	uint result;

	// The + in "+m" denotes a read-modify-write operand.
	asm volatile("lock; xchgl %0, %1"
80103f6e:	b8 01 00 00 00       	mov    $0x1,%eax
80103f73:	f0 87 82 a0 00 00 00 	lock xchg %eax,0xa0(%edx)

	// TAMBAHAN: Init RTC di boot processor
	rtc_init();
80103f7a:	e8 d1 71 00 00       	call   8010b150 <rtc_init>

	scheduler();
80103f7f:	e8 3c 0c 00 00       	call   80104bc0 <scheduler>
80103f84:	2e 8d b4 26 00 00 00 	lea    %cs:0x0(%esi,%eiz,1),%esi
80103f8b:	00 
80103f8c:	8d 74 26 00          	lea    0x0(%esi,%eiz,1),%esi

80103f90 <mpenter>:
static void mpenter(void) {
80103f90:	55                   	push   %ebp
80103f91:	89 e5                	mov    %esp,%ebp
80103f93:	83 ec 08             	sub    $0x8,%esp
	switchkvm();
80103f96:	e8 05 31 00 00       	call   801070a0 <switchkvm>
	seginit();
80103f9b:	e8 70 30 00 00       	call   80107010 <seginit>
	lapicinit();
80103fa0:	e8 ab f7 ff ff       	call   80103750 <lapicinit>
	mpmain();
80103fa5:	e8 96 ff ff ff       	call   80103f40 <mpmain>
80103faa:	66 90                	xchg   %ax,%ax
80103fac:	66 90                	xchg   %ax,%ax
80103fae:	66 90                	xchg   %ax,%ax

80103fb0 <main>:
int main(void) {
80103fb0:	8d 4c 24 04          	lea    0x4(%esp),%ecx
80103fb4:	83 e4 f0             	and    $0xfffffff0,%esp
80103fb7:	ff 71 fc             	push   -0x4(%ecx)
80103fba:	55                   	push   %ebp
80103fbb:	89 e5                	mov    %esp,%ebp
80103fbd:	53                   	push   %ebx
80103fbe:	51                   	push   %ecx
	kinit1(end, P2V(4 * 1024 * 1024));
80103fbf:	83 ec 08             	sub    $0x8,%esp
80103fc2:	68 00 00 40 80       	push   $0x80400000
80103fc7:	68 20 79 15 80       	push   $0x80157920
80103fcc:	e8 2f f5 ff ff       	call   80103500 <kinit1>
	kvmalloc();
80103fd1:	e8 8a 35 00 00       	call   80107560 <kvmalloc>
	mpinit();
80103fd6:	e8 95 01 00 00       	call   80104170 <mpinit>
	lapicinit();
80103fdb:	e8 70 f7 ff ff       	call   80103750 <lapicinit>
	seginit();
80103fe0:	e8 2b 30 00 00       	call   80107010 <seginit>
	picinit();
80103fe5:	e8 96 03 00 00       	call   80104380 <picinit>
	ioapicinit();
80103fea:	e8 e1 f2 ff ff       	call   801032d0 <ioapicinit>
	consoleinit();
80103fef:	e8 dc d4 ff ff       	call   801014d0 <consoleinit>
	uartinit();
80103ff4:	e8 f7 2c 00 00       	call   80106cf0 <uartinit>
	mouseinit();
80103ff9:	e8 72 46 00 00       	call   80108670 <mouseinit>
	pinit();
80103ffe:	e8 4d 08 00 00       	call   80104850 <pinit>
	tvinit();
80104003:	e8 58 29 00 00       	call   80106960 <tvinit>
	binit();
80104008:	e8 a3 ca ff ff       	call   80100ab0 <binit>
	fileinit();
8010400d:	e8 8e d8 ff ff       	call   801018a0 <fileinit>
	ideinit();
80104012:	e8 19 f0 ff ff       	call   80103030 <ideinit>
	initGUI();
80104017:	e8 04 38 00 00       	call   80107820 <initGUI>
	uchar *code;
	struct cpu *c;
	char *stack;

	code = P2V(0x7000);
	memmove(code, _binary_entryother_start, (uint)_binary_entryother_size);
8010401c:	83 c4 0c             	add    $0xc,%esp
8010401f:	68 8a 00 00 00       	push   $0x8a
80104024:	68 0c f9 11 80       	push   $0x8011f90c
80104029:	68 00 70 00 80       	push   $0x80007000
8010402e:	e8 cd 16 00 00       	call   80105700 <memmove>

	for (c = cpus; c < cpus + ncpu; c++) {
80104033:	83 c4 10             	add    $0x10,%esp
80104036:	69 05 84 3f 13 80 b0 	imul   $0xb0,0x80133f84,%eax
8010403d:	00 00 00 
80104040:	05 a0 3f 13 80       	add    $0x80133fa0,%eax
80104045:	3d a0 3f 13 80       	cmp    $0x80133fa0,%eax
8010404a:	76 7c                	jbe    801040c8 <main+0x118>
8010404c:	bb a0 3f 13 80       	mov    $0x80133fa0,%ebx
80104051:	eb 1e                	jmp    80104071 <main+0xc1>
80104053:	2e 8d 74 26 00       	lea    %cs:0x0(%esi,%eiz,1),%esi
80104058:	69 05 84 3f 13 80 b0 	imul   $0xb0,0x80133f84,%eax
8010405f:	00 00 00 
80104062:	81 c3 b0 00 00 00    	add    $0xb0,%ebx
80104068:	05 a0 3f 13 80       	add    $0x80133fa0,%eax
8010406d:	39 c3                	cmp    %eax,%ebx
8010406f:	73 57                	jae    801040c8 <main+0x118>
		if (c == mycpu())
80104071:	e8 fa 07 00 00       	call   80104870 <mycpu>
80104076:	39 c3                	cmp    %eax,%ebx
80104078:	74 de                	je     80104058 <main+0xa8>
			continue;

		stack = kalloc();
8010407a:	e8 f1 f4 ff ff       	call   80103570 <kalloc>
		*(void **)(code - 4) = stack + KSTACKSIZE;
		*(void (**)(void))(code - 8) = mpenter;
		*(int **)(code - 12) = (void *)V2P(entrypgdir);

		lapicstartap(c->apicid, V2P(code));
8010407f:	83 ec 08             	sub    $0x8,%esp
		*(void (**)(void))(code - 8) = mpenter;
80104082:	c7 05 f8 6f 00 80 90 	movl   $0x80103f90,0x80006ff8
80104089:	3f 10 80 
		*(int **)(code - 12) = (void *)V2P(entrypgdir);
8010408c:	c7 05 f4 6f 00 80 00 	movl   $0x111000,0x80006ff4
80104093:	10 11 00 
		*(void **)(code - 4) = stack + KSTACKSIZE;
80104096:	05 00 10 00 00       	add    $0x1000,%eax
8010409b:	a3 fc 6f 00 80       	mov    %eax,0x80006ffc
		lapicstartap(c->apicid, V2P(code));
801040a0:	0f b6 03             	movzbl (%ebx),%eax
801040a3:	68 00 70 00 00       	push   $0x7000
801040a8:	50                   	push   %eax
801040a9:	e8 e2 f7 ff ff       	call   80103890 <lapicstartap>

		while (c->started == 0)
801040ae:	83 c4 10             	add    $0x10,%esp
801040b1:	8d b4 26 00 00 00 00 	lea    0x0(%esi,%eiz,1),%esi
801040b8:	8b 83 a0 00 00 00    	mov    0xa0(%ebx),%eax
801040be:	85 c0                	test   %eax,%eax
801040c0:	74 f6                	je     801040b8 <main+0x108>
801040c2:	eb 94                	jmp    80104058 <main+0xa8>
801040c4:	8d 74 26 00          	lea    0x0(%esi,%eiz,1),%esi
	kinit2(P2V(4 * 1024 * 1024), P2V(PHYSTOP));
801040c8:	83 ec 08             	sub    $0x8,%esp
801040cb:	68 00 00 00 88       	push   $0x88000000
801040d0:	68 00 00 40 80       	push   $0x80400000
801040d5:	e8 c6 f3 ff ff       	call   801034a0 <kinit2>
	userinit();
801040da:	e8 41 08 00 00       	call   80104920 <userinit>
	mpmain();
801040df:	e8 5c fe ff ff       	call   80103f40 <mpmain>
801040e4:	66 90                	xchg   %ax,%ax
801040e6:	66 90                	xchg   %ax,%ax
801040e8:	66 90                	xchg   %ax,%ax
801040ea:	66 90                	xchg   %ax,%ax
801040ec:	66 90                	xchg   %ax,%ax
801040ee:	66 90                	xchg   %ax,%ax

801040f0 <mpsearch1>:
		sum += addr[i];
	return sum;
}

// Look for an MP structure in the len bytes at addr.
static struct mp *mpsearch1(uint a, int len) {
801040f0:	55                   	push   %ebp
801040f1:	89 e5                	mov    %esp,%ebp
801040f3:	57                   	push   %edi
801040f4:	56                   	push   %esi
	uchar *e, *p, *addr;

	addr = P2V(a);
801040f5:	8d b0 00 00 00 80    	lea    -0x80000000(%eax),%esi
static struct mp *mpsearch1(uint a, int len) {
801040fb:	53                   	push   %ebx
	e = addr + len;
801040fc:	8d 1c 16             	lea    (%esi,%edx,1),%ebx
static struct mp *mpsearch1(uint a, int len) {
801040ff:	83 ec 0c             	sub    $0xc,%esp
	for (p = addr; p < e; p += sizeof(struct mp))
80104102:	39 de                	cmp    %ebx,%esi
80104104:	72 10                	jb     80104116 <mpsearch1+0x26>
80104106:	eb 50                	jmp    80104158 <mpsearch1+0x68>
80104108:	2e 8d b4 26 00 00 00 	lea    %cs:0x0(%esi,%eiz,1),%esi
8010410f:	00 
80104110:	89 fe                	mov    %edi,%esi
80104112:	39 df                	cmp    %ebx,%edi
80104114:	73 42                	jae    80104158 <mpsearch1+0x68>
		if (memcmp(p, "_MP_", 4) == 0 && sum(p, sizeof(struct mp)) == 0)
80104116:	83 ec 04             	sub    $0x4,%esp
80104119:	8d 7e 10             	lea    0x10(%esi),%edi
8010411c:	6a 04                	push   $0x4
8010411e:	68 4b b4 10 80       	push   $0x8010b44b
80104123:	56                   	push   %esi
80104124:	e8 87 15 00 00       	call   801056b0 <memcmp>
80104129:	83 c4 10             	add    $0x10,%esp
8010412c:	85 c0                	test   %eax,%eax
8010412e:	75 e0                	jne    80104110 <mpsearch1+0x20>
80104130:	89 f2                	mov    %esi,%edx
80104132:	8d b6 00 00 00 00    	lea    0x0(%esi),%esi
		sum += addr[i];
80104138:	0f b6 0a             	movzbl (%edx),%ecx
	for (i = 0; i < len; i++)
8010413b:	83 c2 01             	add    $0x1,%edx
		sum += addr[i];
8010413e:	01 c8                	add    %ecx,%eax
	for (i = 0; i < len; i++)
80104140:	39 fa                	cmp    %edi,%edx
80104142:	75 f4                	jne    80104138 <mpsearch1+0x48>
		if (memcmp(p, "_MP_", 4) == 0 && sum(p, sizeof(struct mp)) == 0)
80104144:	84 c0                	test   %al,%al
80104146:	75 c8                	jne    80104110 <mpsearch1+0x20>
			return (struct mp *)p;
	return 0;
}
80104148:	8d 65 f4             	lea    -0xc(%ebp),%esp
8010414b:	89 f0                	mov    %esi,%eax
8010414d:	5b                   	pop    %ebx
8010414e:	5e                   	pop    %esi
8010414f:	5f                   	pop    %edi
80104150:	5d                   	pop    %ebp
80104151:	c3                   	ret
80104152:	8d b6 00 00 00 00    	lea    0x0(%esi),%esi
80104158:	8d 65 f4             	lea    -0xc(%ebp),%esp
	return 0;
8010415b:	31 f6                	xor    %esi,%esi
}
8010415d:	5b                   	pop    %ebx
8010415e:	89 f0                	mov    %esi,%eax
80104160:	5e                   	pop    %esi
80104161:	5f                   	pop    %edi
80104162:	5d                   	pop    %ebp
80104163:	c3                   	ret
80104164:	2e 8d b4 26 00 00 00 	lea    %cs:0x0(%esi,%eiz,1),%esi
8010416b:	00 
8010416c:	8d 74 26 00          	lea    0x0(%esi,%eiz,1),%esi

80104170 <mpinit>:
		return 0;
	*pmp = mp;
	return conf;
}

void mpinit(void) {
80104170:	55                   	push   %ebp
80104171:	89 e5                	mov    %esp,%ebp
80104173:	57                   	push   %edi
80104174:	56                   	push   %esi
80104175:	53                   	push   %ebx
80104176:	83 ec 1c             	sub    $0x1c,%esp
	if ((p = ((bda[0x0F] << 8) | bda[0x0E]) << 4)) {
80104179:	0f b6 05 0f 04 00 80 	movzbl 0x8000040f,%eax
80104180:	0f b6 15 0e 04 00 80 	movzbl 0x8000040e,%edx
80104187:	c1 e0 08             	shl    $0x8,%eax
8010418a:	09 d0                	or     %edx,%eax
8010418c:	c1 e0 04             	shl    $0x4,%eax
8010418f:	75 1b                	jne    801041ac <mpinit+0x3c>
		p = ((bda[0x14] << 8) | bda[0x13]) * 1024;
80104191:	0f b6 05 14 04 00 80 	movzbl 0x80000414,%eax
80104198:	0f b6 15 13 04 00 80 	movzbl 0x80000413,%edx
8010419f:	c1 e0 08             	shl    $0x8,%eax
801041a2:	09 d0                	or     %edx,%eax
801041a4:	c1 e0 0a             	shl    $0xa,%eax
		if ((mp = mpsearch1(p - 1024, 1024)))
801041a7:	2d 00 04 00 00       	sub    $0x400,%eax
		if ((mp = mpsearch1(p, 1024)))
801041ac:	ba 00 04 00 00       	mov    $0x400,%edx
801041b1:	e8 3a ff ff ff       	call   801040f0 <mpsearch1>
801041b6:	89 c3                	mov    %eax,%ebx
801041b8:	85 c0                	test   %eax,%eax
801041ba:	0f 84 58 01 00 00    	je     80104318 <mpinit+0x1a8>
	if ((mp = mpsearch()) == 0 || mp->physaddr == 0)
801041c0:	8b 73 04             	mov    0x4(%ebx),%esi
801041c3:	85 f6                	test   %esi,%esi
801041c5:	0f 84 3d 01 00 00    	je     80104308 <mpinit+0x198>
	if (memcmp(conf, "PCMP", 4) != 0)
801041cb:	83 ec 04             	sub    $0x4,%esp
	conf = (struct mpconf *)P2V((uint)mp->physaddr);
801041ce:	8d 86 00 00 00 80    	lea    -0x80000000(%esi),%eax
801041d4:	89 45 e4             	mov    %eax,-0x1c(%ebp)
	if (memcmp(conf, "PCMP", 4) != 0)
801041d7:	6a 04                	push   $0x4
801041d9:	68 50 b4 10 80       	push   $0x8010b450
801041de:	50                   	push   %eax
801041df:	e8 cc 14 00 00       	call   801056b0 <memcmp>
801041e4:	83 c4 10             	add    $0x10,%esp
801041e7:	85 c0                	test   %eax,%eax
801041e9:	0f 85 19 01 00 00    	jne    80104308 <mpinit+0x198>
	if (conf->version != 1 && conf->version != 4)
801041ef:	0f b6 86 06 00 00 80 	movzbl -0x7ffffffa(%esi),%eax
801041f6:	3c 01                	cmp    $0x1,%al
801041f8:	74 08                	je     80104202 <mpinit+0x92>
801041fa:	3c 04                	cmp    $0x4,%al
801041fc:	0f 85 06 01 00 00    	jne    80104308 <mpinit+0x198>
	if (sum((uchar *)conf, conf->length) != 0)
80104202:	0f b7 96 04 00 00 80 	movzwl -0x7ffffffc(%esi),%edx
	for (i = 0; i < len; i++)
80104209:	66 85 d2             	test   %dx,%dx
8010420c:	74 22                	je     80104230 <mpinit+0xc0>
8010420e:	8d 3c 32             	lea    (%edx,%esi,1),%edi
80104211:	89 f0                	mov    %esi,%eax
	sum = 0;
80104213:	31 d2                	xor    %edx,%edx
80104215:	8d 76 00             	lea    0x0(%esi),%esi
		sum += addr[i];
80104218:	0f b6 88 00 00 00 80 	movzbl -0x80000000(%eax),%ecx
	for (i = 0; i < len; i++)
8010421f:	83 c0 01             	add    $0x1,%eax
		sum += addr[i];
80104222:	01 ca                	add    %ecx,%edx
	for (i = 0; i < len; i++)
80104224:	39 f8                	cmp    %edi,%eax
80104226:	75 f0                	jne    80104218 <mpinit+0xa8>
	if (sum((uchar *)conf, conf->length) != 0)
80104228:	84 d2                	test   %dl,%dl
8010422a:	0f 85 d8 00 00 00    	jne    80104308 <mpinit+0x198>
	struct mpioapic *ioapic;

	if ((conf = mpconfig(&mp)) == 0)
		panic("Expect to run on an SMP");
	ismp = 1;
	lapic = (uint *)conf->lapicaddr;
80104230:	8b 86 24 00 00 80    	mov    -0x7fffffdc(%esi),%eax
	for (p = (uchar *)(conf + 1), e = (uchar *)conf + conf->length;
80104236:	8b 7d e4             	mov    -0x1c(%ebp),%edi
80104239:	89 5d e4             	mov    %ebx,-0x1c(%ebp)
	lapic = (uint *)conf->lapicaddr;
8010423c:	a3 94 3e 13 80       	mov    %eax,0x80133e94
	for (p = (uchar *)(conf + 1), e = (uchar *)conf + conf->length;
80104241:	0f b7 96 04 00 00 80 	movzwl -0x7ffffffc(%esi),%edx
80104248:	8d 86 2c 00 00 80    	lea    -0x7fffffd4(%esi),%eax
8010424e:	01 d7                	add    %edx,%edi
80104250:	89 fa                	mov    %edi,%edx
	ismp = 1;
80104252:	bf 01 00 00 00       	mov    $0x1,%edi
80104257:	2e 8d b4 26 00 00 00 	lea    %cs:0x0(%esi,%eiz,1),%esi
8010425e:	00 
8010425f:	90                   	nop
	     p < e;) {
80104260:	39 d0                	cmp    %edx,%eax
80104262:	73 19                	jae    8010427d <mpinit+0x10d>
		switch (*p) {
80104264:	0f b6 08             	movzbl (%eax),%ecx
80104267:	80 f9 02             	cmp    $0x2,%cl
8010426a:	0f 84 80 00 00 00    	je     801042f0 <mpinit+0x180>
80104270:	77 6e                	ja     801042e0 <mpinit+0x170>
80104272:	84 c9                	test   %cl,%cl
80104274:	74 3a                	je     801042b0 <mpinit+0x140>
			p += sizeof(struct mpioapic);
			continue;
		case MPBUS:
		case MPIOINTR:
		case MPLINTR:
			p += 8;
80104276:	83 c0 08             	add    $0x8,%eax
	     p < e;) {
80104279:	39 d0                	cmp    %edx,%eax
8010427b:	72 e7                	jb     80104264 <mpinit+0xf4>
		default:
			ismp = 0;
			break;
		}
	}
	if (!ismp)
8010427d:	8b 5d e4             	mov    -0x1c(%ebp),%ebx
80104280:	85 ff                	test   %edi,%edi
80104282:	0f 84 dd 00 00 00    	je     80104365 <mpinit+0x1f5>
		panic("Didn't find a suitable machine");

	if (mp->imcrp) {
80104288:	80 7b 0c 00          	cmpb   $0x0,0xc(%ebx)
8010428c:	74 15                	je     801042a3 <mpinit+0x133>
	asm volatile("out %0,%1" : : "a"(data), "d"(port));
8010428e:	b8 70 00 00 00       	mov    $0x70,%eax
80104293:	ba 22 00 00 00       	mov    $0x22,%edx
80104298:	ee                   	out    %al,(%dx)
	asm volatile("in %1,%0" : "=a"(data) : "d"(port));
80104299:	ba 23 00 00 00       	mov    $0x23,%edx
8010429e:	ec                   	in     (%dx),%al
		// Bochs doesn't support IMCR, so this doesn't run on Bochs.
		// But it would on real hardware.
		outb(0x22, 0x70);	   // Select IMCR
		outb(0x23, inb(0x23) | 1); // Mask external interrupts.
8010429f:	83 c8 01             	or     $0x1,%eax
	asm volatile("out %0,%1" : : "a"(data), "d"(port));
801042a2:	ee                   	out    %al,(%dx)
	}
}
801042a3:	8d 65 f4             	lea    -0xc(%ebp),%esp
801042a6:	5b                   	pop    %ebx
801042a7:	5e                   	pop    %esi
801042a8:	5f                   	pop    %edi
801042a9:	5d                   	pop    %ebp
801042aa:	c3                   	ret
801042ab:	2e 8d 74 26 00       	lea    %cs:0x0(%esi,%eiz,1),%esi
			if (ncpu < NCPU) {
801042b0:	8b 0d 84 3f 13 80    	mov    0x80133f84,%ecx
801042b6:	83 f9 07             	cmp    $0x7,%ecx
801042b9:	7f 19                	jg     801042d4 <mpinit+0x164>
				cpus[ncpu].apicid =
801042bb:	69 f1 b0 00 00 00    	imul   $0xb0,%ecx,%esi
801042c1:	0f b6 58 01          	movzbl 0x1(%eax),%ebx
				ncpu++;
801042c5:	83 c1 01             	add    $0x1,%ecx
801042c8:	89 0d 84 3f 13 80    	mov    %ecx,0x80133f84
				cpus[ncpu].apicid =
801042ce:	88 9e a0 3f 13 80    	mov    %bl,-0x7fecc060(%esi)
			p += sizeof(struct mpproc);
801042d4:	83 c0 14             	add    $0x14,%eax
			continue;
801042d7:	eb 87                	jmp    80104260 <mpinit+0xf0>
801042d9:	8d b4 26 00 00 00 00 	lea    0x0(%esi,%eiz,1),%esi
		switch (*p) {
801042e0:	83 e9 03             	sub    $0x3,%ecx
801042e3:	80 f9 01             	cmp    $0x1,%cl
801042e6:	76 8e                	jbe    80104276 <mpinit+0x106>
801042e8:	31 ff                	xor    %edi,%edi
801042ea:	e9 71 ff ff ff       	jmp    80104260 <mpinit+0xf0>
801042ef:	90                   	nop
			ioapicid = ioapic->apicno;
801042f0:	0f b6 48 01          	movzbl 0x1(%eax),%ecx
			p += sizeof(struct mpioapic);
801042f4:	83 c0 08             	add    $0x8,%eax
			ioapicid = ioapic->apicno;
801042f7:	88 0d 80 3f 13 80    	mov    %cl,0x80133f80
			continue;
801042fd:	e9 5e ff ff ff       	jmp    80104260 <mpinit+0xf0>
80104302:	8d b6 00 00 00 00    	lea    0x0(%esi),%esi
		panic("Expect to run on an SMP");
80104308:	83 ec 0c             	sub    $0xc,%esp
8010430b:	68 55 b4 10 80       	push   $0x8010b455
80104310:	e8 db ca ff ff       	call   80100df0 <panic>
80104315:	8d 76 00             	lea    0x0(%esi),%esi
void mpinit(void) {
80104318:	bb 00 00 0f 80       	mov    $0x800f0000,%ebx
8010431d:	eb 0b                	jmp    8010432a <mpinit+0x1ba>
8010431f:	90                   	nop
	for (p = addr; p < e; p += sizeof(struct mp))
80104320:	89 f3                	mov    %esi,%ebx
80104322:	81 fe 00 00 10 80    	cmp    $0x80100000,%esi
80104328:	74 de                	je     80104308 <mpinit+0x198>
		if (memcmp(p, "_MP_", 4) == 0 && sum(p, sizeof(struct mp)) == 0)
8010432a:	83 ec 04             	sub    $0x4,%esp
8010432d:	8d 73 10             	lea    0x10(%ebx),%esi
80104330:	6a 04                	push   $0x4
80104332:	68 4b b4 10 80       	push   $0x8010b44b
80104337:	53                   	push   %ebx
80104338:	e8 73 13 00 00       	call   801056b0 <memcmp>
8010433d:	83 c4 10             	add    $0x10,%esp
80104340:	85 c0                	test   %eax,%eax
80104342:	75 dc                	jne    80104320 <mpinit+0x1b0>
80104344:	89 da                	mov    %ebx,%edx
80104346:	2e 8d b4 26 00 00 00 	lea    %cs:0x0(%esi,%eiz,1),%esi
8010434d:	00 
8010434e:	66 90                	xchg   %ax,%ax
		sum += addr[i];
80104350:	0f b6 0a             	movzbl (%edx),%ecx
	for (i = 0; i < len; i++)
80104353:	83 c2 01             	add    $0x1,%edx
		sum += addr[i];
80104356:	01 c8                	add    %ecx,%eax
	for (i = 0; i < len; i++)
80104358:	39 d6                	cmp    %edx,%esi
8010435a:	75 f4                	jne    80104350 <mpinit+0x1e0>
		if (memcmp(p, "_MP_", 4) == 0 && sum(p, sizeof(struct mp)) == 0)
8010435c:	84 c0                	test   %al,%al
8010435e:	75 c0                	jne    80104320 <mpinit+0x1b0>
80104360:	e9 5b fe ff ff       	jmp    801041c0 <mpinit+0x50>
		panic("Didn't find a suitable machine");
80104365:	83 ec 0c             	sub    $0xc,%esp
80104368:	68 a0 b9 10 80       	push   $0x8010b9a0
8010436d:	e8 7e ca ff ff       	call   80100df0 <panic>
80104372:	66 90                	xchg   %ax,%ax
80104374:	66 90                	xchg   %ax,%ax
80104376:	66 90                	xchg   %ax,%ax
80104378:	66 90                	xchg   %ax,%ax
8010437a:	66 90                	xchg   %ax,%ax
8010437c:	66 90                	xchg   %ax,%ax
8010437e:	66 90                	xchg   %ax,%ax

80104380 <picinit>:
80104380:	b8 ff ff ff ff       	mov    $0xffffffff,%eax
80104385:	ba 21 00 00 00       	mov    $0x21,%edx
8010438a:	ee                   	out    %al,(%dx)
8010438b:	ba a1 00 00 00       	mov    $0xa1,%edx
80104390:	ee                   	out    %al,(%dx)
// Don't use the 8259A interrupt controllers.  Xv6 assumes SMP hardware.
void picinit(void) {
	// mask all interrupts
	outb(IO_PIC1 + 1, 0xFF);
	outb(IO_PIC2 + 1, 0xFF);
}
80104391:	c3                   	ret
80104392:	66 90                	xchg   %ax,%ax
80104394:	66 90                	xchg   %ax,%ax
80104396:	66 90                	xchg   %ax,%ax
80104398:	66 90                	xchg   %ax,%ax
8010439a:	66 90                	xchg   %ax,%ax
8010439c:	66 90                	xchg   %ax,%ax
8010439e:	66 90                	xchg   %ax,%ax

801043a0 <pipealloc>:
	uint nwrite;   // number of bytes written
	int readopen;  // read fd is still open
	int writeopen; // write fd is still open
};

int pipealloc(struct file **f0, struct file **f1) {
801043a0:	55                   	push   %ebp
801043a1:	89 e5                	mov    %esp,%ebp
801043a3:	57                   	push   %edi
801043a4:	56                   	push   %esi
801043a5:	53                   	push   %ebx
801043a6:	83 ec 0c             	sub    $0xc,%esp
801043a9:	8b 75 08             	mov    0x8(%ebp),%esi
801043ac:	8b 7d 0c             	mov    0xc(%ebp),%edi
	struct pipe *p;

	p = 0;
	*f0 = *f1 = 0;
801043af:	c7 07 00 00 00 00    	movl   $0x0,(%edi)
801043b5:	c7 06 00 00 00 00    	movl   $0x0,(%esi)
	if ((*f0 = filealloc()) == 0 || (*f1 = filealloc()) == 0)
801043bb:	e8 00 d5 ff ff       	call   801018c0 <filealloc>
801043c0:	89 06                	mov    %eax,(%esi)
801043c2:	85 c0                	test   %eax,%eax
801043c4:	0f 84 a5 00 00 00    	je     8010446f <pipealloc+0xcf>
801043ca:	e8 f1 d4 ff ff       	call   801018c0 <filealloc>
801043cf:	89 07                	mov    %eax,(%edi)
801043d1:	85 c0                	test   %eax,%eax
801043d3:	0f 84 84 00 00 00    	je     8010445d <pipealloc+0xbd>
		goto bad;
	if ((p = (struct pipe *)kalloc()) == 0)
801043d9:	e8 92 f1 ff ff       	call   80103570 <kalloc>
801043de:	89 c3                	mov    %eax,%ebx
801043e0:	85 c0                	test   %eax,%eax
801043e2:	0f 84 a0 00 00 00    	je     80104488 <pipealloc+0xe8>
		goto bad;
	p->readopen = 1;
801043e8:	c7 80 3c 02 00 00 01 	movl   $0x1,0x23c(%eax)
801043ef:	00 00 00 
	p->writeopen = 1;
	p->nwrite = 0;
	p->nread = 0;
	initlock(&p->lock, "pipe");
801043f2:	83 ec 08             	sub    $0x8,%esp
	p->writeopen = 1;
801043f5:	c7 80 40 02 00 00 01 	movl   $0x1,0x240(%eax)
801043fc:	00 00 00 
	p->nwrite = 0;
801043ff:	c7 80 38 02 00 00 00 	movl   $0x0,0x238(%eax)
80104406:	00 00 00 
	p->nread = 0;
80104409:	c7 80 34 02 00 00 00 	movl   $0x0,0x234(%eax)
80104410:	00 00 00 
	initlock(&p->lock, "pipe");
80104413:	68 6d b4 10 80       	push   $0x8010b46d
80104418:	50                   	push   %eax
80104419:	e8 62 0f 00 00       	call   80105380 <initlock>
	(*f0)->type = FD_PIPE;
8010441e:	8b 06                	mov    (%esi),%eax
	(*f0)->pipe = p;
	(*f1)->type = FD_PIPE;
	(*f1)->readable = 0;
	(*f1)->writable = 1;
	(*f1)->pipe = p;
	return 0;
80104420:	83 c4 10             	add    $0x10,%esp
	(*f0)->type = FD_PIPE;
80104423:	c7 00 01 00 00 00    	movl   $0x1,(%eax)
	(*f0)->readable = 1;
80104429:	8b 06                	mov    (%esi),%eax
8010442b:	c6 40 08 01          	movb   $0x1,0x8(%eax)
	(*f0)->writable = 0;
8010442f:	8b 06                	mov    (%esi),%eax
80104431:	c6 40 09 00          	movb   $0x0,0x9(%eax)
	(*f0)->pipe = p;
80104435:	8b 06                	mov    (%esi),%eax
80104437:	89 58 0c             	mov    %ebx,0xc(%eax)
	(*f1)->type = FD_PIPE;
8010443a:	8b 07                	mov    (%edi),%eax
8010443c:	c7 00 01 00 00 00    	movl   $0x1,(%eax)
	(*f1)->readable = 0;
80104442:	8b 07                	mov    (%edi),%eax
80104444:	c6 40 08 00          	movb   $0x0,0x8(%eax)
	(*f1)->writable = 1;
80104448:	8b 07                	mov    (%edi),%eax
8010444a:	c6 40 09 01          	movb   $0x1,0x9(%eax)
	(*f1)->pipe = p;
8010444e:	8b 07                	mov    (%edi),%eax
80104450:	89 58 0c             	mov    %ebx,0xc(%eax)
	return 0;
80104453:	31 c0                	xor    %eax,%eax
	if (*f0)
		fileclose(*f0);
	if (*f1)
		fileclose(*f1);
	return -1;
}
80104455:	8d 65 f4             	lea    -0xc(%ebp),%esp
80104458:	5b                   	pop    %ebx
80104459:	5e                   	pop    %esi
8010445a:	5f                   	pop    %edi
8010445b:	5d                   	pop    %ebp
8010445c:	c3                   	ret
	if (*f0)
8010445d:	8b 06                	mov    (%esi),%eax
8010445f:	85 c0                	test   %eax,%eax
80104461:	74 1e                	je     80104481 <pipealloc+0xe1>
		fileclose(*f0);
80104463:	83 ec 0c             	sub    $0xc,%esp
80104466:	50                   	push   %eax
80104467:	e8 14 d5 ff ff       	call   80101980 <fileclose>
8010446c:	83 c4 10             	add    $0x10,%esp
	if (*f1)
8010446f:	8b 07                	mov    (%edi),%eax
80104471:	85 c0                	test   %eax,%eax
80104473:	74 0c                	je     80104481 <pipealloc+0xe1>
		fileclose(*f1);
80104475:	83 ec 0c             	sub    $0xc,%esp
80104478:	50                   	push   %eax
80104479:	e8 02 d5 ff ff       	call   80101980 <fileclose>
8010447e:	83 c4 10             	add    $0x10,%esp
	return -1;
80104481:	b8 ff ff ff ff       	mov    $0xffffffff,%eax
80104486:	eb cd                	jmp    80104455 <pipealloc+0xb5>
	if (*f0)
80104488:	8b 06                	mov    (%esi),%eax
8010448a:	85 c0                	test   %eax,%eax
8010448c:	75 d5                	jne    80104463 <pipealloc+0xc3>
8010448e:	eb df                	jmp    8010446f <pipealloc+0xcf>

80104490 <pipeclose>:

void pipeclose(struct pipe *p, int writable) {
80104490:	55                   	push   %ebp
80104491:	89 e5                	mov    %esp,%ebp
80104493:	56                   	push   %esi
80104494:	53                   	push   %ebx
80104495:	8b 5d 08             	mov    0x8(%ebp),%ebx
80104498:	8b 75 0c             	mov    0xc(%ebp),%esi
	acquire(&p->lock);
8010449b:	83 ec 0c             	sub    $0xc,%esp
8010449e:	53                   	push   %ebx
8010449f:	e8 cc 10 00 00       	call   80105570 <acquire>
	if (writable) {
801044a4:	83 c4 10             	add    $0x10,%esp
801044a7:	85 f6                	test   %esi,%esi
801044a9:	74 65                	je     80104510 <pipeclose+0x80>
		p->writeopen = 0;
		wakeup(&p->nread);
801044ab:	83 ec 0c             	sub    $0xc,%esp
801044ae:	8d 83 34 02 00 00    	lea    0x234(%ebx),%eax
		p->writeopen = 0;
801044b4:	c7 83 40 02 00 00 00 	movl   $0x0,0x240(%ebx)
801044bb:	00 00 00 
		wakeup(&p->nread);
801044be:	50                   	push   %eax
801044bf:	e8 cc 0b 00 00       	call   80105090 <wakeup>
801044c4:	83 c4 10             	add    $0x10,%esp
	} else {
		p->readopen = 0;
		wakeup(&p->nwrite);
	}
	if (p->readopen == 0 && p->writeopen == 0) {
801044c7:	8b 93 3c 02 00 00    	mov    0x23c(%ebx),%edx
801044cd:	85 d2                	test   %edx,%edx
801044cf:	75 0a                	jne    801044db <pipeclose+0x4b>
801044d1:	8b 83 40 02 00 00    	mov    0x240(%ebx),%eax
801044d7:	85 c0                	test   %eax,%eax
801044d9:	74 15                	je     801044f0 <pipeclose+0x60>
		release(&p->lock);
		kfree((char *)p);
	} else
		release(&p->lock);
801044db:	89 5d 08             	mov    %ebx,0x8(%ebp)
}
801044de:	8d 65 f8             	lea    -0x8(%ebp),%esp
801044e1:	5b                   	pop    %ebx
801044e2:	5e                   	pop    %esi
801044e3:	5d                   	pop    %ebp
		release(&p->lock);
801044e4:	e9 27 10 00 00       	jmp    80105510 <release>
801044e9:	8d b4 26 00 00 00 00 	lea    0x0(%esi,%eiz,1),%esi
		release(&p->lock);
801044f0:	83 ec 0c             	sub    $0xc,%esp
801044f3:	53                   	push   %ebx
801044f4:	e8 17 10 00 00       	call   80105510 <release>
		kfree((char *)p);
801044f9:	83 c4 10             	add    $0x10,%esp
801044fc:	89 5d 08             	mov    %ebx,0x8(%ebp)
}
801044ff:	8d 65 f8             	lea    -0x8(%ebp),%esp
80104502:	5b                   	pop    %ebx
80104503:	5e                   	pop    %esi
80104504:	5d                   	pop    %ebp
		kfree((char *)p);
80104505:	e9 a6 ee ff ff       	jmp    801033b0 <kfree>
8010450a:	8d b6 00 00 00 00    	lea    0x0(%esi),%esi
		wakeup(&p->nwrite);
80104510:	83 ec 0c             	sub    $0xc,%esp
80104513:	8d 83 38 02 00 00    	lea    0x238(%ebx),%eax
		p->readopen = 0;
80104519:	c7 83 3c 02 00 00 00 	movl   $0x0,0x23c(%ebx)
80104520:	00 00 00 
		wakeup(&p->nwrite);
80104523:	50                   	push   %eax
80104524:	e8 67 0b 00 00       	call   80105090 <wakeup>
80104529:	83 c4 10             	add    $0x10,%esp
8010452c:	eb 99                	jmp    801044c7 <pipeclose+0x37>
8010452e:	66 90                	xchg   %ax,%ax

80104530 <pipewrite>:

// PAGEBREAK: 40
int pipewrite(struct pipe *p, char *addr, int n) {
80104530:	55                   	push   %ebp
80104531:	89 e5                	mov    %esp,%ebp
80104533:	57                   	push   %edi
80104534:	56                   	push   %esi
80104535:	53                   	push   %ebx
80104536:	83 ec 28             	sub    $0x28,%esp
80104539:	8b 5d 08             	mov    0x8(%ebp),%ebx
8010453c:	8b 7d 10             	mov    0x10(%ebp),%edi
	int i;

	acquire(&p->lock);
8010453f:	53                   	push   %ebx
80104540:	e8 2b 10 00 00       	call   80105570 <acquire>
	for (i = 0; i < n; i++) {
80104545:	83 c4 10             	add    $0x10,%esp
80104548:	85 ff                	test   %edi,%edi
8010454a:	0f 8e ce 00 00 00    	jle    8010461e <pipewrite+0xee>
		while (p->nwrite == p->nread + PIPESIZE) { // DOC:
80104550:	8b 83 38 02 00 00    	mov    0x238(%ebx),%eax
80104556:	8b 4d 0c             	mov    0xc(%ebp),%ecx
80104559:	89 7d 10             	mov    %edi,0x10(%ebp)
8010455c:	89 45 e4             	mov    %eax,-0x1c(%ebp)
8010455f:	8d 34 39             	lea    (%ecx,%edi,1),%esi
80104562:	89 75 e0             	mov    %esi,-0x20(%ebp)
							   // pipewrite-full
			if (p->readopen == 0 || myproc()->killed) {
				release(&p->lock);
				return -1;
			}
			wakeup(&p->nread);
80104565:	8d b3 34 02 00 00    	lea    0x234(%ebx),%esi
		while (p->nwrite == p->nread + PIPESIZE) { // DOC:
8010456b:	8b 83 34 02 00 00    	mov    0x234(%ebx),%eax
			sleep(&p->nwrite, &p->lock); // DOC: pipewrite-sleep
80104571:	8d bb 38 02 00 00    	lea    0x238(%ebx),%edi
		while (p->nwrite == p->nread + PIPESIZE) { // DOC:
80104577:	8d 90 00 02 00 00    	lea    0x200(%eax),%edx
8010457d:	39 55 e4             	cmp    %edx,-0x1c(%ebp)
80104580:	0f 85 b6 00 00 00    	jne    8010463c <pipewrite+0x10c>
80104586:	89 4d e4             	mov    %ecx,-0x1c(%ebp)
80104589:	eb 3b                	jmp    801045c6 <pipewrite+0x96>
8010458b:	2e 8d 74 26 00       	lea    %cs:0x0(%esi,%eiz,1),%esi
			if (p->readopen == 0 || myproc()->killed) {
80104590:	e8 5b 03 00 00       	call   801048f0 <myproc>
80104595:	8b 48 24             	mov    0x24(%eax),%ecx
80104598:	85 c9                	test   %ecx,%ecx
8010459a:	75 34                	jne    801045d0 <pipewrite+0xa0>
			wakeup(&p->nread);
8010459c:	83 ec 0c             	sub    $0xc,%esp
8010459f:	56                   	push   %esi
801045a0:	e8 eb 0a 00 00       	call   80105090 <wakeup>
			sleep(&p->nwrite, &p->lock); // DOC: pipewrite-sleep
801045a5:	58                   	pop    %eax
801045a6:	5a                   	pop    %edx
801045a7:	53                   	push   %ebx
801045a8:	57                   	push   %edi
801045a9:	e8 22 0a 00 00       	call   80104fd0 <sleep>
		while (p->nwrite == p->nread + PIPESIZE) { // DOC:
801045ae:	8b 83 34 02 00 00    	mov    0x234(%ebx),%eax
801045b4:	8b 93 38 02 00 00    	mov    0x238(%ebx),%edx
801045ba:	83 c4 10             	add    $0x10,%esp
801045bd:	05 00 02 00 00       	add    $0x200,%eax
801045c2:	39 c2                	cmp    %eax,%edx
801045c4:	75 2a                	jne    801045f0 <pipewrite+0xc0>
			if (p->readopen == 0 || myproc()->killed) {
801045c6:	8b 83 3c 02 00 00    	mov    0x23c(%ebx),%eax
801045cc:	85 c0                	test   %eax,%eax
801045ce:	75 c0                	jne    80104590 <pipewrite+0x60>
				release(&p->lock);
801045d0:	83 ec 0c             	sub    $0xc,%esp
801045d3:	53                   	push   %ebx
801045d4:	e8 37 0f 00 00       	call   80105510 <release>
				return -1;
801045d9:	83 c4 10             	add    $0x10,%esp
801045dc:	b8 ff ff ff ff       	mov    $0xffffffff,%eax
		p->data[p->nwrite++ % PIPESIZE] = addr[i];
	}
	wakeup(&p->nread); // DOC: pipewrite-wakeup1
	release(&p->lock);
	return n;
}
801045e1:	8d 65 f4             	lea    -0xc(%ebp),%esp
801045e4:	5b                   	pop    %ebx
801045e5:	5e                   	pop    %esi
801045e6:	5f                   	pop    %edi
801045e7:	5d                   	pop    %ebp
801045e8:	c3                   	ret
801045e9:	8d b4 26 00 00 00 00 	lea    0x0(%esi,%eiz,1),%esi
801045f0:	8b 4d e4             	mov    -0x1c(%ebp),%ecx
		p->data[p->nwrite++ % PIPESIZE] = addr[i];
801045f3:	8d 42 01             	lea    0x1(%edx),%eax
801045f6:	81 e2 ff 01 00 00    	and    $0x1ff,%edx
	for (i = 0; i < n; i++) {
801045fc:	83 c1 01             	add    $0x1,%ecx
		p->data[p->nwrite++ % PIPESIZE] = addr[i];
801045ff:	89 83 38 02 00 00    	mov    %eax,0x238(%ebx)
80104605:	89 45 e4             	mov    %eax,-0x1c(%ebp)
80104608:	0f b6 41 ff          	movzbl -0x1(%ecx),%eax
8010460c:	88 44 13 34          	mov    %al,0x34(%ebx,%edx,1)
	for (i = 0; i < n; i++) {
80104610:	8b 45 e0             	mov    -0x20(%ebp),%eax
80104613:	39 c1                	cmp    %eax,%ecx
80104615:	0f 85 50 ff ff ff    	jne    8010456b <pipewrite+0x3b>
8010461b:	8b 7d 10             	mov    0x10(%ebp),%edi
	wakeup(&p->nread); // DOC: pipewrite-wakeup1
8010461e:	83 ec 0c             	sub    $0xc,%esp
80104621:	8d 83 34 02 00 00    	lea    0x234(%ebx),%eax
80104627:	50                   	push   %eax
80104628:	e8 63 0a 00 00       	call   80105090 <wakeup>
	release(&p->lock);
8010462d:	89 1c 24             	mov    %ebx,(%esp)
80104630:	e8 db 0e 00 00       	call   80105510 <release>
	return n;
80104635:	83 c4 10             	add    $0x10,%esp
80104638:	89 f8                	mov    %edi,%eax
8010463a:	eb a5                	jmp    801045e1 <pipewrite+0xb1>
		while (p->nwrite == p->nread + PIPESIZE) { // DOC:
8010463c:	8b 55 e4             	mov    -0x1c(%ebp),%edx
8010463f:	eb b2                	jmp    801045f3 <pipewrite+0xc3>
80104641:	2e 8d b4 26 00 00 00 	lea    %cs:0x0(%esi,%eiz,1),%esi
80104648:	00 
80104649:	8d b4 26 00 00 00 00 	lea    0x0(%esi,%eiz,1),%esi

80104650 <piperead>:

int piperead(struct pipe *p, char *addr, int n) {
80104650:	55                   	push   %ebp
80104651:	89 e5                	mov    %esp,%ebp
80104653:	57                   	push   %edi
80104654:	56                   	push   %esi
80104655:	53                   	push   %ebx
80104656:	83 ec 18             	sub    $0x18,%esp
80104659:	8b 75 08             	mov    0x8(%ebp),%esi
8010465c:	8b 7d 0c             	mov    0xc(%ebp),%edi
	int i;

	acquire(&p->lock);
8010465f:	56                   	push   %esi
80104660:	8d 9e 34 02 00 00    	lea    0x234(%esi),%ebx
80104666:	e8 05 0f 00 00       	call   80105570 <acquire>
	while (p->nread == p->nwrite && p->writeopen) { // DOC: pipe-empty
8010466b:	8b 86 34 02 00 00    	mov    0x234(%esi),%eax
80104671:	83 c4 10             	add    $0x10,%esp
80104674:	3b 86 38 02 00 00    	cmp    0x238(%esi),%eax
8010467a:	74 2f                	je     801046ab <piperead+0x5b>
8010467c:	eb 37                	jmp    801046b5 <piperead+0x65>
8010467e:	66 90                	xchg   %ax,%ax
		if (myproc()->killed) {
80104680:	e8 6b 02 00 00       	call   801048f0 <myproc>
80104685:	8b 40 24             	mov    0x24(%eax),%eax
80104688:	85 c0                	test   %eax,%eax
8010468a:	0f 85 80 00 00 00    	jne    80104710 <piperead+0xc0>
			release(&p->lock);
			return -1;
		}
		sleep(&p->nread, &p->lock); // DOC: piperead-sleep
80104690:	83 ec 08             	sub    $0x8,%esp
80104693:	56                   	push   %esi
80104694:	53                   	push   %ebx
80104695:	e8 36 09 00 00       	call   80104fd0 <sleep>
	while (p->nread == p->nwrite && p->writeopen) { // DOC: pipe-empty
8010469a:	8b 86 34 02 00 00    	mov    0x234(%esi),%eax
801046a0:	83 c4 10             	add    $0x10,%esp
801046a3:	3b 86 38 02 00 00    	cmp    0x238(%esi),%eax
801046a9:	75 0a                	jne    801046b5 <piperead+0x65>
801046ab:	8b 96 40 02 00 00    	mov    0x240(%esi),%edx
801046b1:	85 d2                	test   %edx,%edx
801046b3:	75 cb                	jne    80104680 <piperead+0x30>
	}
	for (i = 0; i < n; i++) { // DOC: piperead-copy
801046b5:	8b 4d 10             	mov    0x10(%ebp),%ecx
801046b8:	31 db                	xor    %ebx,%ebx
801046ba:	85 c9                	test   %ecx,%ecx
801046bc:	7f 26                	jg     801046e4 <piperead+0x94>
801046be:	eb 2c                	jmp    801046ec <piperead+0x9c>
		if (p->nread == p->nwrite)
			break;
		addr[i] = p->data[p->nread++ % PIPESIZE];
801046c0:	8d 48 01             	lea    0x1(%eax),%ecx
801046c3:	25 ff 01 00 00       	and    $0x1ff,%eax
801046c8:	89 8e 34 02 00 00    	mov    %ecx,0x234(%esi)
801046ce:	0f b6 44 06 34       	movzbl 0x34(%esi,%eax,1),%eax
801046d3:	88 04 1f             	mov    %al,(%edi,%ebx,1)
	for (i = 0; i < n; i++) { // DOC: piperead-copy
801046d6:	83 c3 01             	add    $0x1,%ebx
801046d9:	39 5d 10             	cmp    %ebx,0x10(%ebp)
801046dc:	74 0e                	je     801046ec <piperead+0x9c>
801046de:	8b 86 34 02 00 00    	mov    0x234(%esi),%eax
		if (p->nread == p->nwrite)
801046e4:	3b 86 38 02 00 00    	cmp    0x238(%esi),%eax
801046ea:	75 d4                	jne    801046c0 <piperead+0x70>
	}
	wakeup(&p->nwrite); // DOC: piperead-wakeup
801046ec:	83 ec 0c             	sub    $0xc,%esp
801046ef:	8d 86 38 02 00 00    	lea    0x238(%esi),%eax
801046f5:	50                   	push   %eax
801046f6:	e8 95 09 00 00       	call   80105090 <wakeup>
	release(&p->lock);
801046fb:	89 34 24             	mov    %esi,(%esp)
801046fe:	e8 0d 0e 00 00       	call   80105510 <release>
	return i;
80104703:	83 c4 10             	add    $0x10,%esp
}
80104706:	8d 65 f4             	lea    -0xc(%ebp),%esp
80104709:	89 d8                	mov    %ebx,%eax
8010470b:	5b                   	pop    %ebx
8010470c:	5e                   	pop    %esi
8010470d:	5f                   	pop    %edi
8010470e:	5d                   	pop    %ebp
8010470f:	c3                   	ret
			release(&p->lock);
80104710:	83 ec 0c             	sub    $0xc,%esp
			return -1;
80104713:	bb ff ff ff ff       	mov    $0xffffffff,%ebx
			release(&p->lock);
80104718:	56                   	push   %esi
80104719:	e8 f2 0d 00 00       	call   80105510 <release>
			return -1;
8010471e:	83 c4 10             	add    $0x10,%esp
}
80104721:	8d 65 f4             	lea    -0xc(%ebp),%esp
80104724:	89 d8                	mov    %ebx,%eax
80104726:	5b                   	pop    %ebx
80104727:	5e                   	pop    %esi
80104728:	5f                   	pop    %edi
80104729:	5d                   	pop    %ebp
8010472a:	c3                   	ret
8010472b:	66 90                	xchg   %ax,%ax
8010472d:	66 90                	xchg   %ax,%ax
8010472f:	90                   	nop

80104730 <allocproc>:
// PAGEBREAK: 32
// Look in the process table for an UNUSED proc.
// If found, change state to EMBRYO and initialize
// state required to run in the kernel.
// Otherwise return 0.
static struct proc *allocproc(void) {
80104730:	55                   	push   %ebp
80104731:	89 e5                	mov    %esp,%ebp
80104733:	53                   	push   %ebx
	struct proc *p;
	char *sp;

	acquire(&ptable.lock);

	for (p = ptable.proc; p < &ptable.proc[NPROC]; p++)
80104734:	bb 54 45 13 80       	mov    $0x80134554,%ebx
static struct proc *allocproc(void) {
80104739:	83 ec 10             	sub    $0x10,%esp
	acquire(&ptable.lock);
8010473c:	68 20 45 13 80       	push   $0x80134520
80104741:	e8 2a 0e 00 00       	call   80105570 <acquire>
80104746:	83 c4 10             	add    $0x10,%esp
80104749:	eb 13                	jmp    8010475e <allocproc+0x2e>
8010474b:	2e 8d 74 26 00       	lea    %cs:0x0(%esi,%eiz,1),%esi
	for (p = ptable.proc; p < &ptable.proc[NPROC]; p++)
80104750:	81 c3 3c 01 00 00    	add    $0x13c,%ebx
80104756:	81 fb 54 94 13 80    	cmp    $0x80139454,%ebx
8010475c:	74 7a                	je     801047d8 <allocproc+0xa8>
		if (p->state == UNUSED)
8010475e:	8b 43 0c             	mov    0xc(%ebx),%eax
80104761:	85 c0                	test   %eax,%eax
80104763:	75 eb                	jne    80104750 <allocproc+0x20>
	release(&ptable.lock);
	return 0;

found:
	p->state = EMBRYO;
	p->pid = nextpid++;
80104765:	a1 04 20 11 80       	mov    0x80112004,%eax

	release(&ptable.lock);
8010476a:	83 ec 0c             	sub    $0xc,%esp
	p->state = EMBRYO;
8010476d:	c7 43 0c 01 00 00 00 	movl   $0x1,0xc(%ebx)
	p->pid = nextpid++;
80104774:	89 43 10             	mov    %eax,0x10(%ebx)
80104777:	8d 50 01             	lea    0x1(%eax),%edx
	release(&ptable.lock);
8010477a:	68 20 45 13 80       	push   $0x80134520
	p->pid = nextpid++;
8010477f:	89 15 04 20 11 80    	mov    %edx,0x80112004
	release(&ptable.lock);
80104785:	e8 86 0d 00 00       	call   80105510 <release>

	// Allocate kernel stack.
	if ((p->kstack = kalloc()) == 0) {
8010478a:	e8 e1 ed ff ff       	call   80103570 <kalloc>
8010478f:	83 c4 10             	add    $0x10,%esp
80104792:	89 43 08             	mov    %eax,0x8(%ebx)
80104795:	85 c0                	test   %eax,%eax
80104797:	74 58                	je     801047f1 <allocproc+0xc1>
		return 0;
	}
	sp = p->kstack + KSTACKSIZE;

	// Leave room for trap frame.
	sp -= sizeof *p->tf;
80104799:	8d 90 b4 0f 00 00    	lea    0xfb4(%eax),%edx
	sp -= 4;
	*(uint *)sp = (uint)trapret;

	sp -= sizeof *p->context;
	p->context = (struct context *)sp;
	memset(p->context, 0, sizeof *p->context);
8010479f:	83 ec 04             	sub    $0x4,%esp
	sp -= sizeof *p->context;
801047a2:	05 9c 0f 00 00       	add    $0xf9c,%eax
	sp -= sizeof *p->tf;
801047a7:	89 53 18             	mov    %edx,0x18(%ebx)
	*(uint *)sp = (uint)trapret;
801047aa:	c7 40 14 4f 69 10 80 	movl   $0x8010694f,0x14(%eax)
	p->context = (struct context *)sp;
801047b1:	89 43 1c             	mov    %eax,0x1c(%ebx)
	memset(p->context, 0, sizeof *p->context);
801047b4:	6a 14                	push   $0x14
801047b6:	6a 00                	push   $0x0
801047b8:	50                   	push   %eax
801047b9:	e8 b2 0e 00 00       	call   80105670 <memset>
	p->context->eip = (uint)forkret;
801047be:	8b 43 1c             	mov    0x1c(%ebx),%eax

	return p;
801047c1:	83 c4 10             	add    $0x10,%esp
	p->context->eip = (uint)forkret;
801047c4:	c7 40 10 00 48 10 80 	movl   $0x80104800,0x10(%eax)
}
801047cb:	89 d8                	mov    %ebx,%eax
801047cd:	8b 5d fc             	mov    -0x4(%ebp),%ebx
801047d0:	c9                   	leave
801047d1:	c3                   	ret
801047d2:	8d b6 00 00 00 00    	lea    0x0(%esi),%esi
	release(&ptable.lock);
801047d8:	83 ec 0c             	sub    $0xc,%esp
	return 0;
801047db:	31 db                	xor    %ebx,%ebx
	release(&ptable.lock);
801047dd:	68 20 45 13 80       	push   $0x80134520
801047e2:	e8 29 0d 00 00       	call   80105510 <release>
	return 0;
801047e7:	83 c4 10             	add    $0x10,%esp
}
801047ea:	89 d8                	mov    %ebx,%eax
801047ec:	8b 5d fc             	mov    -0x4(%ebp),%ebx
801047ef:	c9                   	leave
801047f0:	c3                   	ret
		p->state = UNUSED;
801047f1:	c7 43 0c 00 00 00 00 	movl   $0x0,0xc(%ebx)
	return 0;
801047f8:	31 db                	xor    %ebx,%ebx
801047fa:	eb ee                	jmp    801047ea <allocproc+0xba>
801047fc:	8d 74 26 00          	lea    0x0(%esi,%eiz,1),%esi

80104800 <forkret>:
	release(&ptable.lock);
}

// A fork child's very first scheduling by scheduler()
// will swtch here.  "Return" to user space.
void forkret(void) {
80104800:	55                   	push   %ebp
80104801:	89 e5                	mov    %esp,%ebp
80104803:	83 ec 14             	sub    $0x14,%esp
	static int first = 1;
	// Still holding ptable.lock from scheduler.
	release(&ptable.lock);
80104806:	68 20 45 13 80       	push   $0x80134520
8010480b:	e8 00 0d 00 00       	call   80105510 <release>

	if (first) {
80104810:	a1 00 20 11 80       	mov    0x80112000,%eax
80104815:	83 c4 10             	add    $0x10,%esp
80104818:	85 c0                	test   %eax,%eax
8010481a:	75 04                	jne    80104820 <forkret+0x20>
		iinit(ROOTDEV);
		initlog(ROOTDEV);
	}

	// Return to "caller", actually trapret (see allocproc).
}
8010481c:	c9                   	leave
8010481d:	c3                   	ret
8010481e:	66 90                	xchg   %ax,%ax
		first = 0;
80104820:	c7 05 00 20 11 80 00 	movl   $0x0,0x80112000
80104827:	00 00 00 
		iinit(ROOTDEV);
8010482a:	83 ec 0c             	sub    $0xc,%esp
8010482d:	6a 01                	push   $0x1
8010482f:	e8 5c d9 ff ff       	call   80102190 <iinit>
		initlog(ROOTDEV);
80104834:	c7 04 24 01 00 00 00 	movl   $0x1,(%esp)
8010483b:	e8 d0 f3 ff ff       	call   80103c10 <initlog>
}
80104840:	83 c4 10             	add    $0x10,%esp
80104843:	c9                   	leave
80104844:	c3                   	ret
80104845:	2e 8d b4 26 00 00 00 	lea    %cs:0x0(%esi,%eiz,1),%esi
8010484c:	00 
8010484d:	8d 76 00             	lea    0x0(%esi),%esi

80104850 <pinit>:
void pinit(void) { initlock(&ptable.lock, "ptable"); }
80104850:	55                   	push   %ebp
80104851:	89 e5                	mov    %esp,%ebp
80104853:	83 ec 10             	sub    $0x10,%esp
80104856:	68 72 b4 10 80       	push   $0x8010b472
8010485b:	68 20 45 13 80       	push   $0x80134520
80104860:	e8 1b 0b 00 00       	call   80105380 <initlock>
80104865:	83 c4 10             	add    $0x10,%esp
80104868:	c9                   	leave
80104869:	c3                   	ret
8010486a:	8d b6 00 00 00 00    	lea    0x0(%esi),%esi

80104870 <mycpu>:
struct cpu *mycpu(void) {
80104870:	55                   	push   %ebp
80104871:	89 e5                	mov    %esp,%ebp
80104873:	56                   	push   %esi
80104874:	53                   	push   %ebx
	asm volatile("pushfl; popl %0" : "=r"(eflags));
80104875:	9c                   	pushf
80104876:	58                   	pop    %eax
	if (readeflags() & FL_IF)
80104877:	f6 c4 02             	test   $0x2,%ah
8010487a:	75 46                	jne    801048c2 <mycpu+0x52>
	apicid = lapicid();
8010487c:	e8 bf ef ff ff       	call   80103840 <lapicid>
	for (i = 0; i < ncpu; ++i) {
80104881:	8b 35 84 3f 13 80    	mov    0x80133f84,%esi
80104887:	85 f6                	test   %esi,%esi
80104889:	7e 2a                	jle    801048b5 <mycpu+0x45>
8010488b:	31 d2                	xor    %edx,%edx
8010488d:	eb 08                	jmp    80104897 <mycpu+0x27>
8010488f:	90                   	nop
80104890:	83 c2 01             	add    $0x1,%edx
80104893:	39 f2                	cmp    %esi,%edx
80104895:	74 1e                	je     801048b5 <mycpu+0x45>
		if (cpus[i].apicid == apicid)
80104897:	69 ca b0 00 00 00    	imul   $0xb0,%edx,%ecx
8010489d:	0f b6 99 a0 3f 13 80 	movzbl -0x7fecc060(%ecx),%ebx
801048a4:	39 c3                	cmp    %eax,%ebx
801048a6:	75 e8                	jne    80104890 <mycpu+0x20>
}
801048a8:	8d 65 f8             	lea    -0x8(%ebp),%esp
			return &cpus[i];
801048ab:	8d 81 a0 3f 13 80    	lea    -0x7fecc060(%ecx),%eax
}
801048b1:	5b                   	pop    %ebx
801048b2:	5e                   	pop    %esi
801048b3:	5d                   	pop    %ebp
801048b4:	c3                   	ret
	panic("unknown apicid\n");
801048b5:	83 ec 0c             	sub    $0xc,%esp
801048b8:	68 79 b4 10 80       	push   $0x8010b479
801048bd:	e8 2e c5 ff ff       	call   80100df0 <panic>
		panic("mycpu called with interrupts enabled\n");
801048c2:	83 ec 0c             	sub    $0xc,%esp
801048c5:	68 c0 b9 10 80       	push   $0x8010b9c0
801048ca:	e8 21 c5 ff ff       	call   80100df0 <panic>
801048cf:	90                   	nop

801048d0 <cpuid>:
int cpuid() { return mycpu() - cpus; }
801048d0:	55                   	push   %ebp
801048d1:	89 e5                	mov    %esp,%ebp
801048d3:	83 ec 08             	sub    $0x8,%esp
801048d6:	e8 95 ff ff ff       	call   80104870 <mycpu>
801048db:	c9                   	leave
801048dc:	2d a0 3f 13 80       	sub    $0x80133fa0,%eax
801048e1:	c1 f8 04             	sar    $0x4,%eax
801048e4:	69 c0 a3 8b 2e ba    	imul   $0xba2e8ba3,%eax,%eax
801048ea:	c3                   	ret
801048eb:	2e 8d 74 26 00       	lea    %cs:0x0(%esi,%eiz,1),%esi

801048f0 <myproc>:
struct proc *myproc(void) {
801048f0:	55                   	push   %ebp
801048f1:	89 e5                	mov    %esp,%ebp
801048f3:	53                   	push   %ebx
801048f4:	83 ec 04             	sub    $0x4,%esp
	pushcli();
801048f7:	e8 24 0b 00 00       	call   80105420 <pushcli>
	c = mycpu();
801048fc:	e8 6f ff ff ff       	call   80104870 <mycpu>
	p = c->proc;
80104901:	8b 98 ac 00 00 00    	mov    0xac(%eax),%ebx
	popcli();
80104907:	e8 64 0b 00 00       	call   80105470 <popcli>
}
8010490c:	89 d8                	mov    %ebx,%eax
8010490e:	8b 5d fc             	mov    -0x4(%ebp),%ebx
80104911:	c9                   	leave
80104912:	c3                   	ret
80104913:	2e 8d b4 26 00 00 00 	lea    %cs:0x0(%esi,%eiz,1),%esi
8010491a:	00 
8010491b:	2e 8d 74 26 00       	lea    %cs:0x0(%esi,%eiz,1),%esi

80104920 <userinit>:
void userinit(void) {
80104920:	55                   	push   %ebp
80104921:	89 e5                	mov    %esp,%ebp
80104923:	53                   	push   %ebx
80104924:	83 ec 04             	sub    $0x4,%esp
	p = allocproc();
80104927:	e8 04 fe ff ff       	call   80104730 <allocproc>
8010492c:	89 c3                	mov    %eax,%ebx
	initproc = p;
8010492e:	a3 54 94 13 80       	mov    %eax,0x80139454
	if ((p->pgdir = setupkvm()) == 0)
80104933:	e8 a8 2b 00 00       	call   801074e0 <setupkvm>
80104938:	89 43 04             	mov    %eax,0x4(%ebx)
8010493b:	85 c0                	test   %eax,%eax
8010493d:	0f 84 c3 00 00 00    	je     80104a06 <userinit+0xe6>
	inituvm(p->pgdir, _binary_initcode_start, (int)_binary_initcode_size);
80104943:	83 ec 04             	sub    $0x4,%esp
80104946:	68 2c 00 00 00       	push   $0x2c
8010494b:	68 e0 f8 11 80       	push   $0x8011f8e0
80104950:	50                   	push   %eax
80104951:	e8 6a 28 00 00       	call   801071c0 <inituvm>
	memset(p->tf, 0, sizeof(*p->tf));
80104956:	83 c4 0c             	add    $0xc,%esp
	p->sz = PGSIZE;
80104959:	c7 03 00 10 00 00    	movl   $0x1000,(%ebx)
	memset(p->tf, 0, sizeof(*p->tf));
8010495f:	6a 4c                	push   $0x4c
80104961:	6a 00                	push   $0x0
80104963:	ff 73 18             	push   0x18(%ebx)
80104966:	e8 05 0d 00 00       	call   80105670 <memset>
	p->tf->cs = (SEG_UCODE << 3) | DPL_USER;
8010496b:	8b 43 18             	mov    0x18(%ebx),%eax
8010496e:	ba 1b 00 00 00       	mov    $0x1b,%edx
	safestrcpy(p->name, "initcode", sizeof(p->name));
80104973:	83 c4 0c             	add    $0xc,%esp
	p->tf->ds = (SEG_UDATA << 3) | DPL_USER;
80104976:	b9 23 00 00 00       	mov    $0x23,%ecx
	p->tf->cs = (SEG_UCODE << 3) | DPL_USER;
8010497b:	66 89 50 3c          	mov    %dx,0x3c(%eax)
	p->tf->ds = (SEG_UDATA << 3) | DPL_USER;
8010497f:	8b 43 18             	mov    0x18(%ebx),%eax
80104982:	66 89 48 2c          	mov    %cx,0x2c(%eax)
	p->tf->es = p->tf->ds;
80104986:	8b 43 18             	mov    0x18(%ebx),%eax
80104989:	0f b7 50 2c          	movzwl 0x2c(%eax),%edx
8010498d:	66 89 50 28          	mov    %dx,0x28(%eax)
	p->tf->ss = p->tf->ds;
80104991:	8b 43 18             	mov    0x18(%ebx),%eax
80104994:	0f b7 50 2c          	movzwl 0x2c(%eax),%edx
80104998:	66 89 50 48          	mov    %dx,0x48(%eax)
	p->tf->eflags = FL_IF;
8010499c:	8b 43 18             	mov    0x18(%ebx),%eax
8010499f:	c7 40 40 00 02 00 00 	movl   $0x200,0x40(%eax)
	p->tf->esp = PGSIZE;
801049a6:	8b 43 18             	mov    0x18(%ebx),%eax
801049a9:	c7 40 44 00 10 00 00 	movl   $0x1000,0x44(%eax)
	p->tf->eip = 0; // beginning of initcode.S
801049b0:	8b 43 18             	mov    0x18(%ebx),%eax
801049b3:	c7 40 38 00 00 00 00 	movl   $0x0,0x38(%eax)
	safestrcpy(p->name, "initcode", sizeof(p->name));
801049ba:	8d 83 2c 01 00 00    	lea    0x12c(%ebx),%eax
801049c0:	6a 10                	push   $0x10
801049c2:	68 a2 b4 10 80       	push   $0x8010b4a2
801049c7:	50                   	push   %eax
801049c8:	e8 53 0e 00 00       	call   80105820 <safestrcpy>
	p->cwd = namei("/");
801049cd:	c7 04 24 ab b4 10 80 	movl   $0x8010b4ab,(%esp)
801049d4:	e8 07 e5 ff ff       	call   80102ee0 <namei>
801049d9:	89 83 28 01 00 00    	mov    %eax,0x128(%ebx)
	acquire(&ptable.lock);
801049df:	c7 04 24 20 45 13 80 	movl   $0x80134520,(%esp)
801049e6:	e8 85 0b 00 00       	call   80105570 <acquire>
	p->state = RUNNABLE;
801049eb:	c7 43 0c 03 00 00 00 	movl   $0x3,0xc(%ebx)
	release(&ptable.lock);
801049f2:	c7 04 24 20 45 13 80 	movl   $0x80134520,(%esp)
801049f9:	e8 12 0b 00 00       	call   80105510 <release>
}
801049fe:	8b 5d fc             	mov    -0x4(%ebp),%ebx
80104a01:	83 c4 10             	add    $0x10,%esp
80104a04:	c9                   	leave
80104a05:	c3                   	ret
		panic("userinit: out of memory?");
80104a06:	83 ec 0c             	sub    $0xc,%esp
80104a09:	68 89 b4 10 80       	push   $0x8010b489
80104a0e:	e8 dd c3 ff ff       	call   80100df0 <panic>
80104a13:	2e 8d b4 26 00 00 00 	lea    %cs:0x0(%esi,%eiz,1),%esi
80104a1a:	00 
80104a1b:	2e 8d 74 26 00       	lea    %cs:0x0(%esi,%eiz,1),%esi

80104a20 <growproc>:
int growproc(int n) {
80104a20:	55                   	push   %ebp
80104a21:	89 e5                	mov    %esp,%ebp
80104a23:	56                   	push   %esi
80104a24:	53                   	push   %ebx
80104a25:	8b 75 08             	mov    0x8(%ebp),%esi
	pushcli();
80104a28:	e8 f3 09 00 00       	call   80105420 <pushcli>
	c = mycpu();
80104a2d:	e8 3e fe ff ff       	call   80104870 <mycpu>
	p = c->proc;
80104a32:	8b 98 ac 00 00 00    	mov    0xac(%eax),%ebx
	popcli();
80104a38:	e8 33 0a 00 00       	call   80105470 <popcli>
	sz = curproc->sz;
80104a3d:	8b 03                	mov    (%ebx),%eax
	if (n > 0) {
80104a3f:	85 f6                	test   %esi,%esi
80104a41:	7f 1d                	jg     80104a60 <growproc+0x40>
	} else if (n < 0) {
80104a43:	75 3b                	jne    80104a80 <growproc+0x60>
	switchuvm(curproc);
80104a45:	83 ec 0c             	sub    $0xc,%esp
	curproc->sz = sz;
80104a48:	89 03                	mov    %eax,(%ebx)
	switchuvm(curproc);
80104a4a:	53                   	push   %ebx
80104a4b:	e8 60 26 00 00       	call   801070b0 <switchuvm>
	return 0;
80104a50:	83 c4 10             	add    $0x10,%esp
80104a53:	31 c0                	xor    %eax,%eax
}
80104a55:	8d 65 f8             	lea    -0x8(%ebp),%esp
80104a58:	5b                   	pop    %ebx
80104a59:	5e                   	pop    %esi
80104a5a:	5d                   	pop    %ebp
80104a5b:	c3                   	ret
80104a5c:	8d 74 26 00          	lea    0x0(%esi,%eiz,1),%esi
		if ((sz = allocuvm(curproc->pgdir, sz, sz + n)) == 0)
80104a60:	83 ec 04             	sub    $0x4,%esp
80104a63:	01 c6                	add    %eax,%esi
80104a65:	56                   	push   %esi
80104a66:	50                   	push   %eax
80104a67:	ff 73 04             	push   0x4(%ebx)
80104a6a:	e8 a1 28 00 00       	call   80107310 <allocuvm>
80104a6f:	83 c4 10             	add    $0x10,%esp
80104a72:	85 c0                	test   %eax,%eax
80104a74:	75 cf                	jne    80104a45 <growproc+0x25>
			return -1;
80104a76:	b8 ff ff ff ff       	mov    $0xffffffff,%eax
80104a7b:	eb d8                	jmp    80104a55 <growproc+0x35>
80104a7d:	8d 76 00             	lea    0x0(%esi),%esi
		if ((sz = deallocuvm(curproc->pgdir, sz, sz + n)) == 0)
80104a80:	83 ec 04             	sub    $0x4,%esp
80104a83:	01 c6                	add    %eax,%esi
80104a85:	56                   	push   %esi
80104a86:	50                   	push   %eax
80104a87:	ff 73 04             	push   0x4(%ebx)
80104a8a:	e8 a1 29 00 00       	call   80107430 <deallocuvm>
80104a8f:	83 c4 10             	add    $0x10,%esp
80104a92:	85 c0                	test   %eax,%eax
80104a94:	75 af                	jne    80104a45 <growproc+0x25>
80104a96:	eb de                	jmp    80104a76 <growproc+0x56>
80104a98:	2e 8d b4 26 00 00 00 	lea    %cs:0x0(%esi,%eiz,1),%esi
80104a9f:	00 

80104aa0 <fork>:
int fork(void) {
80104aa0:	55                   	push   %ebp
80104aa1:	89 e5                	mov    %esp,%ebp
80104aa3:	57                   	push   %edi
80104aa4:	56                   	push   %esi
80104aa5:	53                   	push   %ebx
80104aa6:	83 ec 1c             	sub    $0x1c,%esp
	pushcli();
80104aa9:	e8 72 09 00 00       	call   80105420 <pushcli>
	c = mycpu();
80104aae:	e8 bd fd ff ff       	call   80104870 <mycpu>
	p = c->proc;
80104ab3:	8b 98 ac 00 00 00    	mov    0xac(%eax),%ebx
	popcli();
80104ab9:	e8 b2 09 00 00       	call   80105470 <popcli>
	if ((np = allocproc()) == 0) {
80104abe:	e8 6d fc ff ff       	call   80104730 <allocproc>
80104ac3:	89 45 e4             	mov    %eax,-0x1c(%ebp)
80104ac6:	85 c0                	test   %eax,%eax
80104ac8:	0f 84 e2 00 00 00    	je     80104bb0 <fork+0x110>
	if ((np->pgdir = copyuvm(curproc->pgdir, curproc->sz)) == 0) {
80104ace:	83 ec 08             	sub    $0x8,%esp
80104ad1:	ff 33                	push   (%ebx)
80104ad3:	89 c7                	mov    %eax,%edi
80104ad5:	ff 73 04             	push   0x4(%ebx)
80104ad8:	e8 f3 2a 00 00       	call   801075d0 <copyuvm>
80104add:	83 c4 10             	add    $0x10,%esp
80104ae0:	89 47 04             	mov    %eax,0x4(%edi)
80104ae3:	85 c0                	test   %eax,%eax
80104ae5:	0f 84 a6 00 00 00    	je     80104b91 <fork+0xf1>
	np->sz = curproc->sz;
80104aeb:	8b 03                	mov    (%ebx),%eax
80104aed:	8b 4d e4             	mov    -0x1c(%ebp),%ecx
80104af0:	89 01                	mov    %eax,(%ecx)
	*np->tf = *curproc->tf;
80104af2:	8b 79 18             	mov    0x18(%ecx),%edi
	np->parent = curproc;
80104af5:	89 c8                	mov    %ecx,%eax
80104af7:	89 59 14             	mov    %ebx,0x14(%ecx)
	*np->tf = *curproc->tf;
80104afa:	b9 13 00 00 00       	mov    $0x13,%ecx
80104aff:	8b 73 18             	mov    0x18(%ebx),%esi
80104b02:	f3 a5                	rep movsl %ds:(%esi),%es:(%edi)
	for (i = 0; i < NOFILE; i++)
80104b04:	31 f6                	xor    %esi,%esi
	np->tf->eax = 0;
80104b06:	8b 40 18             	mov    0x18(%eax),%eax
80104b09:	c7 40 1c 00 00 00 00 	movl   $0x0,0x1c(%eax)
		if (curproc->ofile[i])
80104b10:	8b 44 b3 28          	mov    0x28(%ebx,%esi,4),%eax
80104b14:	85 c0                	test   %eax,%eax
80104b16:	74 13                	je     80104b2b <fork+0x8b>
			np->ofile[i] = filedup(curproc->ofile[i]);
80104b18:	83 ec 0c             	sub    $0xc,%esp
80104b1b:	50                   	push   %eax
80104b1c:	e8 0f ce ff ff       	call   80101930 <filedup>
80104b21:	8b 55 e4             	mov    -0x1c(%ebp),%edx
80104b24:	83 c4 10             	add    $0x10,%esp
80104b27:	89 44 b2 28          	mov    %eax,0x28(%edx,%esi,4)
	for (i = 0; i < NOFILE; i++)
80104b2b:	83 c6 01             	add    $0x1,%esi
80104b2e:	83 fe 40             	cmp    $0x40,%esi
80104b31:	75 dd                	jne    80104b10 <fork+0x70>
	np->cwd = idup(curproc->cwd);
80104b33:	83 ec 0c             	sub    $0xc,%esp
80104b36:	ff b3 28 01 00 00    	push   0x128(%ebx)
	safestrcpy(np->name, curproc->name, sizeof(curproc->name));
80104b3c:	81 c3 2c 01 00 00    	add    $0x12c,%ebx
	np->cwd = idup(curproc->cwd);
80104b42:	e8 f9 d8 ff ff       	call   80102440 <idup>
80104b47:	8b 7d e4             	mov    -0x1c(%ebp),%edi
	safestrcpy(np->name, curproc->name, sizeof(curproc->name));
80104b4a:	83 c4 0c             	add    $0xc,%esp
	np->cwd = idup(curproc->cwd);
80104b4d:	89 87 28 01 00 00    	mov    %eax,0x128(%edi)
	safestrcpy(np->name, curproc->name, sizeof(curproc->name));
80104b53:	8d 87 2c 01 00 00    	lea    0x12c(%edi),%eax
80104b59:	6a 10                	push   $0x10
80104b5b:	53                   	push   %ebx
80104b5c:	50                   	push   %eax
80104b5d:	e8 be 0c 00 00       	call   80105820 <safestrcpy>
	pid = np->pid;
80104b62:	8b 5f 10             	mov    0x10(%edi),%ebx
	acquire(&ptable.lock);
80104b65:	c7 04 24 20 45 13 80 	movl   $0x80134520,(%esp)
80104b6c:	e8 ff 09 00 00       	call   80105570 <acquire>
	np->state = RUNNABLE;
80104b71:	c7 47 0c 03 00 00 00 	movl   $0x3,0xc(%edi)
	release(&ptable.lock);
80104b78:	c7 04 24 20 45 13 80 	movl   $0x80134520,(%esp)
80104b7f:	e8 8c 09 00 00       	call   80105510 <release>
	return pid;
80104b84:	83 c4 10             	add    $0x10,%esp
}
80104b87:	8d 65 f4             	lea    -0xc(%ebp),%esp
80104b8a:	89 d8                	mov    %ebx,%eax
80104b8c:	5b                   	pop    %ebx
80104b8d:	5e                   	pop    %esi
80104b8e:	5f                   	pop    %edi
80104b8f:	5d                   	pop    %ebp
80104b90:	c3                   	ret
		kfree(np->kstack);
80104b91:	8b 7d e4             	mov    -0x1c(%ebp),%edi
80104b94:	83 ec 0c             	sub    $0xc,%esp
80104b97:	ff 77 08             	push   0x8(%edi)
80104b9a:	e8 11 e8 ff ff       	call   801033b0 <kfree>
		np->kstack = 0;
80104b9f:	c7 47 08 00 00 00 00 	movl   $0x0,0x8(%edi)
		return -1;
80104ba6:	83 c4 10             	add    $0x10,%esp
		np->state = UNUSED;
80104ba9:	c7 47 0c 00 00 00 00 	movl   $0x0,0xc(%edi)
		return -1;
80104bb0:	bb ff ff ff ff       	mov    $0xffffffff,%ebx
80104bb5:	eb d0                	jmp    80104b87 <fork+0xe7>
80104bb7:	2e 8d b4 26 00 00 00 	lea    %cs:0x0(%esi,%eiz,1),%esi
80104bbe:	00 
80104bbf:	90                   	nop

80104bc0 <scheduler>:
void scheduler(void) {
80104bc0:	55                   	push   %ebp
80104bc1:	89 e5                	mov    %esp,%ebp
80104bc3:	57                   	push   %edi
80104bc4:	56                   	push   %esi
80104bc5:	53                   	push   %ebx
80104bc6:	83 ec 0c             	sub    $0xc,%esp
	struct cpu *c = mycpu();
80104bc9:	e8 a2 fc ff ff       	call   80104870 <mycpu>
	c->proc = 0;
80104bce:	c7 80 ac 00 00 00 00 	movl   $0x0,0xac(%eax)
80104bd5:	00 00 00 
	struct cpu *c = mycpu();
80104bd8:	89 c6                	mov    %eax,%esi
	c->proc = 0;
80104bda:	8d 78 04             	lea    0x4(%eax),%edi
80104bdd:	8d 76 00             	lea    0x0(%esi),%esi
static inline void sti(void) { asm volatile("sti"); }
80104be0:	fb                   	sti
		acquire(&ptable.lock);
80104be1:	83 ec 0c             	sub    $0xc,%esp
		for (p = ptable.proc; p < &ptable.proc[NPROC]; p++) {
80104be4:	bb 54 45 13 80       	mov    $0x80134554,%ebx
		acquire(&ptable.lock);
80104be9:	68 20 45 13 80       	push   $0x80134520
80104bee:	e8 7d 09 00 00       	call   80105570 <acquire>
80104bf3:	83 c4 10             	add    $0x10,%esp
80104bf6:	2e 8d b4 26 00 00 00 	lea    %cs:0x0(%esi,%eiz,1),%esi
80104bfd:	00 
80104bfe:	66 90                	xchg   %ax,%ax
			if (p->state != RUNNABLE)
80104c00:	83 7b 0c 03          	cmpl   $0x3,0xc(%ebx)
80104c04:	75 33                	jne    80104c39 <scheduler+0x79>
			switchuvm(p);
80104c06:	83 ec 0c             	sub    $0xc,%esp
			c->proc = p;
80104c09:	89 9e ac 00 00 00    	mov    %ebx,0xac(%esi)
			switchuvm(p);
80104c0f:	53                   	push   %ebx
80104c10:	e8 9b 24 00 00       	call   801070b0 <switchuvm>
			swtch(&(c->scheduler), p->context);
80104c15:	58                   	pop    %eax
80104c16:	5a                   	pop    %edx
80104c17:	ff 73 1c             	push   0x1c(%ebx)
80104c1a:	57                   	push   %edi
			p->state = RUNNING;
80104c1b:	c7 43 0c 04 00 00 00 	movl   $0x4,0xc(%ebx)
			swtch(&(c->scheduler), p->context);
80104c22:	e8 54 0c 00 00       	call   8010587b <swtch>
			switchkvm();
80104c27:	e8 74 24 00 00       	call   801070a0 <switchkvm>
			c->proc = 0;
80104c2c:	83 c4 10             	add    $0x10,%esp
80104c2f:	c7 86 ac 00 00 00 00 	movl   $0x0,0xac(%esi)
80104c36:	00 00 00 
		for (p = ptable.proc; p < &ptable.proc[NPROC]; p++) {
80104c39:	81 c3 3c 01 00 00    	add    $0x13c,%ebx
80104c3f:	81 fb 54 94 13 80    	cmp    $0x80139454,%ebx
80104c45:	75 b9                	jne    80104c00 <scheduler+0x40>
		release(&ptable.lock);
80104c47:	83 ec 0c             	sub    $0xc,%esp
80104c4a:	68 20 45 13 80       	push   $0x80134520
80104c4f:	e8 bc 08 00 00       	call   80105510 <release>
		sti();
80104c54:	83 c4 10             	add    $0x10,%esp
80104c57:	eb 87                	jmp    80104be0 <scheduler+0x20>
80104c59:	8d b4 26 00 00 00 00 	lea    0x0(%esi,%eiz,1),%esi

80104c60 <sched>:
void sched(void) {
80104c60:	55                   	push   %ebp
80104c61:	89 e5                	mov    %esp,%ebp
80104c63:	56                   	push   %esi
80104c64:	53                   	push   %ebx
	pushcli();
80104c65:	e8 b6 07 00 00       	call   80105420 <pushcli>
	c = mycpu();
80104c6a:	e8 01 fc ff ff       	call   80104870 <mycpu>
	p = c->proc;
80104c6f:	8b 98 ac 00 00 00    	mov    0xac(%eax),%ebx
	popcli();
80104c75:	e8 f6 07 00 00       	call   80105470 <popcli>
	if (!holding(&ptable.lock))
80104c7a:	83 ec 0c             	sub    $0xc,%esp
80104c7d:	68 20 45 13 80       	push   $0x80134520
80104c82:	e8 49 08 00 00       	call   801054d0 <holding>
80104c87:	83 c4 10             	add    $0x10,%esp
80104c8a:	85 c0                	test   %eax,%eax
80104c8c:	74 4f                	je     80104cdd <sched+0x7d>
	if (mycpu()->ncli != 1)
80104c8e:	e8 dd fb ff ff       	call   80104870 <mycpu>
80104c93:	83 b8 a4 00 00 00 01 	cmpl   $0x1,0xa4(%eax)
80104c9a:	75 68                	jne    80104d04 <sched+0xa4>
	if (p->state == RUNNING)
80104c9c:	83 7b 0c 04          	cmpl   $0x4,0xc(%ebx)
80104ca0:	74 55                	je     80104cf7 <sched+0x97>
	asm volatile("pushfl; popl %0" : "=r"(eflags));
80104ca2:	9c                   	pushf
80104ca3:	58                   	pop    %eax
	if (readeflags() & FL_IF)
80104ca4:	f6 c4 02             	test   $0x2,%ah
80104ca7:	75 41                	jne    80104cea <sched+0x8a>
	intena = mycpu()->intena;
80104ca9:	e8 c2 fb ff ff       	call   80104870 <mycpu>
	swtch(&p->context, mycpu()->scheduler);
80104cae:	83 c3 1c             	add    $0x1c,%ebx
	intena = mycpu()->intena;
80104cb1:	8b b0 a8 00 00 00    	mov    0xa8(%eax),%esi
	swtch(&p->context, mycpu()->scheduler);
80104cb7:	e8 b4 fb ff ff       	call   80104870 <mycpu>
80104cbc:	83 ec 08             	sub    $0x8,%esp
80104cbf:	ff 70 04             	push   0x4(%eax)
80104cc2:	53                   	push   %ebx
80104cc3:	e8 b3 0b 00 00       	call   8010587b <swtch>
	mycpu()->intena = intena;
80104cc8:	e8 a3 fb ff ff       	call   80104870 <mycpu>
}
80104ccd:	83 c4 10             	add    $0x10,%esp
	mycpu()->intena = intena;
80104cd0:	89 b0 a8 00 00 00    	mov    %esi,0xa8(%eax)
}
80104cd6:	8d 65 f8             	lea    -0x8(%ebp),%esp
80104cd9:	5b                   	pop    %ebx
80104cda:	5e                   	pop    %esi
80104cdb:	5d                   	pop    %ebp
80104cdc:	c3                   	ret
		panic("sched ptable.lock");
80104cdd:	83 ec 0c             	sub    $0xc,%esp
80104ce0:	68 ad b4 10 80       	push   $0x8010b4ad
80104ce5:	e8 06 c1 ff ff       	call   80100df0 <panic>
		panic("sched interruptible");
80104cea:	83 ec 0c             	sub    $0xc,%esp
80104ced:	68 d9 b4 10 80       	push   $0x8010b4d9
80104cf2:	e8 f9 c0 ff ff       	call   80100df0 <panic>
		panic("sched running");
80104cf7:	83 ec 0c             	sub    $0xc,%esp
80104cfa:	68 cb b4 10 80       	push   $0x8010b4cb
80104cff:	e8 ec c0 ff ff       	call   80100df0 <panic>
		panic("sched locks");
80104d04:	83 ec 0c             	sub    $0xc,%esp
80104d07:	68 bf b4 10 80       	push   $0x8010b4bf
80104d0c:	e8 df c0 ff ff       	call   80100df0 <panic>
80104d11:	2e 8d b4 26 00 00 00 	lea    %cs:0x0(%esi,%eiz,1),%esi
80104d18:	00 
80104d19:	8d b4 26 00 00 00 00 	lea    0x0(%esi,%eiz,1),%esi

80104d20 <exit>:
void exit(void) {
80104d20:	55                   	push   %ebp
80104d21:	89 e5                	mov    %esp,%ebp
80104d23:	57                   	push   %edi
80104d24:	56                   	push   %esi
80104d25:	53                   	push   %ebx
80104d26:	83 ec 0c             	sub    $0xc,%esp
	struct proc *curproc = myproc();
80104d29:	e8 c2 fb ff ff       	call   801048f0 <myproc>
	if (curproc == initproc)
80104d2e:	39 05 54 94 13 80    	cmp    %eax,0x80139454
80104d34:	0f 84 07 01 00 00    	je     80104e41 <exit+0x121>
80104d3a:	89 c3                	mov    %eax,%ebx
80104d3c:	8d 70 28             	lea    0x28(%eax),%esi
80104d3f:	8d b8 28 01 00 00    	lea    0x128(%eax),%edi
80104d45:	8d 76 00             	lea    0x0(%esi),%esi
		if (curproc->ofile[fd]) {
80104d48:	8b 06                	mov    (%esi),%eax
80104d4a:	85 c0                	test   %eax,%eax
80104d4c:	74 12                	je     80104d60 <exit+0x40>
			fileclose(curproc->ofile[fd]);
80104d4e:	83 ec 0c             	sub    $0xc,%esp
80104d51:	50                   	push   %eax
80104d52:	e8 29 cc ff ff       	call   80101980 <fileclose>
			curproc->ofile[fd] = 0;
80104d57:	c7 06 00 00 00 00    	movl   $0x0,(%esi)
80104d5d:	83 c4 10             	add    $0x10,%esp
	for (fd = 0; fd < NOFILE; fd++) {
80104d60:	83 c6 04             	add    $0x4,%esi
80104d63:	39 f7                	cmp    %esi,%edi
80104d65:	75 e1                	jne    80104d48 <exit+0x28>
	begin_op();
80104d67:	e8 44 ef ff ff       	call   80103cb0 <begin_op>
	iput(curproc->cwd);
80104d6c:	83 ec 0c             	sub    $0xc,%esp
80104d6f:	ff b3 28 01 00 00    	push   0x128(%ebx)
80104d75:	e8 36 d8 ff ff       	call   801025b0 <iput>
	end_op();
80104d7a:	e8 a1 ef ff ff       	call   80103d20 <end_op>
	curproc->cwd = 0;
80104d7f:	c7 83 28 01 00 00 00 	movl   $0x0,0x128(%ebx)
80104d86:	00 00 00 
	acquire(&ptable.lock);
80104d89:	c7 04 24 20 45 13 80 	movl   $0x80134520,(%esp)
80104d90:	e8 db 07 00 00       	call   80105570 <acquire>
	wakeup1(curproc->parent);
80104d95:	8b 53 14             	mov    0x14(%ebx),%edx
80104d98:	83 c4 10             	add    $0x10,%esp
// Wake up all processes sleeping on chan.
// The ptable lock must be held.
static void wakeup1(void *chan) {
	struct proc *p;

	for (p = ptable.proc; p < &ptable.proc[NPROC]; p++)
80104d9b:	b8 54 45 13 80       	mov    $0x80134554,%eax
80104da0:	eb 12                	jmp    80104db4 <exit+0x94>
80104da2:	8d b6 00 00 00 00    	lea    0x0(%esi),%esi
80104da8:	05 3c 01 00 00       	add    $0x13c,%eax
80104dad:	3d 54 94 13 80       	cmp    $0x80139454,%eax
80104db2:	74 1e                	je     80104dd2 <exit+0xb2>
		if (p->state == SLEEPING && p->chan == chan)
80104db4:	83 78 0c 02          	cmpl   $0x2,0xc(%eax)
80104db8:	75 ee                	jne    80104da8 <exit+0x88>
80104dba:	3b 50 20             	cmp    0x20(%eax),%edx
80104dbd:	75 e9                	jne    80104da8 <exit+0x88>
			p->state = RUNNABLE;
80104dbf:	c7 40 0c 03 00 00 00 	movl   $0x3,0xc(%eax)
	for (p = ptable.proc; p < &ptable.proc[NPROC]; p++)
80104dc6:	05 3c 01 00 00       	add    $0x13c,%eax
80104dcb:	3d 54 94 13 80       	cmp    $0x80139454,%eax
80104dd0:	75 e2                	jne    80104db4 <exit+0x94>
			p->parent = initproc;
80104dd2:	8b 0d 54 94 13 80    	mov    0x80139454,%ecx
	for (p = ptable.proc; p < &ptable.proc[NPROC]; p++) {
80104dd8:	ba 54 45 13 80       	mov    $0x80134554,%edx
80104ddd:	eb 0f                	jmp    80104dee <exit+0xce>
80104ddf:	90                   	nop
80104de0:	81 c2 3c 01 00 00    	add    $0x13c,%edx
80104de6:	81 fa 54 94 13 80    	cmp    $0x80139454,%edx
80104dec:	74 3a                	je     80104e28 <exit+0x108>
		if (p->parent == curproc) {
80104dee:	39 5a 14             	cmp    %ebx,0x14(%edx)
80104df1:	75 ed                	jne    80104de0 <exit+0xc0>
			if (p->state == ZOMBIE)
80104df3:	83 7a 0c 05          	cmpl   $0x5,0xc(%edx)
			p->parent = initproc;
80104df7:	89 4a 14             	mov    %ecx,0x14(%edx)
			if (p->state == ZOMBIE)
80104dfa:	75 e4                	jne    80104de0 <exit+0xc0>
	for (p = ptable.proc; p < &ptable.proc[NPROC]; p++)
80104dfc:	b8 54 45 13 80       	mov    $0x80134554,%eax
80104e01:	eb 11                	jmp    80104e14 <exit+0xf4>
80104e03:	2e 8d 74 26 00       	lea    %cs:0x0(%esi,%eiz,1),%esi
80104e08:	05 3c 01 00 00       	add    $0x13c,%eax
80104e0d:	3d 54 94 13 80       	cmp    $0x80139454,%eax
80104e12:	74 cc                	je     80104de0 <exit+0xc0>
		if (p->state == SLEEPING && p->chan == chan)
80104e14:	83 78 0c 02          	cmpl   $0x2,0xc(%eax)
80104e18:	75 ee                	jne    80104e08 <exit+0xe8>
80104e1a:	3b 48 20             	cmp    0x20(%eax),%ecx
80104e1d:	75 e9                	jne    80104e08 <exit+0xe8>
			p->state = RUNNABLE;
80104e1f:	c7 40 0c 03 00 00 00 	movl   $0x3,0xc(%eax)
80104e26:	eb e0                	jmp    80104e08 <exit+0xe8>
	curproc->state = ZOMBIE;
80104e28:	c7 43 0c 05 00 00 00 	movl   $0x5,0xc(%ebx)
	sched();
80104e2f:	e8 2c fe ff ff       	call   80104c60 <sched>
	panic("zombie exit");
80104e34:	83 ec 0c             	sub    $0xc,%esp
80104e37:	68 fa b4 10 80       	push   $0x8010b4fa
80104e3c:	e8 af bf ff ff       	call   80100df0 <panic>
		panic("init exiting");
80104e41:	83 ec 0c             	sub    $0xc,%esp
80104e44:	68 ed b4 10 80       	push   $0x8010b4ed
80104e49:	e8 a2 bf ff ff       	call   80100df0 <panic>
80104e4e:	66 90                	xchg   %ax,%ax

80104e50 <wait>:
int wait(void) {
80104e50:	55                   	push   %ebp
80104e51:	89 e5                	mov    %esp,%ebp
80104e53:	56                   	push   %esi
80104e54:	53                   	push   %ebx
	pushcli();
80104e55:	e8 c6 05 00 00       	call   80105420 <pushcli>
	c = mycpu();
80104e5a:	e8 11 fa ff ff       	call   80104870 <mycpu>
	p = c->proc;
80104e5f:	8b b0 ac 00 00 00    	mov    0xac(%eax),%esi
	popcli();
80104e65:	e8 06 06 00 00       	call   80105470 <popcli>
	acquire(&ptable.lock);
80104e6a:	83 ec 0c             	sub    $0xc,%esp
80104e6d:	68 20 45 13 80       	push   $0x80134520
80104e72:	e8 f9 06 00 00       	call   80105570 <acquire>
80104e77:	83 c4 10             	add    $0x10,%esp
		havekids = 0;
80104e7a:	31 c0                	xor    %eax,%eax
		for (p = ptable.proc; p < &ptable.proc[NPROC]; p++) {
80104e7c:	bb 54 45 13 80       	mov    $0x80134554,%ebx
80104e81:	eb 13                	jmp    80104e96 <wait+0x46>
80104e83:	2e 8d 74 26 00       	lea    %cs:0x0(%esi,%eiz,1),%esi
80104e88:	81 c3 3c 01 00 00    	add    $0x13c,%ebx
80104e8e:	81 fb 54 94 13 80    	cmp    $0x80139454,%ebx
80104e94:	74 1e                	je     80104eb4 <wait+0x64>
			if (p->parent != curproc)
80104e96:	39 73 14             	cmp    %esi,0x14(%ebx)
80104e99:	75 ed                	jne    80104e88 <wait+0x38>
			if (p->state == ZOMBIE) {
80104e9b:	83 7b 0c 05          	cmpl   $0x5,0xc(%ebx)
80104e9f:	74 5f                	je     80104f00 <wait+0xb0>
		for (p = ptable.proc; p < &ptable.proc[NPROC]; p++) {
80104ea1:	81 c3 3c 01 00 00    	add    $0x13c,%ebx
			havekids = 1;
80104ea7:	b8 01 00 00 00       	mov    $0x1,%eax
		for (p = ptable.proc; p < &ptable.proc[NPROC]; p++) {
80104eac:	81 fb 54 94 13 80    	cmp    $0x80139454,%ebx
80104eb2:	75 e2                	jne    80104e96 <wait+0x46>
		if (!havekids || curproc->killed) {
80104eb4:	85 c0                	test   %eax,%eax
80104eb6:	0f 84 9d 00 00 00    	je     80104f59 <wait+0x109>
80104ebc:	8b 46 24             	mov    0x24(%esi),%eax
80104ebf:	85 c0                	test   %eax,%eax
80104ec1:	0f 85 92 00 00 00    	jne    80104f59 <wait+0x109>
	pushcli();
80104ec7:	e8 54 05 00 00       	call   80105420 <pushcli>
	c = mycpu();
80104ecc:	e8 9f f9 ff ff       	call   80104870 <mycpu>
	p = c->proc;
80104ed1:	8b 98 ac 00 00 00    	mov    0xac(%eax),%ebx
	popcli();
80104ed7:	e8 94 05 00 00       	call   80105470 <popcli>
	if (p == 0)
80104edc:	85 db                	test   %ebx,%ebx
80104ede:	0f 84 8c 00 00 00    	je     80104f70 <wait+0x120>
	p->chan = chan;
80104ee4:	89 73 20             	mov    %esi,0x20(%ebx)
	p->state = SLEEPING;
80104ee7:	c7 43 0c 02 00 00 00 	movl   $0x2,0xc(%ebx)
	sched();
80104eee:	e8 6d fd ff ff       	call   80104c60 <sched>
	p->chan = 0;
80104ef3:	c7 43 20 00 00 00 00 	movl   $0x0,0x20(%ebx)
}
80104efa:	e9 7b ff ff ff       	jmp    80104e7a <wait+0x2a>
80104eff:	90                   	nop
				kfree(p->kstack);
80104f00:	83 ec 0c             	sub    $0xc,%esp
				pid = p->pid;
80104f03:	8b 73 10             	mov    0x10(%ebx),%esi
				kfree(p->kstack);
80104f06:	ff 73 08             	push   0x8(%ebx)
80104f09:	e8 a2 e4 ff ff       	call   801033b0 <kfree>
				p->kstack = 0;
80104f0e:	c7 43 08 00 00 00 00 	movl   $0x0,0x8(%ebx)
				freevm(p->pgdir);
80104f15:	5a                   	pop    %edx
80104f16:	ff 73 04             	push   0x4(%ebx)
80104f19:	e8 42 25 00 00       	call   80107460 <freevm>
				p->pid = 0;
80104f1e:	c7 43 10 00 00 00 00 	movl   $0x0,0x10(%ebx)
				p->parent = 0;
80104f25:	c7 43 14 00 00 00 00 	movl   $0x0,0x14(%ebx)
				p->name[0] = 0;
80104f2c:	c6 83 2c 01 00 00 00 	movb   $0x0,0x12c(%ebx)
				p->killed = 0;
80104f33:	c7 43 24 00 00 00 00 	movl   $0x0,0x24(%ebx)
				p->state = UNUSED;
80104f3a:	c7 43 0c 00 00 00 00 	movl   $0x0,0xc(%ebx)
				release(&ptable.lock);
80104f41:	c7 04 24 20 45 13 80 	movl   $0x80134520,(%esp)
80104f48:	e8 c3 05 00 00       	call   80105510 <release>
				return pid;
80104f4d:	83 c4 10             	add    $0x10,%esp
}
80104f50:	8d 65 f8             	lea    -0x8(%ebp),%esp
80104f53:	89 f0                	mov    %esi,%eax
80104f55:	5b                   	pop    %ebx
80104f56:	5e                   	pop    %esi
80104f57:	5d                   	pop    %ebp
80104f58:	c3                   	ret
			release(&ptable.lock);
80104f59:	83 ec 0c             	sub    $0xc,%esp
			return -1;
80104f5c:	be ff ff ff ff       	mov    $0xffffffff,%esi
			release(&ptable.lock);
80104f61:	68 20 45 13 80       	push   $0x80134520
80104f66:	e8 a5 05 00 00       	call   80105510 <release>
			return -1;
80104f6b:	83 c4 10             	add    $0x10,%esp
80104f6e:	eb e0                	jmp    80104f50 <wait+0x100>
		panic("sleep");
80104f70:	83 ec 0c             	sub    $0xc,%esp
80104f73:	68 06 b5 10 80       	push   $0x8010b506
80104f78:	e8 73 be ff ff       	call   80100df0 <panic>
80104f7d:	8d 76 00             	lea    0x0(%esi),%esi

80104f80 <yield>:
void yield(void) {
80104f80:	55                   	push   %ebp
80104f81:	89 e5                	mov    %esp,%ebp
80104f83:	53                   	push   %ebx
80104f84:	83 ec 10             	sub    $0x10,%esp
	acquire(&ptable.lock); // DOC: yieldlock
80104f87:	68 20 45 13 80       	push   $0x80134520
80104f8c:	e8 df 05 00 00       	call   80105570 <acquire>
	pushcli();
80104f91:	e8 8a 04 00 00       	call   80105420 <pushcli>
	c = mycpu();
80104f96:	e8 d5 f8 ff ff       	call   80104870 <mycpu>
	p = c->proc;
80104f9b:	8b 98 ac 00 00 00    	mov    0xac(%eax),%ebx
	popcli();
80104fa1:	e8 ca 04 00 00       	call   80105470 <popcli>
	myproc()->state = RUNNABLE;
80104fa6:	c7 43 0c 03 00 00 00 	movl   $0x3,0xc(%ebx)
	sched();
80104fad:	e8 ae fc ff ff       	call   80104c60 <sched>
	release(&ptable.lock);
80104fb2:	c7 04 24 20 45 13 80 	movl   $0x80134520,(%esp)
80104fb9:	e8 52 05 00 00       	call   80105510 <release>
}
80104fbe:	8b 5d fc             	mov    -0x4(%ebp),%ebx
80104fc1:	83 c4 10             	add    $0x10,%esp
80104fc4:	c9                   	leave
80104fc5:	c3                   	ret
80104fc6:	2e 8d b4 26 00 00 00 	lea    %cs:0x0(%esi,%eiz,1),%esi
80104fcd:	00 
80104fce:	66 90                	xchg   %ax,%ax

80104fd0 <sleep>:
void sleep(void *chan, struct spinlock *lk) {
80104fd0:	55                   	push   %ebp
80104fd1:	89 e5                	mov    %esp,%ebp
80104fd3:	57                   	push   %edi
80104fd4:	56                   	push   %esi
80104fd5:	53                   	push   %ebx
80104fd6:	83 ec 0c             	sub    $0xc,%esp
80104fd9:	8b 7d 08             	mov    0x8(%ebp),%edi
80104fdc:	8b 75 0c             	mov    0xc(%ebp),%esi
	pushcli();
80104fdf:	e8 3c 04 00 00       	call   80105420 <pushcli>
	c = mycpu();
80104fe4:	e8 87 f8 ff ff       	call   80104870 <mycpu>
	p = c->proc;
80104fe9:	8b 98 ac 00 00 00    	mov    0xac(%eax),%ebx
	popcli();
80104fef:	e8 7c 04 00 00       	call   80105470 <popcli>
	if (p == 0)
80104ff4:	85 db                	test   %ebx,%ebx
80104ff6:	0f 84 87 00 00 00    	je     80105083 <sleep+0xb3>
	if (lk == 0)
80104ffc:	85 f6                	test   %esi,%esi
80104ffe:	74 76                	je     80105076 <sleep+0xa6>
	if (lk != &ptable.lock) {      // DOC: sleeplock0
80105000:	81 fe 20 45 13 80    	cmp    $0x80134520,%esi
80105006:	74 50                	je     80105058 <sleep+0x88>
		acquire(&ptable.lock); // DOC: sleeplock1
80105008:	83 ec 0c             	sub    $0xc,%esp
8010500b:	68 20 45 13 80       	push   $0x80134520
80105010:	e8 5b 05 00 00       	call   80105570 <acquire>
		release(lk);
80105015:	89 34 24             	mov    %esi,(%esp)
80105018:	e8 f3 04 00 00       	call   80105510 <release>
	p->chan = chan;
8010501d:	89 7b 20             	mov    %edi,0x20(%ebx)
	p->state = SLEEPING;
80105020:	c7 43 0c 02 00 00 00 	movl   $0x2,0xc(%ebx)
	sched();
80105027:	e8 34 fc ff ff       	call   80104c60 <sched>
	p->chan = 0;
8010502c:	c7 43 20 00 00 00 00 	movl   $0x0,0x20(%ebx)
		release(&ptable.lock);
80105033:	c7 04 24 20 45 13 80 	movl   $0x80134520,(%esp)
8010503a:	e8 d1 04 00 00       	call   80105510 <release>
		acquire(lk);
8010503f:	83 c4 10             	add    $0x10,%esp
80105042:	89 75 08             	mov    %esi,0x8(%ebp)
}
80105045:	8d 65 f4             	lea    -0xc(%ebp),%esp
80105048:	5b                   	pop    %ebx
80105049:	5e                   	pop    %esi
8010504a:	5f                   	pop    %edi
8010504b:	5d                   	pop    %ebp
		acquire(lk);
8010504c:	e9 1f 05 00 00       	jmp    80105570 <acquire>
80105051:	8d b4 26 00 00 00 00 	lea    0x0(%esi,%eiz,1),%esi
	p->chan = chan;
80105058:	89 7b 20             	mov    %edi,0x20(%ebx)
	p->state = SLEEPING;
8010505b:	c7 43 0c 02 00 00 00 	movl   $0x2,0xc(%ebx)
	sched();
80105062:	e8 f9 fb ff ff       	call   80104c60 <sched>
	p->chan = 0;
80105067:	c7 43 20 00 00 00 00 	movl   $0x0,0x20(%ebx)
}
8010506e:	8d 65 f4             	lea    -0xc(%ebp),%esp
80105071:	5b                   	pop    %ebx
80105072:	5e                   	pop    %esi
80105073:	5f                   	pop    %edi
80105074:	5d                   	pop    %ebp
80105075:	c3                   	ret
		panic("sleep without lk");
80105076:	83 ec 0c             	sub    $0xc,%esp
80105079:	68 0c b5 10 80       	push   $0x8010b50c
8010507e:	e8 6d bd ff ff       	call   80100df0 <panic>
		panic("sleep");
80105083:	83 ec 0c             	sub    $0xc,%esp
80105086:	68 06 b5 10 80       	push   $0x8010b506
8010508b:	e8 60 bd ff ff       	call   80100df0 <panic>

80105090 <wakeup>:
}

// Wake up all processes sleeping on chan.
void wakeup(void *chan) {
80105090:	55                   	push   %ebp
80105091:	89 e5                	mov    %esp,%ebp
80105093:	53                   	push   %ebx
80105094:	83 ec 10             	sub    $0x10,%esp
80105097:	8b 5d 08             	mov    0x8(%ebp),%ebx
	acquire(&ptable.lock);
8010509a:	68 20 45 13 80       	push   $0x80134520
8010509f:	e8 cc 04 00 00       	call   80105570 <acquire>
801050a4:	83 c4 10             	add    $0x10,%esp
	for (p = ptable.proc; p < &ptable.proc[NPROC]; p++)
801050a7:	b8 54 45 13 80       	mov    $0x80134554,%eax
801050ac:	eb 0e                	jmp    801050bc <wakeup+0x2c>
801050ae:	66 90                	xchg   %ax,%ax
801050b0:	05 3c 01 00 00       	add    $0x13c,%eax
801050b5:	3d 54 94 13 80       	cmp    $0x80139454,%eax
801050ba:	74 1e                	je     801050da <wakeup+0x4a>
		if (p->state == SLEEPING && p->chan == chan)
801050bc:	83 78 0c 02          	cmpl   $0x2,0xc(%eax)
801050c0:	75 ee                	jne    801050b0 <wakeup+0x20>
801050c2:	3b 58 20             	cmp    0x20(%eax),%ebx
801050c5:	75 e9                	jne    801050b0 <wakeup+0x20>
			p->state = RUNNABLE;
801050c7:	c7 40 0c 03 00 00 00 	movl   $0x3,0xc(%eax)
	for (p = ptable.proc; p < &ptable.proc[NPROC]; p++)
801050ce:	05 3c 01 00 00       	add    $0x13c,%eax
801050d3:	3d 54 94 13 80       	cmp    $0x80139454,%eax
801050d8:	75 e2                	jne    801050bc <wakeup+0x2c>
	wakeup1(chan);
	release(&ptable.lock);
801050da:	c7 45 08 20 45 13 80 	movl   $0x80134520,0x8(%ebp)
}
801050e1:	8b 5d fc             	mov    -0x4(%ebp),%ebx
801050e4:	c9                   	leave
	release(&ptable.lock);
801050e5:	e9 26 04 00 00       	jmp    80105510 <release>
801050ea:	8d b6 00 00 00 00    	lea    0x0(%esi),%esi

801050f0 <kill>:

// Kill the process with the given pid.
// Process won't exit until it returns
// to user space (see trap in trap.c).
int kill(int pid) {
801050f0:	55                   	push   %ebp
801050f1:	89 e5                	mov    %esp,%ebp
801050f3:	53                   	push   %ebx
801050f4:	83 ec 10             	sub    $0x10,%esp
801050f7:	8b 5d 08             	mov    0x8(%ebp),%ebx
	struct proc *p;

	acquire(&ptable.lock);
801050fa:	68 20 45 13 80       	push   $0x80134520
801050ff:	e8 6c 04 00 00       	call   80105570 <acquire>
80105104:	83 c4 10             	add    $0x10,%esp
	for (p = ptable.proc; p < &ptable.proc[NPROC]; p++) {
80105107:	b8 54 45 13 80       	mov    $0x80134554,%eax
8010510c:	eb 0e                	jmp    8010511c <kill+0x2c>
8010510e:	66 90                	xchg   %ax,%ax
80105110:	05 3c 01 00 00       	add    $0x13c,%eax
80105115:	3d 54 94 13 80       	cmp    $0x80139454,%eax
8010511a:	74 34                	je     80105150 <kill+0x60>
		if (p->pid == pid) {
8010511c:	39 58 10             	cmp    %ebx,0x10(%eax)
8010511f:	75 ef                	jne    80105110 <kill+0x20>
			p->killed = 1;
			// Wake process from sleep if necessary.
			if (p->state == SLEEPING)
80105121:	83 78 0c 02          	cmpl   $0x2,0xc(%eax)
			p->killed = 1;
80105125:	c7 40 24 01 00 00 00 	movl   $0x1,0x24(%eax)
			if (p->state == SLEEPING)
8010512c:	75 07                	jne    80105135 <kill+0x45>
				p->state = RUNNABLE;
8010512e:	c7 40 0c 03 00 00 00 	movl   $0x3,0xc(%eax)
			release(&ptable.lock);
80105135:	83 ec 0c             	sub    $0xc,%esp
80105138:	68 20 45 13 80       	push   $0x80134520
8010513d:	e8 ce 03 00 00       	call   80105510 <release>
			return 0;
		}
	}
	release(&ptable.lock);
	return -1;
}
80105142:	8b 5d fc             	mov    -0x4(%ebp),%ebx
			return 0;
80105145:	83 c4 10             	add    $0x10,%esp
80105148:	31 c0                	xor    %eax,%eax
}
8010514a:	c9                   	leave
8010514b:	c3                   	ret
8010514c:	8d 74 26 00          	lea    0x0(%esi,%eiz,1),%esi
	release(&ptable.lock);
80105150:	83 ec 0c             	sub    $0xc,%esp
80105153:	68 20 45 13 80       	push   $0x80134520
80105158:	e8 b3 03 00 00       	call   80105510 <release>
}
8010515d:	8b 5d fc             	mov    -0x4(%ebp),%ebx
	return -1;
80105160:	83 c4 10             	add    $0x10,%esp
80105163:	b8 ff ff ff ff       	mov    $0xffffffff,%eax
}
80105168:	c9                   	leave
80105169:	c3                   	ret
8010516a:	8d b6 00 00 00 00    	lea    0x0(%esi),%esi

80105170 <procdump>:

// PAGEBREAK: 36
// Print a process listing to console.  For debugging.
// Runs when user types ^P on console.
// No lock to avoid wedging a stuck machine further.
void procdump(void) {
80105170:	55                   	push   %ebp
80105171:	89 e5                	mov    %esp,%ebp
80105173:	57                   	push   %edi
80105174:	56                   	push   %esi
80105175:	8d 75 e8             	lea    -0x18(%ebp),%esi
80105178:	53                   	push   %ebx
80105179:	bb 80 46 13 80       	mov    $0x80134680,%ebx
8010517e:	83 ec 3c             	sub    $0x3c,%esp
80105181:	eb 27                	jmp    801051aa <procdump+0x3a>
80105183:	2e 8d 74 26 00       	lea    %cs:0x0(%esi,%eiz,1),%esi
		if (p->state == SLEEPING) {
			getcallerpcs((uint *)p->context->ebp + 2, pc);
			for (i = 0; i < 10 && pc[i] != 0; i++)
				cprintf(" %p", pc[i]);
		}
		cprintf("\n");
80105188:	83 ec 0c             	sub    $0xc,%esp
8010518b:	68 a5 b7 10 80       	push   $0x8010b7a5
80105190:	e8 8b bf ff ff       	call   80101120 <cprintf>
80105195:	83 c4 10             	add    $0x10,%esp
	for (p = ptable.proc; p < &ptable.proc[NPROC]; p++) {
80105198:	81 c3 3c 01 00 00    	add    $0x13c,%ebx
8010519e:	81 fb 80 95 13 80    	cmp    $0x80139580,%ebx
801051a4:	0f 84 96 00 00 00    	je     80105240 <procdump+0xd0>
		if (p->state == UNUSED)
801051aa:	8b 83 e0 fe ff ff    	mov    -0x120(%ebx),%eax
801051b0:	85 c0                	test   %eax,%eax
801051b2:	74 e4                	je     80105198 <procdump+0x28>
			state = "???";
801051b4:	ba 1d b5 10 80       	mov    $0x8010b51d,%edx
		if (p->state >= 0 && p->state < NELEM(states) &&
801051b9:	83 f8 05             	cmp    $0x5,%eax
801051bc:	77 11                	ja     801051cf <procdump+0x5f>
		    states[p->state])
801051be:	8b 14 85 60 bd 10 80 	mov    -0x7fef42a0(,%eax,4),%edx
			state = "???";
801051c5:	b8 1d b5 10 80       	mov    $0x8010b51d,%eax
801051ca:	85 d2                	test   %edx,%edx
801051cc:	0f 44 d0             	cmove  %eax,%edx
		cprintf("%d %s %s", p->pid, state, p->name);
801051cf:	53                   	push   %ebx
801051d0:	52                   	push   %edx
801051d1:	ff b3 e4 fe ff ff    	push   -0x11c(%ebx)
801051d7:	68 21 b5 10 80       	push   $0x8010b521
801051dc:	e8 3f bf ff ff       	call   80101120 <cprintf>
		if (p->state == SLEEPING) {
801051e1:	83 c4 10             	add    $0x10,%esp
801051e4:	83 bb e0 fe ff ff 02 	cmpl   $0x2,-0x120(%ebx)
801051eb:	75 9b                	jne    80105188 <procdump+0x18>
			getcallerpcs((uint *)p->context->ebp + 2, pc);
801051ed:	83 ec 08             	sub    $0x8,%esp
801051f0:	8d 45 c0             	lea    -0x40(%ebp),%eax
801051f3:	8d 7d c0             	lea    -0x40(%ebp),%edi
801051f6:	50                   	push   %eax
801051f7:	8b 83 f0 fe ff ff    	mov    -0x110(%ebx),%eax
801051fd:	8b 40 0c             	mov    0xc(%eax),%eax
80105200:	83 c0 08             	add    $0x8,%eax
80105203:	50                   	push   %eax
80105204:	e8 97 01 00 00       	call   801053a0 <getcallerpcs>
			for (i = 0; i < 10 && pc[i] != 0; i++)
80105209:	83 c4 10             	add    $0x10,%esp
8010520c:	8d 74 26 00          	lea    0x0(%esi,%eiz,1),%esi
80105210:	8b 17                	mov    (%edi),%edx
80105212:	85 d2                	test   %edx,%edx
80105214:	0f 84 6e ff ff ff    	je     80105188 <procdump+0x18>
				cprintf(" %p", pc[i]);
8010521a:	83 ec 08             	sub    $0x8,%esp
			for (i = 0; i < 10 && pc[i] != 0; i++)
8010521d:	83 c7 04             	add    $0x4,%edi
				cprintf(" %p", pc[i]);
80105220:	52                   	push   %edx
80105221:	68 c1 b1 10 80       	push   $0x8010b1c1
80105226:	e8 f5 be ff ff       	call   80101120 <cprintf>
			for (i = 0; i < 10 && pc[i] != 0; i++)
8010522b:	83 c4 10             	add    $0x10,%esp
8010522e:	39 f7                	cmp    %esi,%edi
80105230:	75 de                	jne    80105210 <procdump+0xa0>
80105232:	e9 51 ff ff ff       	jmp    80105188 <procdump+0x18>
80105237:	2e 8d b4 26 00 00 00 	lea    %cs:0x0(%esi,%eiz,1),%esi
8010523e:	00 
8010523f:	90                   	nop
	}
}
80105240:	8d 65 f4             	lea    -0xc(%ebp),%esp
80105243:	5b                   	pop    %ebx
80105244:	5e                   	pop    %esi
80105245:	5f                   	pop    %edi
80105246:	5d                   	pop    %ebp
80105247:	c3                   	ret
80105248:	66 90                	xchg   %ax,%ax
8010524a:	66 90                	xchg   %ax,%ax
8010524c:	66 90                	xchg   %ax,%ax
8010524e:	66 90                	xchg   %ax,%ax

80105250 <initsleeplock>:
#include "proc.h"
#include "spinlock.h"
#include "types.h"
#include "x86.h"

void initsleeplock(struct sleeplock *lk, char *name) {
80105250:	55                   	push   %ebp
80105251:	89 e5                	mov    %esp,%ebp
80105253:	53                   	push   %ebx
80105254:	83 ec 0c             	sub    $0xc,%esp
80105257:	8b 5d 08             	mov    0x8(%ebp),%ebx
	initlock(&lk->lk, "sleep lock");
8010525a:	68 54 b5 10 80       	push   $0x8010b554
8010525f:	8d 43 04             	lea    0x4(%ebx),%eax
80105262:	50                   	push   %eax
80105263:	e8 18 01 00 00       	call   80105380 <initlock>
	lk->name = name;
80105268:	8b 45 0c             	mov    0xc(%ebp),%eax
	lk->locked = 0;
8010526b:	c7 03 00 00 00 00    	movl   $0x0,(%ebx)
	lk->pid = 0;
}
80105271:	83 c4 10             	add    $0x10,%esp
	lk->pid = 0;
80105274:	c7 43 3c 00 00 00 00 	movl   $0x0,0x3c(%ebx)
	lk->name = name;
8010527b:	89 43 38             	mov    %eax,0x38(%ebx)
}
8010527e:	8b 5d fc             	mov    -0x4(%ebp),%ebx
80105281:	c9                   	leave
80105282:	c3                   	ret
80105283:	2e 8d b4 26 00 00 00 	lea    %cs:0x0(%esi,%eiz,1),%esi
8010528a:	00 
8010528b:	2e 8d 74 26 00       	lea    %cs:0x0(%esi,%eiz,1),%esi

80105290 <acquiresleep>:

void acquiresleep(struct sleeplock *lk) {
80105290:	55                   	push   %ebp
80105291:	89 e5                	mov    %esp,%ebp
80105293:	56                   	push   %esi
80105294:	53                   	push   %ebx
80105295:	8b 5d 08             	mov    0x8(%ebp),%ebx
	acquire(&lk->lk);
80105298:	8d 73 04             	lea    0x4(%ebx),%esi
8010529b:	83 ec 0c             	sub    $0xc,%esp
8010529e:	56                   	push   %esi
8010529f:	e8 cc 02 00 00       	call   80105570 <acquire>
	while (lk->locked) {
801052a4:	8b 13                	mov    (%ebx),%edx
801052a6:	83 c4 10             	add    $0x10,%esp
801052a9:	85 d2                	test   %edx,%edx
801052ab:	74 16                	je     801052c3 <acquiresleep+0x33>
801052ad:	8d 76 00             	lea    0x0(%esi),%esi
		sleep(lk, &lk->lk);
801052b0:	83 ec 08             	sub    $0x8,%esp
801052b3:	56                   	push   %esi
801052b4:	53                   	push   %ebx
801052b5:	e8 16 fd ff ff       	call   80104fd0 <sleep>
	while (lk->locked) {
801052ba:	8b 03                	mov    (%ebx),%eax
801052bc:	83 c4 10             	add    $0x10,%esp
801052bf:	85 c0                	test   %eax,%eax
801052c1:	75 ed                	jne    801052b0 <acquiresleep+0x20>
	}
	lk->locked = 1;
801052c3:	c7 03 01 00 00 00    	movl   $0x1,(%ebx)
	lk->pid = myproc()->pid;
801052c9:	e8 22 f6 ff ff       	call   801048f0 <myproc>
801052ce:	8b 40 10             	mov    0x10(%eax),%eax
801052d1:	89 43 3c             	mov    %eax,0x3c(%ebx)
	release(&lk->lk);
801052d4:	89 75 08             	mov    %esi,0x8(%ebp)
}
801052d7:	8d 65 f8             	lea    -0x8(%ebp),%esp
801052da:	5b                   	pop    %ebx
801052db:	5e                   	pop    %esi
801052dc:	5d                   	pop    %ebp
	release(&lk->lk);
801052dd:	e9 2e 02 00 00       	jmp    80105510 <release>
801052e2:	2e 8d b4 26 00 00 00 	lea    %cs:0x0(%esi,%eiz,1),%esi
801052e9:	00 
801052ea:	8d b6 00 00 00 00    	lea    0x0(%esi),%esi

801052f0 <releasesleep>:

void releasesleep(struct sleeplock *lk) {
801052f0:	55                   	push   %ebp
801052f1:	89 e5                	mov    %esp,%ebp
801052f3:	56                   	push   %esi
801052f4:	53                   	push   %ebx
801052f5:	8b 5d 08             	mov    0x8(%ebp),%ebx
	acquire(&lk->lk);
801052f8:	8d 73 04             	lea    0x4(%ebx),%esi
801052fb:	83 ec 0c             	sub    $0xc,%esp
801052fe:	56                   	push   %esi
801052ff:	e8 6c 02 00 00       	call   80105570 <acquire>
	lk->locked = 0;
80105304:	c7 03 00 00 00 00    	movl   $0x0,(%ebx)
	lk->pid = 0;
8010530a:	c7 43 3c 00 00 00 00 	movl   $0x0,0x3c(%ebx)
	wakeup(lk);
80105311:	89 1c 24             	mov    %ebx,(%esp)
80105314:	e8 77 fd ff ff       	call   80105090 <wakeup>
	release(&lk->lk);
80105319:	83 c4 10             	add    $0x10,%esp
8010531c:	89 75 08             	mov    %esi,0x8(%ebp)
}
8010531f:	8d 65 f8             	lea    -0x8(%ebp),%esp
80105322:	5b                   	pop    %ebx
80105323:	5e                   	pop    %esi
80105324:	5d                   	pop    %ebp
	release(&lk->lk);
80105325:	e9 e6 01 00 00       	jmp    80105510 <release>
8010532a:	8d b6 00 00 00 00    	lea    0x0(%esi),%esi

80105330 <holdingsleep>:

int holdingsleep(struct sleeplock *lk) {
80105330:	55                   	push   %ebp
80105331:	89 e5                	mov    %esp,%ebp
80105333:	57                   	push   %edi
80105334:	31 ff                	xor    %edi,%edi
80105336:	56                   	push   %esi
80105337:	53                   	push   %ebx
80105338:	83 ec 18             	sub    $0x18,%esp
8010533b:	8b 5d 08             	mov    0x8(%ebp),%ebx
	int r;

	acquire(&lk->lk);
8010533e:	8d 73 04             	lea    0x4(%ebx),%esi
80105341:	56                   	push   %esi
80105342:	e8 29 02 00 00       	call   80105570 <acquire>
	r = lk->locked && (lk->pid == myproc()->pid);
80105347:	8b 03                	mov    (%ebx),%eax
80105349:	83 c4 10             	add    $0x10,%esp
8010534c:	85 c0                	test   %eax,%eax
8010534e:	75 18                	jne    80105368 <holdingsleep+0x38>
	release(&lk->lk);
80105350:	83 ec 0c             	sub    $0xc,%esp
80105353:	56                   	push   %esi
80105354:	e8 b7 01 00 00       	call   80105510 <release>
	return r;
}
80105359:	8d 65 f4             	lea    -0xc(%ebp),%esp
8010535c:	89 f8                	mov    %edi,%eax
8010535e:	5b                   	pop    %ebx
8010535f:	5e                   	pop    %esi
80105360:	5f                   	pop    %edi
80105361:	5d                   	pop    %ebp
80105362:	c3                   	ret
80105363:	2e 8d 74 26 00       	lea    %cs:0x0(%esi,%eiz,1),%esi
	r = lk->locked && (lk->pid == myproc()->pid);
80105368:	8b 5b 3c             	mov    0x3c(%ebx),%ebx
8010536b:	e8 80 f5 ff ff       	call   801048f0 <myproc>
80105370:	39 58 10             	cmp    %ebx,0x10(%eax)
80105373:	0f 94 c0             	sete   %al
80105376:	0f b6 c0             	movzbl %al,%eax
80105379:	89 c7                	mov    %eax,%edi
8010537b:	eb d3                	jmp    80105350 <holdingsleep+0x20>
8010537d:	66 90                	xchg   %ax,%ax
8010537f:	90                   	nop

80105380 <initlock>:
#include "param.h"
#include "proc.h"
#include "types.h"
#include "x86.h"

void initlock(struct spinlock *lk, char *name) {
80105380:	55                   	push   %ebp
80105381:	89 e5                	mov    %esp,%ebp
80105383:	8b 45 08             	mov    0x8(%ebp),%eax
	lk->name = name;
80105386:	8b 55 0c             	mov    0xc(%ebp),%edx
	lk->locked = 0;
80105389:	c7 00 00 00 00 00    	movl   $0x0,(%eax)
	lk->name = name;
8010538f:	89 50 04             	mov    %edx,0x4(%eax)
	lk->cpu = 0;
80105392:	c7 40 08 00 00 00 00 	movl   $0x0,0x8(%eax)
}
80105399:	5d                   	pop    %ebp
8010539a:	c3                   	ret
8010539b:	2e 8d 74 26 00       	lea    %cs:0x0(%esi,%eiz,1),%esi

801053a0 <getcallerpcs>:

	popcli();
}

// Record the current call stack in pcs[] by following the %ebp chain.
void getcallerpcs(void *v, uint pcs[]) {
801053a0:	55                   	push   %ebp
801053a1:	89 e5                	mov    %esp,%ebp
801053a3:	53                   	push   %ebx
801053a4:	8b 45 08             	mov    0x8(%ebp),%eax
801053a7:	8b 4d 0c             	mov    0xc(%ebp),%ecx
	uint *ebp;
	int i;

	ebp = (uint *)v - 2;
801053aa:	8d 50 f8             	lea    -0x8(%eax),%edx
	for (i = 0; i < 10; i++) {
		if (ebp == 0 || ebp < (uint *)KERNBASE ||
801053ad:	05 f8 ff ff 7f       	add    $0x7ffffff8,%eax
801053b2:	3d fe ff ff 7f       	cmp    $0x7ffffffe,%eax
	for (i = 0; i < 10; i++) {
801053b7:	b8 00 00 00 00       	mov    $0x0,%eax
		if (ebp == 0 || ebp < (uint *)KERNBASE ||
801053bc:	76 10                	jbe    801053ce <getcallerpcs+0x2e>
801053be:	eb 28                	jmp    801053e8 <getcallerpcs+0x48>
801053c0:	8d 9a 00 00 00 80    	lea    -0x80000000(%edx),%ebx
801053c6:	81 fb fe ff ff 7f    	cmp    $0x7ffffffe,%ebx
801053cc:	77 1a                	ja     801053e8 <getcallerpcs+0x48>
		    ebp == (uint *)0xffffffff)
			break;
		pcs[i] = ebp[1];      // saved %eip
801053ce:	8b 5a 04             	mov    0x4(%edx),%ebx
801053d1:	89 1c 81             	mov    %ebx,(%ecx,%eax,4)
	for (i = 0; i < 10; i++) {
801053d4:	83 c0 01             	add    $0x1,%eax
		ebp = (uint *)ebp[0]; // saved %ebp
801053d7:	8b 12                	mov    (%edx),%edx
	for (i = 0; i < 10; i++) {
801053d9:	83 f8 0a             	cmp    $0xa,%eax
801053dc:	75 e2                	jne    801053c0 <getcallerpcs+0x20>
	}
	for (; i < 10; i++)
		pcs[i] = 0;
}
801053de:	8b 5d fc             	mov    -0x4(%ebp),%ebx
801053e1:	c9                   	leave
801053e2:	c3                   	ret
801053e3:	2e 8d 74 26 00       	lea    %cs:0x0(%esi,%eiz,1),%esi
801053e8:	8d 04 81             	lea    (%ecx,%eax,4),%eax
801053eb:	83 c1 28             	add    $0x28,%ecx
801053ee:	89 ca                	mov    %ecx,%edx
801053f0:	29 c2                	sub    %eax,%edx
801053f2:	83 e2 04             	and    $0x4,%edx
801053f5:	74 11                	je     80105408 <getcallerpcs+0x68>
		pcs[i] = 0;
801053f7:	c7 00 00 00 00 00    	movl   $0x0,(%eax)
	for (; i < 10; i++)
801053fd:	83 c0 04             	add    $0x4,%eax
80105400:	39 c1                	cmp    %eax,%ecx
80105402:	74 da                	je     801053de <getcallerpcs+0x3e>
80105404:	8d 74 26 00          	lea    0x0(%esi,%eiz,1),%esi
		pcs[i] = 0;
80105408:	c7 00 00 00 00 00    	movl   $0x0,(%eax)
	for (; i < 10; i++)
8010540e:	83 c0 08             	add    $0x8,%eax
		pcs[i] = 0;
80105411:	c7 40 fc 00 00 00 00 	movl   $0x0,-0x4(%eax)
	for (; i < 10; i++)
80105418:	39 c1                	cmp    %eax,%ecx
8010541a:	75 ec                	jne    80105408 <getcallerpcs+0x68>
8010541c:	eb c0                	jmp    801053de <getcallerpcs+0x3e>
8010541e:	66 90                	xchg   %ax,%ax

80105420 <pushcli>:

// Pushcli/popcli are like cli/sti except that they are matched:
// it takes two popcli to undo two pushcli.  Also, if interrupts
// are off, then pushcli, popcli leaves them off.

void pushcli(void) {
80105420:	55                   	push   %ebp
80105421:	89 e5                	mov    %esp,%ebp
80105423:	53                   	push   %ebx
80105424:	83 ec 04             	sub    $0x4,%esp
80105427:	9c                   	pushf
80105428:	5b                   	pop    %ebx
static inline void cli(void) { asm volatile("cli"); }
80105429:	fa                   	cli
	int eflags;

	eflags = readeflags();
	cli();
	if (mycpu()->ncli == 0)
8010542a:	e8 41 f4 ff ff       	call   80104870 <mycpu>
8010542f:	8b 80 a4 00 00 00    	mov    0xa4(%eax),%eax
80105435:	85 c0                	test   %eax,%eax
80105437:	74 17                	je     80105450 <pushcli+0x30>
		mycpu()->intena = eflags & FL_IF;
	mycpu()->ncli += 1;
80105439:	e8 32 f4 ff ff       	call   80104870 <mycpu>
8010543e:	83 80 a4 00 00 00 01 	addl   $0x1,0xa4(%eax)
}
80105445:	8b 5d fc             	mov    -0x4(%ebp),%ebx
80105448:	c9                   	leave
80105449:	c3                   	ret
8010544a:	8d b6 00 00 00 00    	lea    0x0(%esi),%esi
		mycpu()->intena = eflags & FL_IF;
80105450:	e8 1b f4 ff ff       	call   80104870 <mycpu>
80105455:	81 e3 00 02 00 00    	and    $0x200,%ebx
8010545b:	89 98 a8 00 00 00    	mov    %ebx,0xa8(%eax)
80105461:	eb d6                	jmp    80105439 <pushcli+0x19>
80105463:	2e 8d b4 26 00 00 00 	lea    %cs:0x0(%esi,%eiz,1),%esi
8010546a:	00 
8010546b:	2e 8d 74 26 00       	lea    %cs:0x0(%esi,%eiz,1),%esi

80105470 <popcli>:

void popcli(void) {
80105470:	55                   	push   %ebp
80105471:	89 e5                	mov    %esp,%ebp
80105473:	83 ec 08             	sub    $0x8,%esp
	asm volatile("pushfl; popl %0" : "=r"(eflags));
80105476:	9c                   	pushf
80105477:	58                   	pop    %eax
	if (readeflags() & FL_IF)
80105478:	f6 c4 02             	test   $0x2,%ah
8010547b:	75 35                	jne    801054b2 <popcli+0x42>
		panic("popcli - interruptible");
	if (--mycpu()->ncli < 0)
8010547d:	e8 ee f3 ff ff       	call   80104870 <mycpu>
80105482:	83 a8 a4 00 00 00 01 	subl   $0x1,0xa4(%eax)
80105489:	78 34                	js     801054bf <popcli+0x4f>
		panic("popcli");
	if (mycpu()->ncli == 0 && mycpu()->intena)
8010548b:	e8 e0 f3 ff ff       	call   80104870 <mycpu>
80105490:	8b 90 a4 00 00 00    	mov    0xa4(%eax),%edx
80105496:	85 d2                	test   %edx,%edx
80105498:	74 06                	je     801054a0 <popcli+0x30>
		sti();
}
8010549a:	c9                   	leave
8010549b:	c3                   	ret
8010549c:	8d 74 26 00          	lea    0x0(%esi,%eiz,1),%esi
	if (mycpu()->ncli == 0 && mycpu()->intena)
801054a0:	e8 cb f3 ff ff       	call   80104870 <mycpu>
801054a5:	8b 80 a8 00 00 00    	mov    0xa8(%eax),%eax
801054ab:	85 c0                	test   %eax,%eax
801054ad:	74 eb                	je     8010549a <popcli+0x2a>
static inline void sti(void) { asm volatile("sti"); }
801054af:	fb                   	sti
}
801054b0:	c9                   	leave
801054b1:	c3                   	ret
		panic("popcli - interruptible");
801054b2:	83 ec 0c             	sub    $0xc,%esp
801054b5:	68 5f b5 10 80       	push   $0x8010b55f
801054ba:	e8 31 b9 ff ff       	call   80100df0 <panic>
		panic("popcli");
801054bf:	83 ec 0c             	sub    $0xc,%esp
801054c2:	68 76 b5 10 80       	push   $0x8010b576
801054c7:	e8 24 b9 ff ff       	call   80100df0 <panic>
801054cc:	8d 74 26 00          	lea    0x0(%esi,%eiz,1),%esi

801054d0 <holding>:
int holding(struct spinlock *lock) {
801054d0:	55                   	push   %ebp
801054d1:	89 e5                	mov    %esp,%ebp
801054d3:	56                   	push   %esi
801054d4:	53                   	push   %ebx
801054d5:	8b 75 08             	mov    0x8(%ebp),%esi
801054d8:	31 db                	xor    %ebx,%ebx
	pushcli();
801054da:	e8 41 ff ff ff       	call   80105420 <pushcli>
	r = lock->locked && lock->cpu == mycpu();
801054df:	8b 06                	mov    (%esi),%eax
801054e1:	85 c0                	test   %eax,%eax
801054e3:	75 0b                	jne    801054f0 <holding+0x20>
	popcli();
801054e5:	e8 86 ff ff ff       	call   80105470 <popcli>
}
801054ea:	89 d8                	mov    %ebx,%eax
801054ec:	5b                   	pop    %ebx
801054ed:	5e                   	pop    %esi
801054ee:	5d                   	pop    %ebp
801054ef:	c3                   	ret
	r = lock->locked && lock->cpu == mycpu();
801054f0:	8b 5e 08             	mov    0x8(%esi),%ebx
801054f3:	e8 78 f3 ff ff       	call   80104870 <mycpu>
801054f8:	39 c3                	cmp    %eax,%ebx
801054fa:	0f 94 c3             	sete   %bl
	popcli();
801054fd:	e8 6e ff ff ff       	call   80105470 <popcli>
	r = lock->locked && lock->cpu == mycpu();
80105502:	0f b6 db             	movzbl %bl,%ebx
}
80105505:	89 d8                	mov    %ebx,%eax
80105507:	5b                   	pop    %ebx
80105508:	5e                   	pop    %esi
80105509:	5d                   	pop    %ebp
8010550a:	c3                   	ret
8010550b:	2e 8d 74 26 00       	lea    %cs:0x0(%esi,%eiz,1),%esi

80105510 <release>:
void release(struct spinlock *lk) {
80105510:	55                   	push   %ebp
80105511:	89 e5                	mov    %esp,%ebp
80105513:	56                   	push   %esi
80105514:	53                   	push   %ebx
80105515:	8b 5d 08             	mov    0x8(%ebp),%ebx
	pushcli();
80105518:	e8 03 ff ff ff       	call   80105420 <pushcli>
	r = lock->locked && lock->cpu == mycpu();
8010551d:	8b 03                	mov    (%ebx),%eax
8010551f:	85 c0                	test   %eax,%eax
80105521:	75 15                	jne    80105538 <release+0x28>
	popcli();
80105523:	e8 48 ff ff ff       	call   80105470 <popcli>
		panic("release");
80105528:	83 ec 0c             	sub    $0xc,%esp
8010552b:	68 7d b5 10 80       	push   $0x8010b57d
80105530:	e8 bb b8 ff ff       	call   80100df0 <panic>
80105535:	8d 76 00             	lea    0x0(%esi),%esi
	r = lock->locked && lock->cpu == mycpu();
80105538:	8b 73 08             	mov    0x8(%ebx),%esi
8010553b:	e8 30 f3 ff ff       	call   80104870 <mycpu>
80105540:	39 c6                	cmp    %eax,%esi
80105542:	75 df                	jne    80105523 <release+0x13>
	popcli();
80105544:	e8 27 ff ff ff       	call   80105470 <popcli>
	lk->pcs[0] = 0;
80105549:	c7 43 0c 00 00 00 00 	movl   $0x0,0xc(%ebx)
	lk->cpu = 0;
80105550:	c7 43 08 00 00 00 00 	movl   $0x0,0x8(%ebx)
	__sync_synchronize();
80105557:	f0 83 0c 24 00       	lock orl $0x0,(%esp)
	asm volatile("movl $0, %0" : "+m"(lk->locked) :);
8010555c:	c7 03 00 00 00 00    	movl   $0x0,(%ebx)
}
80105562:	8d 65 f8             	lea    -0x8(%ebp),%esp
80105565:	5b                   	pop    %ebx
80105566:	5e                   	pop    %esi
80105567:	5d                   	pop    %ebp
	popcli();
80105568:	e9 03 ff ff ff       	jmp    80105470 <popcli>
8010556d:	8d 76 00             	lea    0x0(%esi),%esi

80105570 <acquire>:
void acquire(struct spinlock *lk) {
80105570:	55                   	push   %ebp
80105571:	89 e5                	mov    %esp,%ebp
80105573:	53                   	push   %ebx
80105574:	83 ec 04             	sub    $0x4,%esp
	pushcli(); // disable interrupts to avoid deadlock.
80105577:	e8 a4 fe ff ff       	call   80105420 <pushcli>
	if (holding(lk))
8010557c:	8b 5d 08             	mov    0x8(%ebp),%ebx
	pushcli();
8010557f:	e8 9c fe ff ff       	call   80105420 <pushcli>
	r = lock->locked && lock->cpu == mycpu();
80105584:	8b 03                	mov    (%ebx),%eax
80105586:	85 c0                	test   %eax,%eax
80105588:	0f 85 b2 00 00 00    	jne    80105640 <acquire+0xd0>
	popcli();
8010558e:	e8 dd fe ff ff       	call   80105470 <popcli>
	asm volatile("lock; xchgl %0, %1"
80105593:	b9 01 00 00 00       	mov    $0x1,%ecx
80105598:	2e 8d b4 26 00 00 00 	lea    %cs:0x0(%esi,%eiz,1),%esi
8010559f:	00 
	while (xchg(&lk->locked, 1) != 0)
801055a0:	8b 55 08             	mov    0x8(%ebp),%edx
801055a3:	89 c8                	mov    %ecx,%eax
801055a5:	f0 87 02             	lock xchg %eax,(%edx)
801055a8:	85 c0                	test   %eax,%eax
801055aa:	75 f4                	jne    801055a0 <acquire+0x30>
	__sync_synchronize();
801055ac:	f0 83 0c 24 00       	lock orl $0x0,(%esp)
	lk->cpu = mycpu();
801055b1:	8b 5d 08             	mov    0x8(%ebp),%ebx
801055b4:	e8 b7 f2 ff ff       	call   80104870 <mycpu>
	getcallerpcs(&lk, lk->pcs);
801055b9:	8b 4d 08             	mov    0x8(%ebp),%ecx
	for (i = 0; i < 10; i++) {
801055bc:	31 d2                	xor    %edx,%edx
	lk->cpu = mycpu();
801055be:	89 43 08             	mov    %eax,0x8(%ebx)
		if (ebp == 0 || ebp < (uint *)KERNBASE ||
801055c1:	8d 85 00 00 00 80    	lea    -0x80000000(%ebp),%eax
801055c7:	3d fe ff ff 7f       	cmp    $0x7ffffffe,%eax
801055cc:	77 32                	ja     80105600 <acquire+0x90>
	ebp = (uint *)v - 2;
801055ce:	89 e8                	mov    %ebp,%eax
801055d0:	eb 14                	jmp    801055e6 <acquire+0x76>
801055d2:	8d b6 00 00 00 00    	lea    0x0(%esi),%esi
		if (ebp == 0 || ebp < (uint *)KERNBASE ||
801055d8:	8d 98 00 00 00 80    	lea    -0x80000000(%eax),%ebx
801055de:	81 fb fe ff ff 7f    	cmp    $0x7ffffffe,%ebx
801055e4:	77 1a                	ja     80105600 <acquire+0x90>
		pcs[i] = ebp[1];      // saved %eip
801055e6:	8b 58 04             	mov    0x4(%eax),%ebx
801055e9:	89 5c 91 0c          	mov    %ebx,0xc(%ecx,%edx,4)
	for (i = 0; i < 10; i++) {
801055ed:	83 c2 01             	add    $0x1,%edx
		ebp = (uint *)ebp[0]; // saved %ebp
801055f0:	8b 00                	mov    (%eax),%eax
	for (i = 0; i < 10; i++) {
801055f2:	83 fa 0a             	cmp    $0xa,%edx
801055f5:	75 e1                	jne    801055d8 <acquire+0x68>
}
801055f7:	8b 5d fc             	mov    -0x4(%ebp),%ebx
801055fa:	c9                   	leave
801055fb:	c3                   	ret
801055fc:	8d 74 26 00          	lea    0x0(%esi,%eiz,1),%esi
80105600:	8d 44 91 0c          	lea    0xc(%ecx,%edx,4),%eax
80105604:	83 c1 34             	add    $0x34,%ecx
80105607:	89 ca                	mov    %ecx,%edx
80105609:	29 c2                	sub    %eax,%edx
8010560b:	83 e2 04             	and    $0x4,%edx
8010560e:	74 10                	je     80105620 <acquire+0xb0>
		pcs[i] = 0;
80105610:	c7 00 00 00 00 00    	movl   $0x0,(%eax)
	for (; i < 10; i++)
80105616:	83 c0 04             	add    $0x4,%eax
80105619:	39 c1                	cmp    %eax,%ecx
8010561b:	74 da                	je     801055f7 <acquire+0x87>
8010561d:	8d 76 00             	lea    0x0(%esi),%esi
		pcs[i] = 0;
80105620:	c7 00 00 00 00 00    	movl   $0x0,(%eax)
	for (; i < 10; i++)
80105626:	83 c0 08             	add    $0x8,%eax
		pcs[i] = 0;
80105629:	c7 40 fc 00 00 00 00 	movl   $0x0,-0x4(%eax)
	for (; i < 10; i++)
80105630:	39 c1                	cmp    %eax,%ecx
80105632:	75 ec                	jne    80105620 <acquire+0xb0>
80105634:	eb c1                	jmp    801055f7 <acquire+0x87>
80105636:	2e 8d b4 26 00 00 00 	lea    %cs:0x0(%esi,%eiz,1),%esi
8010563d:	00 
8010563e:	66 90                	xchg   %ax,%ax
	r = lock->locked && lock->cpu == mycpu();
80105640:	8b 5b 08             	mov    0x8(%ebx),%ebx
80105643:	e8 28 f2 ff ff       	call   80104870 <mycpu>
80105648:	39 c3                	cmp    %eax,%ebx
8010564a:	0f 85 3e ff ff ff    	jne    8010558e <acquire+0x1e>
	popcli();
80105650:	e8 1b fe ff ff       	call   80105470 <popcli>
		panic("acquire");
80105655:	83 ec 0c             	sub    $0xc,%esp
80105658:	68 85 b5 10 80       	push   $0x8010b585
8010565d:	e8 8e b7 ff ff       	call   80100df0 <panic>
80105662:	66 90                	xchg   %ax,%ax
80105664:	66 90                	xchg   %ax,%ax
80105666:	66 90                	xchg   %ax,%ax
80105668:	66 90                	xchg   %ax,%ax
8010566a:	66 90                	xchg   %ax,%ax
8010566c:	66 90                	xchg   %ax,%ax
8010566e:	66 90                	xchg   %ax,%ax

80105670 <memset>:
#include "types.h"
#include "x86.h"

void *memset(void *dst, int c, uint n) {
80105670:	55                   	push   %ebp
80105671:	89 e5                	mov    %esp,%ebp
80105673:	57                   	push   %edi
80105674:	8b 55 08             	mov    0x8(%ebp),%edx
80105677:	8b 4d 10             	mov    0x10(%ebp),%ecx
	if ((int)dst % 4 == 0 && n % 4 == 0) {
8010567a:	89 d0                	mov    %edx,%eax
8010567c:	09 c8                	or     %ecx,%eax
8010567e:	a8 03                	test   $0x3,%al
80105680:	75 1e                	jne    801056a0 <memset+0x30>
		c &= 0xFF;
80105682:	0f b6 45 0c          	movzbl 0xc(%ebp),%eax
		stosl(dst, (c << 24) | (c << 16) | (c << 8) | c, n / 4);
80105686:	c1 e9 02             	shr    $0x2,%ecx
	asm volatile("cld; rep stosl"
80105689:	89 d7                	mov    %edx,%edi
8010568b:	69 c0 01 01 01 01    	imul   $0x1010101,%eax,%eax
80105691:	fc                   	cld
80105692:	f3 ab                	rep stos %eax,%es:(%edi)
	} else
		stosb(dst, c, n);
	return dst;
}
80105694:	8b 7d fc             	mov    -0x4(%ebp),%edi
80105697:	89 d0                	mov    %edx,%eax
80105699:	c9                   	leave
8010569a:	c3                   	ret
8010569b:	2e 8d 74 26 00       	lea    %cs:0x0(%esi,%eiz,1),%esi
	asm volatile("cld; rep stosb"
801056a0:	8b 45 0c             	mov    0xc(%ebp),%eax
801056a3:	89 d7                	mov    %edx,%edi
801056a5:	fc                   	cld
801056a6:	f3 aa                	rep stos %al,%es:(%edi)
801056a8:	8b 7d fc             	mov    -0x4(%ebp),%edi
801056ab:	89 d0                	mov    %edx,%eax
801056ad:	c9                   	leave
801056ae:	c3                   	ret
801056af:	90                   	nop

801056b0 <memcmp>:

int memcmp(const void *v1, const void *v2, uint n) {
801056b0:	55                   	push   %ebp
801056b1:	89 e5                	mov    %esp,%ebp
801056b3:	56                   	push   %esi
801056b4:	8b 75 10             	mov    0x10(%ebp),%esi
801056b7:	8b 45 08             	mov    0x8(%ebp),%eax
801056ba:	53                   	push   %ebx
801056bb:	8b 55 0c             	mov    0xc(%ebp),%edx
	const uchar *s1, *s2;

	s1 = v1;
	s2 = v2;
	while (n-- > 0) {
801056be:	85 f6                	test   %esi,%esi
801056c0:	74 2e                	je     801056f0 <memcmp+0x40>
801056c2:	01 c6                	add    %eax,%esi
801056c4:	eb 14                	jmp    801056da <memcmp+0x2a>
801056c6:	2e 8d b4 26 00 00 00 	lea    %cs:0x0(%esi,%eiz,1),%esi
801056cd:	00 
801056ce:	66 90                	xchg   %ax,%ax
		if (*s1 != *s2)
			return *s1 - *s2;
		s1++, s2++;
801056d0:	83 c0 01             	add    $0x1,%eax
801056d3:	83 c2 01             	add    $0x1,%edx
	while (n-- > 0) {
801056d6:	39 f0                	cmp    %esi,%eax
801056d8:	74 16                	je     801056f0 <memcmp+0x40>
		if (*s1 != *s2)
801056da:	0f b6 08             	movzbl (%eax),%ecx
801056dd:	0f b6 1a             	movzbl (%edx),%ebx
801056e0:	38 d9                	cmp    %bl,%cl
801056e2:	74 ec                	je     801056d0 <memcmp+0x20>
			return *s1 - *s2;
801056e4:	0f b6 c1             	movzbl %cl,%eax
801056e7:	29 d8                	sub    %ebx,%eax
	}

	return 0;
}
801056e9:	5b                   	pop    %ebx
801056ea:	5e                   	pop    %esi
801056eb:	5d                   	pop    %ebp
801056ec:	c3                   	ret
801056ed:	8d 76 00             	lea    0x0(%esi),%esi
801056f0:	5b                   	pop    %ebx
	return 0;
801056f1:	31 c0                	xor    %eax,%eax
}
801056f3:	5e                   	pop    %esi
801056f4:	5d                   	pop    %ebp
801056f5:	c3                   	ret
801056f6:	2e 8d b4 26 00 00 00 	lea    %cs:0x0(%esi,%eiz,1),%esi
801056fd:	00 
801056fe:	66 90                	xchg   %ax,%ax

80105700 <memmove>:

void *memmove(void *dst, const void *src, uint n) {
80105700:	55                   	push   %ebp
80105701:	89 e5                	mov    %esp,%ebp
80105703:	57                   	push   %edi
80105704:	8b 55 08             	mov    0x8(%ebp),%edx
80105707:	8b 45 10             	mov    0x10(%ebp),%eax
8010570a:	56                   	push   %esi
8010570b:	8b 75 0c             	mov    0xc(%ebp),%esi
	const char *s;
	char *d;

	s = src;
	d = dst;
	if (s < d && s + n > d) {
8010570e:	39 d6                	cmp    %edx,%esi
80105710:	73 26                	jae    80105738 <memmove+0x38>
80105712:	8d 0c 06             	lea    (%esi,%eax,1),%ecx
80105715:	39 ca                	cmp    %ecx,%edx
80105717:	73 1f                	jae    80105738 <memmove+0x38>
		s += n;
		d += n;
		while (n-- > 0)
80105719:	85 c0                	test   %eax,%eax
8010571b:	74 0f                	je     8010572c <memmove+0x2c>
8010571d:	83 e8 01             	sub    $0x1,%eax
			*--d = *--s;
80105720:	0f b6 0c 06          	movzbl (%esi,%eax,1),%ecx
80105724:	88 0c 02             	mov    %cl,(%edx,%eax,1)
		while (n-- > 0)
80105727:	83 e8 01             	sub    $0x1,%eax
8010572a:	73 f4                	jae    80105720 <memmove+0x20>
	} else
		while (n-- > 0)
			*d++ = *s++;

	return dst;
}
8010572c:	5e                   	pop    %esi
8010572d:	89 d0                	mov    %edx,%eax
8010572f:	5f                   	pop    %edi
80105730:	5d                   	pop    %ebp
80105731:	c3                   	ret
80105732:	8d b6 00 00 00 00    	lea    0x0(%esi),%esi
		while (n-- > 0)
80105738:	8d 0c 06             	lea    (%esi,%eax,1),%ecx
8010573b:	89 d7                	mov    %edx,%edi
8010573d:	85 c0                	test   %eax,%eax
8010573f:	74 eb                	je     8010572c <memmove+0x2c>
80105741:	8d b4 26 00 00 00 00 	lea    0x0(%esi,%eiz,1),%esi
			*d++ = *s++;
80105748:	a4                   	movsb  %ds:(%esi),%es:(%edi)
		while (n-- > 0)
80105749:	39 ce                	cmp    %ecx,%esi
8010574b:	75 fb                	jne    80105748 <memmove+0x48>
}
8010574d:	5e                   	pop    %esi
8010574e:	89 d0                	mov    %edx,%eax
80105750:	5f                   	pop    %edi
80105751:	5d                   	pop    %ebp
80105752:	c3                   	ret
80105753:	2e 8d b4 26 00 00 00 	lea    %cs:0x0(%esi,%eiz,1),%esi
8010575a:	00 
8010575b:	2e 8d 74 26 00       	lea    %cs:0x0(%esi,%eiz,1),%esi

80105760 <memcpy>:

// memcpy exists to placate GCC.  Use memmove.
void *memcpy(void *dst, const void *src, uint n) {
	return memmove(dst, src, n);
80105760:	eb 9e                	jmp    80105700 <memmove>
80105762:	2e 8d b4 26 00 00 00 	lea    %cs:0x0(%esi,%eiz,1),%esi
80105769:	00 
8010576a:	8d b6 00 00 00 00    	lea    0x0(%esi),%esi

80105770 <strncmp>:
}

int strncmp(const char *p, const char *q, uint n) {
80105770:	55                   	push   %ebp
80105771:	89 e5                	mov    %esp,%ebp
80105773:	53                   	push   %ebx
80105774:	8b 55 10             	mov    0x10(%ebp),%edx
80105777:	8b 45 08             	mov    0x8(%ebp),%eax
8010577a:	8b 4d 0c             	mov    0xc(%ebp),%ecx
	while (n > 0 && *p && *p == *q)
8010577d:	85 d2                	test   %edx,%edx
8010577f:	75 16                	jne    80105797 <strncmp+0x27>
80105781:	eb 2d                	jmp    801057b0 <strncmp+0x40>
80105783:	2e 8d 74 26 00       	lea    %cs:0x0(%esi,%eiz,1),%esi
80105788:	3a 19                	cmp    (%ecx),%bl
8010578a:	75 12                	jne    8010579e <strncmp+0x2e>
		n--, p++, q++;
8010578c:	83 c0 01             	add    $0x1,%eax
8010578f:	83 c1 01             	add    $0x1,%ecx
	while (n > 0 && *p && *p == *q)
80105792:	83 ea 01             	sub    $0x1,%edx
80105795:	74 19                	je     801057b0 <strncmp+0x40>
80105797:	0f b6 18             	movzbl (%eax),%ebx
8010579a:	84 db                	test   %bl,%bl
8010579c:	75 ea                	jne    80105788 <strncmp+0x18>
	if (n == 0)
		return 0;
	return (uchar)*p - (uchar)*q;
8010579e:	0f b6 00             	movzbl (%eax),%eax
801057a1:	0f b6 11             	movzbl (%ecx),%edx
}
801057a4:	8b 5d fc             	mov    -0x4(%ebp),%ebx
801057a7:	c9                   	leave
	return (uchar)*p - (uchar)*q;
801057a8:	29 d0                	sub    %edx,%eax
}
801057aa:	c3                   	ret
801057ab:	2e 8d 74 26 00       	lea    %cs:0x0(%esi,%eiz,1),%esi
801057b0:	8b 5d fc             	mov    -0x4(%ebp),%ebx
		return 0;
801057b3:	31 c0                	xor    %eax,%eax
}
801057b5:	c9                   	leave
801057b6:	c3                   	ret
801057b7:	2e 8d b4 26 00 00 00 	lea    %cs:0x0(%esi,%eiz,1),%esi
801057be:	00 
801057bf:	90                   	nop

801057c0 <strncpy>:

char *strncpy(char *s, const char *t, int n) {
801057c0:	55                   	push   %ebp
801057c1:	89 e5                	mov    %esp,%ebp
801057c3:	57                   	push   %edi
801057c4:	56                   	push   %esi
801057c5:	8b 75 08             	mov    0x8(%ebp),%esi
801057c8:	53                   	push   %ebx
801057c9:	8b 55 10             	mov    0x10(%ebp),%edx
	char *os;

	os = s;
	while (n-- > 0 && (*s++ = *t++) != 0)
801057cc:	89 f0                	mov    %esi,%eax
801057ce:	eb 15                	jmp    801057e5 <strncpy+0x25>
801057d0:	83 45 0c 01          	addl   $0x1,0xc(%ebp)
801057d4:	8b 7d 0c             	mov    0xc(%ebp),%edi
801057d7:	83 c0 01             	add    $0x1,%eax
801057da:	0f b6 4f ff          	movzbl -0x1(%edi),%ecx
801057de:	88 48 ff             	mov    %cl,-0x1(%eax)
801057e1:	84 c9                	test   %cl,%cl
801057e3:	74 13                	je     801057f8 <strncpy+0x38>
801057e5:	89 d3                	mov    %edx,%ebx
801057e7:	83 ea 01             	sub    $0x1,%edx
801057ea:	85 db                	test   %ebx,%ebx
801057ec:	7f e2                	jg     801057d0 <strncpy+0x10>
		;
	while (n-- > 0)
		*s++ = 0;
	return os;
}
801057ee:	5b                   	pop    %ebx
801057ef:	89 f0                	mov    %esi,%eax
801057f1:	5e                   	pop    %esi
801057f2:	5f                   	pop    %edi
801057f3:	5d                   	pop    %ebp
801057f4:	c3                   	ret
801057f5:	8d 76 00             	lea    0x0(%esi),%esi
	while (n-- > 0)
801057f8:	8d 0c 18             	lea    (%eax,%ebx,1),%ecx
801057fb:	83 e9 01             	sub    $0x1,%ecx
801057fe:	85 d2                	test   %edx,%edx
80105800:	74 ec                	je     801057ee <strncpy+0x2e>
80105802:	8d b6 00 00 00 00    	lea    0x0(%esi),%esi
		*s++ = 0;
80105808:	83 c0 01             	add    $0x1,%eax
8010580b:	89 ca                	mov    %ecx,%edx
8010580d:	c6 40 ff 00          	movb   $0x0,-0x1(%eax)
	while (n-- > 0)
80105811:	29 c2                	sub    %eax,%edx
80105813:	85 d2                	test   %edx,%edx
80105815:	7f f1                	jg     80105808 <strncpy+0x48>
}
80105817:	5b                   	pop    %ebx
80105818:	89 f0                	mov    %esi,%eax
8010581a:	5e                   	pop    %esi
8010581b:	5f                   	pop    %edi
8010581c:	5d                   	pop    %ebp
8010581d:	c3                   	ret
8010581e:	66 90                	xchg   %ax,%ax

80105820 <safestrcpy>:

// Like strncpy but guaranteed to NUL-terminate.
char *safestrcpy(char *s, const char *t, int n) {
80105820:	55                   	push   %ebp
80105821:	89 e5                	mov    %esp,%ebp
80105823:	56                   	push   %esi
80105824:	8b 55 10             	mov    0x10(%ebp),%edx
80105827:	8b 75 08             	mov    0x8(%ebp),%esi
8010582a:	53                   	push   %ebx
8010582b:	8b 45 0c             	mov    0xc(%ebp),%eax
	char *os;

	os = s;
	if (n <= 0)
8010582e:	85 d2                	test   %edx,%edx
80105830:	7e 25                	jle    80105857 <safestrcpy+0x37>
80105832:	8d 5c 10 ff          	lea    -0x1(%eax,%edx,1),%ebx
80105836:	89 f2                	mov    %esi,%edx
80105838:	eb 16                	jmp    80105850 <safestrcpy+0x30>
8010583a:	8d b6 00 00 00 00    	lea    0x0(%esi),%esi
		return os;
	while (--n > 0 && (*s++ = *t++) != 0)
80105840:	0f b6 08             	movzbl (%eax),%ecx
80105843:	83 c0 01             	add    $0x1,%eax
80105846:	83 c2 01             	add    $0x1,%edx
80105849:	88 4a ff             	mov    %cl,-0x1(%edx)
8010584c:	84 c9                	test   %cl,%cl
8010584e:	74 04                	je     80105854 <safestrcpy+0x34>
80105850:	39 d8                	cmp    %ebx,%eax
80105852:	75 ec                	jne    80105840 <safestrcpy+0x20>
		;
	*s = 0;
80105854:	c6 02 00             	movb   $0x0,(%edx)
	return os;
}
80105857:	89 f0                	mov    %esi,%eax
80105859:	5b                   	pop    %ebx
8010585a:	5e                   	pop    %esi
8010585b:	5d                   	pop    %ebp
8010585c:	c3                   	ret
8010585d:	8d 76 00             	lea    0x0(%esi),%esi

80105860 <strlen>:

int strlen(const char *s) {
80105860:	55                   	push   %ebp
	int n;

	for (n = 0; s[n]; n++)
80105861:	31 c0                	xor    %eax,%eax
int strlen(const char *s) {
80105863:	89 e5                	mov    %esp,%ebp
80105865:	8b 55 08             	mov    0x8(%ebp),%edx
	for (n = 0; s[n]; n++)
80105868:	80 3a 00             	cmpb   $0x0,(%edx)
8010586b:	74 0c                	je     80105879 <strlen+0x19>
8010586d:	8d 76 00             	lea    0x0(%esi),%esi
80105870:	83 c0 01             	add    $0x1,%eax
80105873:	80 3c 02 00          	cmpb   $0x0,(%edx,%eax,1)
80105877:	75 f7                	jne    80105870 <strlen+0x10>
		;
	return n;
}
80105879:	5d                   	pop    %ebp
8010587a:	c3                   	ret

8010587b <swtch>:
#   new: The stack pointer of the thread to switch to.

.globl swtch
swtch:
  # Load arguments into registers for manipulation
  movl 4(%esp), %eax
8010587b:	8b 44 24 04          	mov    0x4(%esp),%eax
  movl 8(%esp), %edx
8010587f:	8b 54 24 08          	mov    0x8(%esp),%edx

  # Save callee-saved registers onto the current stack
  # This builds the context structure for the outgoing task
  pushl %ebp
80105883:	55                   	push   %ebp
  pushl %ebx
80105884:	53                   	push   %ebx
  pushl %esi
80105885:	56                   	push   %esi
  pushl %edi
80105886:	57                   	push   %edi

  # Execute the stack switch
  movl %esp, (%eax)  # Store current ESP into the old context pointer
80105887:	89 20                	mov    %esp,(%eax)
  movl %edx, %esp    # Set the new ESP from the target context
80105889:	89 d4                	mov    %edx,%esp

  # Restore callee-saved registers from the newly loaded stack
  # The order follows the LIFO principle relative to the push sequence
  popl %edi
8010588b:	5f                   	pop    %edi
  popl %esi
8010588c:	5e                   	pop    %esi
  popl %ebx
8010588d:	5b                   	pop    %ebx
  popl %ebp
8010588e:	5d                   	pop    %ebp

  # Return to the caller in the context of the new thread
8010588f:	c3                   	ret

80105890 <fetchint>:
#include "proc.h"
#include "types.h"
#include "x86.h"

// Fetch an integer from the user process stack at addr.
int fetchint(uint addr, int *ip) {
80105890:	55                   	push   %ebp
80105891:	89 e5                	mov    %esp,%ebp
80105893:	53                   	push   %ebx
80105894:	83 ec 04             	sub    $0x4,%esp
80105897:	8b 5d 08             	mov    0x8(%ebp),%ebx
	struct proc *curproc = myproc();
8010589a:	e8 51 f0 ff ff       	call   801048f0 <myproc>
	if (addr >= curproc->sz || addr + 4 > curproc->sz)
8010589f:	8b 00                	mov    (%eax),%eax
801058a1:	39 c3                	cmp    %eax,%ebx
801058a3:	73 1b                	jae    801058c0 <fetchint+0x30>
801058a5:	8d 53 04             	lea    0x4(%ebx),%edx
801058a8:	39 d0                	cmp    %edx,%eax
801058aa:	72 14                	jb     801058c0 <fetchint+0x30>
		return -1;
	*ip = *(int *)(addr);
801058ac:	8b 45 0c             	mov    0xc(%ebp),%eax
801058af:	8b 13                	mov    (%ebx),%edx
801058b1:	89 10                	mov    %edx,(%eax)
	return 0;
801058b3:	31 c0                	xor    %eax,%eax
}
801058b5:	8b 5d fc             	mov    -0x4(%ebp),%ebx
801058b8:	c9                   	leave
801058b9:	c3                   	ret
801058ba:	8d b6 00 00 00 00    	lea    0x0(%esi),%esi
		return -1;
801058c0:	b8 ff ff ff ff       	mov    $0xffffffff,%eax
801058c5:	eb ee                	jmp    801058b5 <fetchint+0x25>
801058c7:	2e 8d b4 26 00 00 00 	lea    %cs:0x0(%esi,%eiz,1),%esi
801058ce:	00 
801058cf:	90                   	nop

801058d0 <fetchstr>:

// Fetch a null-terminated string from the user process at addr.
int fetchstr(uint addr, char **pp) {
801058d0:	55                   	push   %ebp
801058d1:	89 e5                	mov    %esp,%ebp
801058d3:	53                   	push   %ebx
801058d4:	83 ec 04             	sub    $0x4,%esp
801058d7:	8b 5d 08             	mov    0x8(%ebp),%ebx
	char *s, *ep;
	struct proc *curproc = myproc();
801058da:	e8 11 f0 ff ff       	call   801048f0 <myproc>
	if (addr >= curproc->sz)
801058df:	3b 18                	cmp    (%eax),%ebx
801058e1:	73 2d                	jae    80105910 <fetchstr+0x40>
		return -1;
	*pp = (char *)addr;
801058e3:	8b 55 0c             	mov    0xc(%ebp),%edx
801058e6:	89 1a                	mov    %ebx,(%edx)
	ep = (char *)curproc->sz;
801058e8:	8b 10                	mov    (%eax),%edx
	for (s = *pp; s < ep; s++) {
801058ea:	39 d3                	cmp    %edx,%ebx
801058ec:	73 22                	jae    80105910 <fetchstr+0x40>
801058ee:	89 d8                	mov    %ebx,%eax
801058f0:	eb 0d                	jmp    801058ff <fetchstr+0x2f>
801058f2:	8d b6 00 00 00 00    	lea    0x0(%esi),%esi
801058f8:	83 c0 01             	add    $0x1,%eax
801058fb:	39 d0                	cmp    %edx,%eax
801058fd:	73 11                	jae    80105910 <fetchstr+0x40>
		if (*s == 0)
801058ff:	80 38 00             	cmpb   $0x0,(%eax)
80105902:	75 f4                	jne    801058f8 <fetchstr+0x28>
			return s - *pp;
80105904:	29 d8                	sub    %ebx,%eax
	}
	return -1;
}
80105906:	8b 5d fc             	mov    -0x4(%ebp),%ebx
80105909:	c9                   	leave
8010590a:	c3                   	ret
8010590b:	2e 8d 74 26 00       	lea    %cs:0x0(%esi,%eiz,1),%esi
80105910:	8b 5d fc             	mov    -0x4(%ebp),%ebx
		return -1;
80105913:	b8 ff ff ff ff       	mov    $0xffffffff,%eax
}
80105918:	c9                   	leave
80105919:	c3                   	ret
8010591a:	8d b6 00 00 00 00    	lea    0x0(%esi),%esi

80105920 <argint>:

// Helper to get the n-th system call argument (as an integer).
int argint(int n, int *ip) {
80105920:	55                   	push   %ebp
80105921:	89 e5                	mov    %esp,%ebp
80105923:	56                   	push   %esi
80105924:	53                   	push   %ebx
	return fetchint((myproc()->tf->esp) + 4 + 4 * n, ip);
80105925:	e8 c6 ef ff ff       	call   801048f0 <myproc>
8010592a:	8b 55 08             	mov    0x8(%ebp),%edx
8010592d:	8b 40 18             	mov    0x18(%eax),%eax
80105930:	8b 40 44             	mov    0x44(%eax),%eax
80105933:	8d 1c 90             	lea    (%eax,%edx,4),%ebx
	struct proc *curproc = myproc();
80105936:	e8 b5 ef ff ff       	call   801048f0 <myproc>
	return fetchint((myproc()->tf->esp) + 4 + 4 * n, ip);
8010593b:	8d 73 04             	lea    0x4(%ebx),%esi
	if (addr >= curproc->sz || addr + 4 > curproc->sz)
8010593e:	8b 00                	mov    (%eax),%eax
80105940:	39 c6                	cmp    %eax,%esi
80105942:	73 1c                	jae    80105960 <argint+0x40>
80105944:	8d 53 08             	lea    0x8(%ebx),%edx
80105947:	39 d0                	cmp    %edx,%eax
80105949:	72 15                	jb     80105960 <argint+0x40>
	*ip = *(int *)(addr);
8010594b:	8b 45 0c             	mov    0xc(%ebp),%eax
8010594e:	8b 53 04             	mov    0x4(%ebx),%edx
80105951:	89 10                	mov    %edx,(%eax)
	return 0;
80105953:	31 c0                	xor    %eax,%eax
}
80105955:	5b                   	pop    %ebx
80105956:	5e                   	pop    %esi
80105957:	5d                   	pop    %ebp
80105958:	c3                   	ret
80105959:	8d b4 26 00 00 00 00 	lea    0x0(%esi,%eiz,1),%esi
		return -1;
80105960:	b8 ff ff ff ff       	mov    $0xffffffff,%eax
	return fetchint((myproc()->tf->esp) + 4 + 4 * n, ip);
80105965:	eb ee                	jmp    80105955 <argint+0x35>
80105967:	2e 8d b4 26 00 00 00 	lea    %cs:0x0(%esi,%eiz,1),%esi
8010596e:	00 
8010596f:	90                   	nop

80105970 <argptr>:

// Helper to get the n-th system call argument as a pointer.
// Check if the pointer and the data it points to are within the process's
// memory.
int argptr(int n, char **pp, int size) {
80105970:	55                   	push   %ebp
80105971:	89 e5                	mov    %esp,%ebp
80105973:	57                   	push   %edi
80105974:	56                   	push   %esi
80105975:	53                   	push   %ebx
80105976:	83 ec 0c             	sub    $0xc,%esp
	int i;
	struct proc *curproc = myproc();
80105979:	e8 72 ef ff ff       	call   801048f0 <myproc>
8010597e:	89 c6                	mov    %eax,%esi
	return fetchint((myproc()->tf->esp) + 4 + 4 * n, ip);
80105980:	e8 6b ef ff ff       	call   801048f0 <myproc>
80105985:	8b 55 08             	mov    0x8(%ebp),%edx
80105988:	8b 40 18             	mov    0x18(%eax),%eax
8010598b:	8b 40 44             	mov    0x44(%eax),%eax
8010598e:	8d 1c 90             	lea    (%eax,%edx,4),%ebx
	struct proc *curproc = myproc();
80105991:	e8 5a ef ff ff       	call   801048f0 <myproc>
	return fetchint((myproc()->tf->esp) + 4 + 4 * n, ip);
80105996:	8d 7b 04             	lea    0x4(%ebx),%edi
	if (addr >= curproc->sz || addr + 4 > curproc->sz)
80105999:	8b 00                	mov    (%eax),%eax
8010599b:	39 c7                	cmp    %eax,%edi
8010599d:	73 31                	jae    801059d0 <argptr+0x60>
8010599f:	8d 4b 08             	lea    0x8(%ebx),%ecx
801059a2:	39 c8                	cmp    %ecx,%eax
801059a4:	72 2a                	jb     801059d0 <argptr+0x60>
	if (argint(n, &i) < 0)
		return -1;
	if (size < 0 || (uint)i >= curproc->sz || (uint)i + size > curproc->sz)
801059a6:	8b 55 10             	mov    0x10(%ebp),%edx
	*ip = *(int *)(addr);
801059a9:	8b 43 04             	mov    0x4(%ebx),%eax
	if (size < 0 || (uint)i >= curproc->sz || (uint)i + size > curproc->sz)
801059ac:	85 d2                	test   %edx,%edx
801059ae:	78 20                	js     801059d0 <argptr+0x60>
801059b0:	8b 16                	mov    (%esi),%edx
801059b2:	39 d0                	cmp    %edx,%eax
801059b4:	73 1a                	jae    801059d0 <argptr+0x60>
801059b6:	8b 5d 10             	mov    0x10(%ebp),%ebx
801059b9:	01 c3                	add    %eax,%ebx
801059bb:	39 da                	cmp    %ebx,%edx
801059bd:	72 11                	jb     801059d0 <argptr+0x60>
		return -1;
	*pp = (char *)i;
801059bf:	8b 55 0c             	mov    0xc(%ebp),%edx
801059c2:	89 02                	mov    %eax,(%edx)
	return 0;
801059c4:	31 c0                	xor    %eax,%eax
}
801059c6:	83 c4 0c             	add    $0xc,%esp
801059c9:	5b                   	pop    %ebx
801059ca:	5e                   	pop    %esi
801059cb:	5f                   	pop    %edi
801059cc:	5d                   	pop    %ebp
801059cd:	c3                   	ret
801059ce:	66 90                	xchg   %ax,%ax
		return -1;
801059d0:	b8 ff ff ff ff       	mov    $0xffffffff,%eax
801059d5:	eb ef                	jmp    801059c6 <argptr+0x56>
801059d7:	2e 8d b4 26 00 00 00 	lea    %cs:0x0(%esi,%eiz,1),%esi
801059de:	00 
801059df:	90                   	nop

801059e0 <argstr>:

// Helper to get the n-th system call argument as a string pointer.
int argstr(int n, char **pp) {
801059e0:	55                   	push   %ebp
801059e1:	89 e5                	mov    %esp,%ebp
801059e3:	56                   	push   %esi
801059e4:	53                   	push   %ebx
	return fetchint((myproc()->tf->esp) + 4 + 4 * n, ip);
801059e5:	e8 06 ef ff ff       	call   801048f0 <myproc>
801059ea:	8b 55 08             	mov    0x8(%ebp),%edx
801059ed:	8b 40 18             	mov    0x18(%eax),%eax
801059f0:	8b 40 44             	mov    0x44(%eax),%eax
801059f3:	8d 1c 90             	lea    (%eax,%edx,4),%ebx
	struct proc *curproc = myproc();
801059f6:	e8 f5 ee ff ff       	call   801048f0 <myproc>
	return fetchint((myproc()->tf->esp) + 4 + 4 * n, ip);
801059fb:	8d 73 04             	lea    0x4(%ebx),%esi
	if (addr >= curproc->sz || addr + 4 > curproc->sz)
801059fe:	8b 00                	mov    (%eax),%eax
80105a00:	39 c6                	cmp    %eax,%esi
80105a02:	73 44                	jae    80105a48 <argstr+0x68>
80105a04:	8d 53 08             	lea    0x8(%ebx),%edx
80105a07:	39 d0                	cmp    %edx,%eax
80105a09:	72 3d                	jb     80105a48 <argstr+0x68>
	*ip = *(int *)(addr);
80105a0b:	8b 5b 04             	mov    0x4(%ebx),%ebx
	struct proc *curproc = myproc();
80105a0e:	e8 dd ee ff ff       	call   801048f0 <myproc>
	if (addr >= curproc->sz)
80105a13:	3b 18                	cmp    (%eax),%ebx
80105a15:	73 31                	jae    80105a48 <argstr+0x68>
	*pp = (char *)addr;
80105a17:	8b 55 0c             	mov    0xc(%ebp),%edx
80105a1a:	89 1a                	mov    %ebx,(%edx)
	ep = (char *)curproc->sz;
80105a1c:	8b 10                	mov    (%eax),%edx
	for (s = *pp; s < ep; s++) {
80105a1e:	39 d3                	cmp    %edx,%ebx
80105a20:	73 26                	jae    80105a48 <argstr+0x68>
80105a22:	89 d8                	mov    %ebx,%eax
80105a24:	eb 11                	jmp    80105a37 <argstr+0x57>
80105a26:	2e 8d b4 26 00 00 00 	lea    %cs:0x0(%esi,%eiz,1),%esi
80105a2d:	00 
80105a2e:	66 90                	xchg   %ax,%ax
80105a30:	83 c0 01             	add    $0x1,%eax
80105a33:	39 d0                	cmp    %edx,%eax
80105a35:	73 11                	jae    80105a48 <argstr+0x68>
		if (*s == 0)
80105a37:	80 38 00             	cmpb   $0x0,(%eax)
80105a3a:	75 f4                	jne    80105a30 <argstr+0x50>
			return s - *pp;
80105a3c:	29 d8                	sub    %ebx,%eax
	int addr;
	if (argint(n, &addr) < 0)
		return -1;
	return fetchstr(addr, pp);
}
80105a3e:	5b                   	pop    %ebx
80105a3f:	5e                   	pop    %esi
80105a40:	5d                   	pop    %ebp
80105a41:	c3                   	ret
80105a42:	8d b6 00 00 00 00    	lea    0x0(%esi),%esi
80105a48:	5b                   	pop    %ebx
		return -1;
80105a49:	b8 ff ff ff ff       	mov    $0xffffffff,%eax
}
80105a4e:	5e                   	pop    %esi
80105a4f:	5d                   	pop    %ebp
80105a50:	c3                   	ret
80105a51:	2e 8d b4 26 00 00 00 	lea    %cs:0x0(%esi,%eiz,1),%esi
80105a58:	00 
80105a59:	8d b4 26 00 00 00 00 	lea    0x0(%esi,%eiz,1),%esi

80105a60 <syscall>:
	[SYS_reboot] sys_reboot,
	[SYS_get_rtc_time] sys_get_rtc_time,
	[SYS_get_rtc_date] sys_get_rtc_date,
};

void syscall(void) {
80105a60:	55                   	push   %ebp
80105a61:	89 e5                	mov    %esp,%ebp
80105a63:	53                   	push   %ebx
80105a64:	83 ec 04             	sub    $0x4,%esp
	int num;
	struct proc *curproc = myproc();
80105a67:	e8 84 ee ff ff       	call   801048f0 <myproc>
80105a6c:	89 c3                	mov    %eax,%ebx

	num = curproc->tf->eax;
80105a6e:	8b 40 18             	mov    0x18(%eax),%eax
80105a71:	8b 40 1c             	mov    0x1c(%eax),%eax
	if (num > 0 && num < NELEM(syscalls) && syscalls[num]) {
80105a74:	8d 50 ff             	lea    -0x1(%eax),%edx
80105a77:	83 fa 22             	cmp    $0x22,%edx
80105a7a:	77 24                	ja     80105aa0 <syscall+0x40>
80105a7c:	8b 14 85 80 bd 10 80 	mov    -0x7fef4280(,%eax,4),%edx
80105a83:	85 d2                	test   %edx,%edx
80105a85:	74 19                	je     80105aa0 <syscall+0x40>
		curproc->tf->eax = syscalls[num]();
80105a87:	ff d2                	call   *%edx
80105a89:	89 c2                	mov    %eax,%edx
80105a8b:	8b 43 18             	mov    0x18(%ebx),%eax
80105a8e:	89 50 1c             	mov    %edx,0x1c(%eax)
	} else {
		cprintf("%d %s: unknown sys call %d\n", curproc->pid,
			curproc->name, num);
		curproc->tf->eax = -1;
	}
80105a91:	8b 5d fc             	mov    -0x4(%ebp),%ebx
80105a94:	c9                   	leave
80105a95:	c3                   	ret
80105a96:	2e 8d b4 26 00 00 00 	lea    %cs:0x0(%esi,%eiz,1),%esi
80105a9d:	00 
80105a9e:	66 90                	xchg   %ax,%ax
		cprintf("%d %s: unknown sys call %d\n", curproc->pid,
80105aa0:	50                   	push   %eax
			curproc->name, num);
80105aa1:	8d 83 2c 01 00 00    	lea    0x12c(%ebx),%eax
		cprintf("%d %s: unknown sys call %d\n", curproc->pid,
80105aa7:	50                   	push   %eax
80105aa8:	ff 73 10             	push   0x10(%ebx)
80105aab:	68 8d b5 10 80       	push   $0x8010b58d
80105ab0:	e8 6b b6 ff ff       	call   80101120 <cprintf>
		curproc->tf->eax = -1;
80105ab5:	8b 43 18             	mov    0x18(%ebx),%eax
80105ab8:	83 c4 10             	add    $0x10,%esp
80105abb:	c7 40 1c ff ff ff ff 	movl   $0xffffffff,0x1c(%eax)
80105ac2:	8b 5d fc             	mov    -0x4(%ebp),%ebx
80105ac5:	c9                   	leave
80105ac6:	c3                   	ret
80105ac7:	66 90                	xchg   %ax,%ax
80105ac9:	66 90                	xchg   %ax,%ax
80105acb:	66 90                	xchg   %ax,%ax
80105acd:	66 90                	xchg   %ax,%ax
80105acf:	90                   	nop

80105ad0 <create>:
	iunlockput(dp);
	end_op();
	return -1;
}

static struct inode *create(char *path, short type, short major, short minor) {
80105ad0:	55                   	push   %ebp
80105ad1:	89 e5                	mov    %esp,%ebp
80105ad3:	57                   	push   %edi
80105ad4:	56                   	push   %esi
	struct inode *ip, *dp;
	char name[DIRSIZ];

	if ((dp = nameiparent(path, name)) == 0)
80105ad5:	8d 7d da             	lea    -0x26(%ebp),%edi
static struct inode *create(char *path, short type, short major, short minor) {
80105ad8:	53                   	push   %ebx
80105ad9:	83 ec 34             	sub    $0x34,%esp
80105adc:	89 4d d0             	mov    %ecx,-0x30(%ebp)
80105adf:	8b 4d 08             	mov    0x8(%ebp),%ecx
80105ae2:	89 55 d4             	mov    %edx,-0x2c(%ebp)
80105ae5:	89 4d cc             	mov    %ecx,-0x34(%ebp)
	if ((dp = nameiparent(path, name)) == 0)
80105ae8:	57                   	push   %edi
80105ae9:	50                   	push   %eax
80105aea:	e8 11 d4 ff ff       	call   80102f00 <nameiparent>
80105aef:	83 c4 10             	add    $0x10,%esp
80105af2:	85 c0                	test   %eax,%eax
80105af4:	74 5e                	je     80105b54 <create+0x84>
		return 0;
	ilock(dp);
80105af6:	83 ec 0c             	sub    $0xc,%esp
80105af9:	89 c3                	mov    %eax,%ebx
80105afb:	50                   	push   %eax
80105afc:	e8 7f c9 ff ff       	call   80102480 <ilock>

	if ((ip = dirlookup(dp, name, 0)) != 0) {
80105b01:	83 c4 0c             	add    $0xc,%esp
80105b04:	6a 00                	push   $0x0
80105b06:	57                   	push   %edi
80105b07:	53                   	push   %ebx
80105b08:	e8 23 d0 ff ff       	call   80102b30 <dirlookup>
80105b0d:	83 c4 10             	add    $0x10,%esp
80105b10:	89 c6                	mov    %eax,%esi
80105b12:	85 c0                	test   %eax,%eax
80105b14:	74 4a                	je     80105b60 <create+0x90>
		iunlockput(dp);
80105b16:	83 ec 0c             	sub    $0xc,%esp
80105b19:	53                   	push   %ebx
80105b1a:	e8 d1 cc ff ff       	call   801027f0 <iunlockput>
		ilock(ip);
80105b1f:	89 34 24             	mov    %esi,(%esp)
80105b22:	e8 59 c9 ff ff       	call   80102480 <ilock>
		if (type == T_FILE && ip->type == T_FILE)
80105b27:	83 c4 10             	add    $0x10,%esp
80105b2a:	66 83 7d d4 02       	cmpw   $0x2,-0x2c(%ebp)
80105b2f:	75 17                	jne    80105b48 <create+0x78>
80105b31:	66 83 7e 50 02       	cmpw   $0x2,0x50(%esi)
80105b36:	75 10                	jne    80105b48 <create+0x78>
		panic("create: dirlink");

	iunlockput(dp);

	return ip;
}
80105b38:	8d 65 f4             	lea    -0xc(%ebp),%esp
80105b3b:	89 f0                	mov    %esi,%eax
80105b3d:	5b                   	pop    %ebx
80105b3e:	5e                   	pop    %esi
80105b3f:	5f                   	pop    %edi
80105b40:	5d                   	pop    %ebp
80105b41:	c3                   	ret
80105b42:	8d b6 00 00 00 00    	lea    0x0(%esi),%esi
		iunlockput(ip);
80105b48:	83 ec 0c             	sub    $0xc,%esp
80105b4b:	56                   	push   %esi
80105b4c:	e8 9f cc ff ff       	call   801027f0 <iunlockput>
		return 0;
80105b51:	83 c4 10             	add    $0x10,%esp
}
80105b54:	8d 65 f4             	lea    -0xc(%ebp),%esp
		return 0;
80105b57:	31 f6                	xor    %esi,%esi
}
80105b59:	5b                   	pop    %ebx
80105b5a:	89 f0                	mov    %esi,%eax
80105b5c:	5e                   	pop    %esi
80105b5d:	5f                   	pop    %edi
80105b5e:	5d                   	pop    %ebp
80105b5f:	c3                   	ret
	if ((ip = ialloc(dp->dev, type)) == 0)
80105b60:	0f bf 45 d4          	movswl -0x2c(%ebp),%eax
80105b64:	83 ec 08             	sub    $0x8,%esp
80105b67:	50                   	push   %eax
80105b68:	ff 33                	push   (%ebx)
80105b6a:	e8 61 c7 ff ff       	call   801022d0 <ialloc>
80105b6f:	83 c4 10             	add    $0x10,%esp
80105b72:	89 c6                	mov    %eax,%esi
80105b74:	85 c0                	test   %eax,%eax
80105b76:	0f 84 bc 00 00 00    	je     80105c38 <create+0x168>
	ilock(ip);
80105b7c:	83 ec 0c             	sub    $0xc,%esp
80105b7f:	50                   	push   %eax
80105b80:	e8 fb c8 ff ff       	call   80102480 <ilock>
	ip->major = major;
80105b85:	0f b7 45 d0          	movzwl -0x30(%ebp),%eax
80105b89:	66 89 46 52          	mov    %ax,0x52(%esi)
	ip->minor = minor;
80105b8d:	0f b7 45 cc          	movzwl -0x34(%ebp),%eax
80105b91:	66 89 46 54          	mov    %ax,0x54(%esi)
	ip->nlink = 1;
80105b95:	b8 01 00 00 00       	mov    $0x1,%eax
80105b9a:	66 89 46 56          	mov    %ax,0x56(%esi)
	iupdate(ip);
80105b9e:	89 34 24             	mov    %esi,(%esp)
80105ba1:	e8 ea c7 ff ff       	call   80102390 <iupdate>
	if (type == T_DIR) { // Create . and .. entries.
80105ba6:	83 c4 10             	add    $0x10,%esp
80105ba9:	66 83 7d d4 01       	cmpw   $0x1,-0x2c(%ebp)
80105bae:	74 30                	je     80105be0 <create+0x110>
	if (dirlink(dp, name, ip->inum) < 0)
80105bb0:	83 ec 04             	sub    $0x4,%esp
80105bb3:	ff 76 04             	push   0x4(%esi)
80105bb6:	57                   	push   %edi
80105bb7:	53                   	push   %ebx
80105bb8:	e8 63 d2 ff ff       	call   80102e20 <dirlink>
80105bbd:	83 c4 10             	add    $0x10,%esp
80105bc0:	85 c0                	test   %eax,%eax
80105bc2:	78 67                	js     80105c2b <create+0x15b>
	iunlockput(dp);
80105bc4:	83 ec 0c             	sub    $0xc,%esp
80105bc7:	53                   	push   %ebx
80105bc8:	e8 23 cc ff ff       	call   801027f0 <iunlockput>
	return ip;
80105bcd:	83 c4 10             	add    $0x10,%esp
}
80105bd0:	8d 65 f4             	lea    -0xc(%ebp),%esp
80105bd3:	89 f0                	mov    %esi,%eax
80105bd5:	5b                   	pop    %ebx
80105bd6:	5e                   	pop    %esi
80105bd7:	5f                   	pop    %edi
80105bd8:	5d                   	pop    %ebp
80105bd9:	c3                   	ret
80105bda:	8d b6 00 00 00 00    	lea    0x0(%esi),%esi
		iupdate(dp);
80105be0:	83 ec 0c             	sub    $0xc,%esp
		dp->nlink++; // for ".."
80105be3:	66 83 43 56 01       	addw   $0x1,0x56(%ebx)
		iupdate(dp);
80105be8:	53                   	push   %ebx
80105be9:	e8 a2 c7 ff ff       	call   80102390 <iupdate>
		if (dirlink(ip, ".", ip->inum) < 0 ||
80105bee:	83 c4 0c             	add    $0xc,%esp
80105bf1:	ff 76 04             	push   0x4(%esi)
80105bf4:	68 c5 b5 10 80       	push   $0x8010b5c5
80105bf9:	56                   	push   %esi
80105bfa:	e8 21 d2 ff ff       	call   80102e20 <dirlink>
80105bff:	83 c4 10             	add    $0x10,%esp
80105c02:	85 c0                	test   %eax,%eax
80105c04:	78 18                	js     80105c1e <create+0x14e>
		    dirlink(ip, "..", dp->inum) < 0)
80105c06:	83 ec 04             	sub    $0x4,%esp
80105c09:	ff 73 04             	push   0x4(%ebx)
80105c0c:	68 c4 b5 10 80       	push   $0x8010b5c4
80105c11:	56                   	push   %esi
80105c12:	e8 09 d2 ff ff       	call   80102e20 <dirlink>
		if (dirlink(ip, ".", ip->inum) < 0 ||
80105c17:	83 c4 10             	add    $0x10,%esp
80105c1a:	85 c0                	test   %eax,%eax
80105c1c:	79 92                	jns    80105bb0 <create+0xe0>
			panic("create dots");
80105c1e:	83 ec 0c             	sub    $0xc,%esp
80105c21:	68 b8 b5 10 80       	push   $0x8010b5b8
80105c26:	e8 c5 b1 ff ff       	call   80100df0 <panic>
		panic("create: dirlink");
80105c2b:	83 ec 0c             	sub    $0xc,%esp
80105c2e:	68 c7 b5 10 80       	push   $0x8010b5c7
80105c33:	e8 b8 b1 ff ff       	call   80100df0 <panic>
		panic("create: ialloc");
80105c38:	83 ec 0c             	sub    $0xc,%esp
80105c3b:	68 a9 b5 10 80       	push   $0x8010b5a9
80105c40:	e8 ab b1 ff ff       	call   80100df0 <panic>
80105c45:	2e 8d b4 26 00 00 00 	lea    %cs:0x0(%esi,%eiz,1),%esi
80105c4c:	00 
80105c4d:	8d 76 00             	lea    0x0(%esi),%esi

80105c50 <sys_dup>:
int sys_dup(void) {
80105c50:	55                   	push   %ebp
80105c51:	89 e5                	mov    %esp,%ebp
80105c53:	56                   	push   %esi
80105c54:	53                   	push   %ebx
	if (argint(n, &fd) < 0)
80105c55:	8d 45 f4             	lea    -0xc(%ebp),%eax
int sys_dup(void) {
80105c58:	83 ec 18             	sub    $0x18,%esp
	if (argint(n, &fd) < 0)
80105c5b:	50                   	push   %eax
80105c5c:	6a 00                	push   $0x0
80105c5e:	e8 bd fc ff ff       	call   80105920 <argint>
80105c63:	83 c4 10             	add    $0x10,%esp
80105c66:	85 c0                	test   %eax,%eax
80105c68:	78 56                	js     80105cc0 <sys_dup+0x70>
	if (fd < 0 || fd >= NOFILE || (f = myproc()->ofile[fd]) == 0)
80105c6a:	83 7d f4 3f          	cmpl   $0x3f,-0xc(%ebp)
80105c6e:	77 50                	ja     80105cc0 <sys_dup+0x70>
80105c70:	e8 7b ec ff ff       	call   801048f0 <myproc>
80105c75:	8b 55 f4             	mov    -0xc(%ebp),%edx
80105c78:	8b 74 90 28          	mov    0x28(%eax,%edx,4),%esi
80105c7c:	85 f6                	test   %esi,%esi
80105c7e:	74 40                	je     80105cc0 <sys_dup+0x70>
	struct proc *curproc = myproc();
80105c80:	e8 6b ec ff ff       	call   801048f0 <myproc>
	for (fd = 0; fd < NOFILE; fd++) {
80105c85:	31 db                	xor    %ebx,%ebx
80105c87:	eb 0f                	jmp    80105c98 <sys_dup+0x48>
80105c89:	8d b4 26 00 00 00 00 	lea    0x0(%esi,%eiz,1),%esi
80105c90:	83 c3 01             	add    $0x1,%ebx
80105c93:	83 fb 40             	cmp    $0x40,%ebx
80105c96:	74 28                	je     80105cc0 <sys_dup+0x70>
		if (curproc->ofile[fd] == 0) {
80105c98:	8b 54 98 28          	mov    0x28(%eax,%ebx,4),%edx
80105c9c:	85 d2                	test   %edx,%edx
80105c9e:	75 f0                	jne    80105c90 <sys_dup+0x40>
	filedup(f);
80105ca0:	83 ec 0c             	sub    $0xc,%esp
			curproc->ofile[fd] = f;
80105ca3:	89 74 98 28          	mov    %esi,0x28(%eax,%ebx,4)
	filedup(f);
80105ca7:	56                   	push   %esi
80105ca8:	e8 83 bc ff ff       	call   80101930 <filedup>
	return fd;
80105cad:	83 c4 10             	add    $0x10,%esp
}
80105cb0:	8d 65 f8             	lea    -0x8(%ebp),%esp
80105cb3:	89 d8                	mov    %ebx,%eax
80105cb5:	5b                   	pop    %ebx
80105cb6:	5e                   	pop    %esi
80105cb7:	5d                   	pop    %ebp
80105cb8:	c3                   	ret
80105cb9:	8d b4 26 00 00 00 00 	lea    0x0(%esi,%eiz,1),%esi
80105cc0:	8d 65 f8             	lea    -0x8(%ebp),%esp
		return -1;
80105cc3:	bb ff ff ff ff       	mov    $0xffffffff,%ebx
}
80105cc8:	89 d8                	mov    %ebx,%eax
80105cca:	5b                   	pop    %ebx
80105ccb:	5e                   	pop    %esi
80105ccc:	5d                   	pop    %ebp
80105ccd:	c3                   	ret
80105cce:	66 90                	xchg   %ax,%ax

80105cd0 <sys_read>:
int sys_read(void) {
80105cd0:	55                   	push   %ebp
80105cd1:	89 e5                	mov    %esp,%ebp
80105cd3:	56                   	push   %esi
80105cd4:	53                   	push   %ebx
	if (argint(n, &fd) < 0)
80105cd5:	8d 5d f4             	lea    -0xc(%ebp),%ebx
int sys_read(void) {
80105cd8:	83 ec 18             	sub    $0x18,%esp
	if (argint(n, &fd) < 0)
80105cdb:	53                   	push   %ebx
80105cdc:	6a 00                	push   $0x0
80105cde:	e8 3d fc ff ff       	call   80105920 <argint>
80105ce3:	83 c4 10             	add    $0x10,%esp
80105ce6:	85 c0                	test   %eax,%eax
80105ce8:	78 5e                	js     80105d48 <sys_read+0x78>
	if (fd < 0 || fd >= NOFILE || (f = myproc()->ofile[fd]) == 0)
80105cea:	83 7d f4 3f          	cmpl   $0x3f,-0xc(%ebp)
80105cee:	77 58                	ja     80105d48 <sys_read+0x78>
80105cf0:	e8 fb eb ff ff       	call   801048f0 <myproc>
80105cf5:	8b 55 f4             	mov    -0xc(%ebp),%edx
80105cf8:	8b 74 90 28          	mov    0x28(%eax,%edx,4),%esi
80105cfc:	85 f6                	test   %esi,%esi
80105cfe:	74 48                	je     80105d48 <sys_read+0x78>
	if (argfd(0, 0, &f) < 0 || argint(2, &n) < 0 || argptr(1, &p, n) < 0)
80105d00:	83 ec 08             	sub    $0x8,%esp
80105d03:	8d 45 f0             	lea    -0x10(%ebp),%eax
80105d06:	50                   	push   %eax
80105d07:	6a 02                	push   $0x2
80105d09:	e8 12 fc ff ff       	call   80105920 <argint>
80105d0e:	83 c4 10             	add    $0x10,%esp
80105d11:	85 c0                	test   %eax,%eax
80105d13:	78 33                	js     80105d48 <sys_read+0x78>
80105d15:	83 ec 04             	sub    $0x4,%esp
80105d18:	ff 75 f0             	push   -0x10(%ebp)
80105d1b:	53                   	push   %ebx
80105d1c:	6a 01                	push   $0x1
80105d1e:	e8 4d fc ff ff       	call   80105970 <argptr>
80105d23:	83 c4 10             	add    $0x10,%esp
80105d26:	85 c0                	test   %eax,%eax
80105d28:	78 1e                	js     80105d48 <sys_read+0x78>
	return fileread(f, p, n);
80105d2a:	83 ec 04             	sub    $0x4,%esp
80105d2d:	ff 75 f0             	push   -0x10(%ebp)
80105d30:	ff 75 f4             	push   -0xc(%ebp)
80105d33:	56                   	push   %esi
80105d34:	e8 77 bd ff ff       	call   80101ab0 <fileread>
80105d39:	83 c4 10             	add    $0x10,%esp
}
80105d3c:	8d 65 f8             	lea    -0x8(%ebp),%esp
80105d3f:	5b                   	pop    %ebx
80105d40:	5e                   	pop    %esi
80105d41:	5d                   	pop    %ebp
80105d42:	c3                   	ret
80105d43:	2e 8d 74 26 00       	lea    %cs:0x0(%esi,%eiz,1),%esi
		return -1;
80105d48:	b8 ff ff ff ff       	mov    $0xffffffff,%eax
80105d4d:	eb ed                	jmp    80105d3c <sys_read+0x6c>
80105d4f:	90                   	nop

80105d50 <sys_write>:
int sys_write(void) {
80105d50:	55                   	push   %ebp
80105d51:	89 e5                	mov    %esp,%ebp
80105d53:	56                   	push   %esi
80105d54:	53                   	push   %ebx
	if (argint(n, &fd) < 0)
80105d55:	8d 5d f4             	lea    -0xc(%ebp),%ebx
int sys_write(void) {
80105d58:	83 ec 18             	sub    $0x18,%esp
	if (argint(n, &fd) < 0)
80105d5b:	53                   	push   %ebx
80105d5c:	6a 00                	push   $0x0
80105d5e:	e8 bd fb ff ff       	call   80105920 <argint>
80105d63:	83 c4 10             	add    $0x10,%esp
80105d66:	85 c0                	test   %eax,%eax
80105d68:	78 5e                	js     80105dc8 <sys_write+0x78>
	if (fd < 0 || fd >= NOFILE || (f = myproc()->ofile[fd]) == 0)
80105d6a:	83 7d f4 3f          	cmpl   $0x3f,-0xc(%ebp)
80105d6e:	77 58                	ja     80105dc8 <sys_write+0x78>
80105d70:	e8 7b eb ff ff       	call   801048f0 <myproc>
80105d75:	8b 55 f4             	mov    -0xc(%ebp),%edx
80105d78:	8b 74 90 28          	mov    0x28(%eax,%edx,4),%esi
80105d7c:	85 f6                	test   %esi,%esi
80105d7e:	74 48                	je     80105dc8 <sys_write+0x78>
	if (argfd(0, 0, &f) < 0 || argint(2, &n) < 0 || argptr(1, &p, n) < 0)
80105d80:	83 ec 08             	sub    $0x8,%esp
80105d83:	8d 45 f0             	lea    -0x10(%ebp),%eax
80105d86:	50                   	push   %eax
80105d87:	6a 02                	push   $0x2
80105d89:	e8 92 fb ff ff       	call   80105920 <argint>
80105d8e:	83 c4 10             	add    $0x10,%esp
80105d91:	85 c0                	test   %eax,%eax
80105d93:	78 33                	js     80105dc8 <sys_write+0x78>
80105d95:	83 ec 04             	sub    $0x4,%esp
80105d98:	ff 75 f0             	push   -0x10(%ebp)
80105d9b:	53                   	push   %ebx
80105d9c:	6a 01                	push   $0x1
80105d9e:	e8 cd fb ff ff       	call   80105970 <argptr>
80105da3:	83 c4 10             	add    $0x10,%esp
80105da6:	85 c0                	test   %eax,%eax
80105da8:	78 1e                	js     80105dc8 <sys_write+0x78>
	return filewrite(f, p, n);
80105daa:	83 ec 04             	sub    $0x4,%esp
80105dad:	ff 75 f0             	push   -0x10(%ebp)
80105db0:	ff 75 f4             	push   -0xc(%ebp)
80105db3:	56                   	push   %esi
80105db4:	e8 87 bd ff ff       	call   80101b40 <filewrite>
80105db9:	83 c4 10             	add    $0x10,%esp
}
80105dbc:	8d 65 f8             	lea    -0x8(%ebp),%esp
80105dbf:	5b                   	pop    %ebx
80105dc0:	5e                   	pop    %esi
80105dc1:	5d                   	pop    %ebp
80105dc2:	c3                   	ret
80105dc3:	2e 8d 74 26 00       	lea    %cs:0x0(%esi,%eiz,1),%esi
		return -1;
80105dc8:	b8 ff ff ff ff       	mov    $0xffffffff,%eax
80105dcd:	eb ed                	jmp    80105dbc <sys_write+0x6c>
80105dcf:	90                   	nop

80105dd0 <sys_close>:
int sys_close(void) {
80105dd0:	55                   	push   %ebp
80105dd1:	89 e5                	mov    %esp,%ebp
80105dd3:	56                   	push   %esi
80105dd4:	53                   	push   %ebx
	if (argint(n, &fd) < 0)
80105dd5:	8d 45 f4             	lea    -0xc(%ebp),%eax
int sys_close(void) {
80105dd8:	83 ec 18             	sub    $0x18,%esp
	if (argint(n, &fd) < 0)
80105ddb:	50                   	push   %eax
80105ddc:	6a 00                	push   $0x0
80105dde:	e8 3d fb ff ff       	call   80105920 <argint>
80105de3:	83 c4 10             	add    $0x10,%esp
80105de6:	85 c0                	test   %eax,%eax
80105de8:	78 3e                	js     80105e28 <sys_close+0x58>
	if (fd < 0 || fd >= NOFILE || (f = myproc()->ofile[fd]) == 0)
80105dea:	83 7d f4 3f          	cmpl   $0x3f,-0xc(%ebp)
80105dee:	77 38                	ja     80105e28 <sys_close+0x58>
80105df0:	e8 fb ea ff ff       	call   801048f0 <myproc>
80105df5:	8b 55 f4             	mov    -0xc(%ebp),%edx
80105df8:	8d 5a 08             	lea    0x8(%edx),%ebx
80105dfb:	8b 74 98 08          	mov    0x8(%eax,%ebx,4),%esi
80105dff:	85 f6                	test   %esi,%esi
80105e01:	74 25                	je     80105e28 <sys_close+0x58>
	myproc()->ofile[fd] = 0;
80105e03:	e8 e8 ea ff ff       	call   801048f0 <myproc>
	fileclose(f);
80105e08:	83 ec 0c             	sub    $0xc,%esp
	myproc()->ofile[fd] = 0;
80105e0b:	c7 44 98 08 00 00 00 	movl   $0x0,0x8(%eax,%ebx,4)
80105e12:	00 
	fileclose(f);
80105e13:	56                   	push   %esi
80105e14:	e8 67 bb ff ff       	call   80101980 <fileclose>
	return 0;
80105e19:	83 c4 10             	add    $0x10,%esp
80105e1c:	31 c0                	xor    %eax,%eax
}
80105e1e:	8d 65 f8             	lea    -0x8(%ebp),%esp
80105e21:	5b                   	pop    %ebx
80105e22:	5e                   	pop    %esi
80105e23:	5d                   	pop    %ebp
80105e24:	c3                   	ret
80105e25:	8d 76 00             	lea    0x0(%esi),%esi
		return -1;
80105e28:	b8 ff ff ff ff       	mov    $0xffffffff,%eax
80105e2d:	eb ef                	jmp    80105e1e <sys_close+0x4e>
80105e2f:	90                   	nop

80105e30 <sys_fstat>:
int sys_fstat(void) {
80105e30:	55                   	push   %ebp
80105e31:	89 e5                	mov    %esp,%ebp
80105e33:	56                   	push   %esi
80105e34:	53                   	push   %ebx
	if (argint(n, &fd) < 0)
80105e35:	8d 5d f4             	lea    -0xc(%ebp),%ebx
int sys_fstat(void) {
80105e38:	83 ec 18             	sub    $0x18,%esp
	if (argint(n, &fd) < 0)
80105e3b:	53                   	push   %ebx
80105e3c:	6a 00                	push   $0x0
80105e3e:	e8 dd fa ff ff       	call   80105920 <argint>
80105e43:	83 c4 10             	add    $0x10,%esp
80105e46:	85 c0                	test   %eax,%eax
80105e48:	78 46                	js     80105e90 <sys_fstat+0x60>
	if (fd < 0 || fd >= NOFILE || (f = myproc()->ofile[fd]) == 0)
80105e4a:	83 7d f4 3f          	cmpl   $0x3f,-0xc(%ebp)
80105e4e:	77 40                	ja     80105e90 <sys_fstat+0x60>
80105e50:	e8 9b ea ff ff       	call   801048f0 <myproc>
80105e55:	8b 55 f4             	mov    -0xc(%ebp),%edx
80105e58:	8b 74 90 28          	mov    0x28(%eax,%edx,4),%esi
80105e5c:	85 f6                	test   %esi,%esi
80105e5e:	74 30                	je     80105e90 <sys_fstat+0x60>
	if (argfd(0, 0, &f) < 0 || argptr(1, (void *)&st, sizeof(*st)) < 0)
80105e60:	83 ec 04             	sub    $0x4,%esp
80105e63:	6a 14                	push   $0x14
80105e65:	53                   	push   %ebx
80105e66:	6a 01                	push   $0x1
80105e68:	e8 03 fb ff ff       	call   80105970 <argptr>
80105e6d:	83 c4 10             	add    $0x10,%esp
80105e70:	85 c0                	test   %eax,%eax
80105e72:	78 1c                	js     80105e90 <sys_fstat+0x60>
	return filestat(f, st);
80105e74:	83 ec 08             	sub    $0x8,%esp
80105e77:	ff 75 f4             	push   -0xc(%ebp)
80105e7a:	56                   	push   %esi
80105e7b:	e8 e0 bb ff ff       	call   80101a60 <filestat>
80105e80:	83 c4 10             	add    $0x10,%esp
}
80105e83:	8d 65 f8             	lea    -0x8(%ebp),%esp
80105e86:	5b                   	pop    %ebx
80105e87:	5e                   	pop    %esi
80105e88:	5d                   	pop    %ebp
80105e89:	c3                   	ret
80105e8a:	8d b6 00 00 00 00    	lea    0x0(%esi),%esi
		return -1;
80105e90:	b8 ff ff ff ff       	mov    $0xffffffff,%eax
80105e95:	eb ec                	jmp    80105e83 <sys_fstat+0x53>
80105e97:	2e 8d b4 26 00 00 00 	lea    %cs:0x0(%esi,%eiz,1),%esi
80105e9e:	00 
80105e9f:	90                   	nop

80105ea0 <sys_link>:
int sys_link(void) {
80105ea0:	55                   	push   %ebp
80105ea1:	89 e5                	mov    %esp,%ebp
80105ea3:	57                   	push   %edi
80105ea4:	56                   	push   %esi
	if (argstr(0, &old) < 0 || argstr(1, &new) < 0)
80105ea5:	8d 45 d4             	lea    -0x2c(%ebp),%eax
int sys_link(void) {
80105ea8:	53                   	push   %ebx
80105ea9:	83 ec 34             	sub    $0x34,%esp
	if (argstr(0, &old) < 0 || argstr(1, &new) < 0)
80105eac:	50                   	push   %eax
80105ead:	6a 00                	push   $0x0
80105eaf:	e8 2c fb ff ff       	call   801059e0 <argstr>
80105eb4:	83 c4 10             	add    $0x10,%esp
80105eb7:	85 c0                	test   %eax,%eax
80105eb9:	0f 88 fb 00 00 00    	js     80105fba <sys_link+0x11a>
80105ebf:	83 ec 08             	sub    $0x8,%esp
80105ec2:	8d 45 d0             	lea    -0x30(%ebp),%eax
80105ec5:	50                   	push   %eax
80105ec6:	6a 01                	push   $0x1
80105ec8:	e8 13 fb ff ff       	call   801059e0 <argstr>
80105ecd:	83 c4 10             	add    $0x10,%esp
80105ed0:	85 c0                	test   %eax,%eax
80105ed2:	0f 88 e2 00 00 00    	js     80105fba <sys_link+0x11a>
	begin_op();
80105ed8:	e8 d3 dd ff ff       	call   80103cb0 <begin_op>
	if ((ip = namei(old)) == 0) {
80105edd:	83 ec 0c             	sub    $0xc,%esp
80105ee0:	ff 75 d4             	push   -0x2c(%ebp)
80105ee3:	e8 f8 cf ff ff       	call   80102ee0 <namei>
80105ee8:	83 c4 10             	add    $0x10,%esp
80105eeb:	89 c3                	mov    %eax,%ebx
80105eed:	85 c0                	test   %eax,%eax
80105eef:	0f 84 df 00 00 00    	je     80105fd4 <sys_link+0x134>
	ilock(ip);
80105ef5:	83 ec 0c             	sub    $0xc,%esp
80105ef8:	50                   	push   %eax
80105ef9:	e8 82 c5 ff ff       	call   80102480 <ilock>
	if (ip->type == T_DIR) {
80105efe:	83 c4 10             	add    $0x10,%esp
80105f01:	66 83 7b 50 01       	cmpw   $0x1,0x50(%ebx)
80105f06:	0f 84 b5 00 00 00    	je     80105fc1 <sys_link+0x121>
	iupdate(ip);
80105f0c:	83 ec 0c             	sub    $0xc,%esp
	ip->nlink++;
80105f0f:	66 83 43 56 01       	addw   $0x1,0x56(%ebx)
	if ((dp = nameiparent(new, name)) == 0)
80105f14:	8d 7d da             	lea    -0x26(%ebp),%edi
	iupdate(ip);
80105f17:	53                   	push   %ebx
80105f18:	e8 73 c4 ff ff       	call   80102390 <iupdate>
	iunlock(ip);
80105f1d:	89 1c 24             	mov    %ebx,(%esp)
80105f20:	e8 3b c6 ff ff       	call   80102560 <iunlock>
	if ((dp = nameiparent(new, name)) == 0)
80105f25:	58                   	pop    %eax
80105f26:	5a                   	pop    %edx
80105f27:	57                   	push   %edi
80105f28:	ff 75 d0             	push   -0x30(%ebp)
80105f2b:	e8 d0 cf ff ff       	call   80102f00 <nameiparent>
80105f30:	83 c4 10             	add    $0x10,%esp
80105f33:	89 c6                	mov    %eax,%esi
80105f35:	85 c0                	test   %eax,%eax
80105f37:	74 5b                	je     80105f94 <sys_link+0xf4>
	ilock(dp);
80105f39:	83 ec 0c             	sub    $0xc,%esp
80105f3c:	50                   	push   %eax
80105f3d:	e8 3e c5 ff ff       	call   80102480 <ilock>
	if (dp->dev != ip->dev || dirlink(dp, name, ip->inum) < 0) {
80105f42:	8b 03                	mov    (%ebx),%eax
80105f44:	83 c4 10             	add    $0x10,%esp
80105f47:	39 06                	cmp    %eax,(%esi)
80105f49:	75 3d                	jne    80105f88 <sys_link+0xe8>
80105f4b:	83 ec 04             	sub    $0x4,%esp
80105f4e:	ff 73 04             	push   0x4(%ebx)
80105f51:	57                   	push   %edi
80105f52:	56                   	push   %esi
80105f53:	e8 c8 ce ff ff       	call   80102e20 <dirlink>
80105f58:	83 c4 10             	add    $0x10,%esp
80105f5b:	85 c0                	test   %eax,%eax
80105f5d:	78 29                	js     80105f88 <sys_link+0xe8>
	iunlockput(dp);
80105f5f:	83 ec 0c             	sub    $0xc,%esp
80105f62:	56                   	push   %esi
80105f63:	e8 88 c8 ff ff       	call   801027f0 <iunlockput>
	iput(ip);
80105f68:	89 1c 24             	mov    %ebx,(%esp)
80105f6b:	e8 40 c6 ff ff       	call   801025b0 <iput>
	end_op();
80105f70:	e8 ab dd ff ff       	call   80103d20 <end_op>
	return 0;
80105f75:	83 c4 10             	add    $0x10,%esp
80105f78:	31 c0                	xor    %eax,%eax
}
80105f7a:	8d 65 f4             	lea    -0xc(%ebp),%esp
80105f7d:	5b                   	pop    %ebx
80105f7e:	5e                   	pop    %esi
80105f7f:	5f                   	pop    %edi
80105f80:	5d                   	pop    %ebp
80105f81:	c3                   	ret
80105f82:	8d b6 00 00 00 00    	lea    0x0(%esi),%esi
		iunlockput(dp);
80105f88:	83 ec 0c             	sub    $0xc,%esp
80105f8b:	56                   	push   %esi
80105f8c:	e8 5f c8 ff ff       	call   801027f0 <iunlockput>
		goto bad;
80105f91:	83 c4 10             	add    $0x10,%esp
	ilock(ip);
80105f94:	83 ec 0c             	sub    $0xc,%esp
80105f97:	53                   	push   %ebx
80105f98:	e8 e3 c4 ff ff       	call   80102480 <ilock>
	ip->nlink--;
80105f9d:	66 83 6b 56 01       	subw   $0x1,0x56(%ebx)
	iupdate(ip);
80105fa2:	89 1c 24             	mov    %ebx,(%esp)
80105fa5:	e8 e6 c3 ff ff       	call   80102390 <iupdate>
	iunlockput(ip);
80105faa:	89 1c 24             	mov    %ebx,(%esp)
80105fad:	e8 3e c8 ff ff       	call   801027f0 <iunlockput>
	end_op();
80105fb2:	e8 69 dd ff ff       	call   80103d20 <end_op>
	return -1;
80105fb7:	83 c4 10             	add    $0x10,%esp
		return -1;
80105fba:	b8 ff ff ff ff       	mov    $0xffffffff,%eax
80105fbf:	eb b9                	jmp    80105f7a <sys_link+0xda>
		iunlockput(ip);
80105fc1:	83 ec 0c             	sub    $0xc,%esp
80105fc4:	53                   	push   %ebx
80105fc5:	e8 26 c8 ff ff       	call   801027f0 <iunlockput>
		end_op();
80105fca:	e8 51 dd ff ff       	call   80103d20 <end_op>
		return -1;
80105fcf:	83 c4 10             	add    $0x10,%esp
80105fd2:	eb e6                	jmp    80105fba <sys_link+0x11a>
		end_op();
80105fd4:	e8 47 dd ff ff       	call   80103d20 <end_op>
		return -1;
80105fd9:	eb df                	jmp    80105fba <sys_link+0x11a>
80105fdb:	2e 8d 74 26 00       	lea    %cs:0x0(%esi,%eiz,1),%esi

80105fe0 <sys_unlink>:
int sys_unlink(void) {
80105fe0:	55                   	push   %ebp
80105fe1:	89 e5                	mov    %esp,%ebp
80105fe3:	57                   	push   %edi
80105fe4:	56                   	push   %esi
	if (argstr(0, &path) < 0)
80105fe5:	8d 45 c0             	lea    -0x40(%ebp),%eax
int sys_unlink(void) {
80105fe8:	53                   	push   %ebx
80105fe9:	83 ec 54             	sub    $0x54,%esp
	if (argstr(0, &path) < 0)
80105fec:	50                   	push   %eax
80105fed:	6a 00                	push   $0x0
80105fef:	e8 ec f9 ff ff       	call   801059e0 <argstr>
80105ff4:	83 c4 10             	add    $0x10,%esp
80105ff7:	85 c0                	test   %eax,%eax
80105ff9:	0f 88 54 01 00 00    	js     80106153 <sys_unlink+0x173>
	begin_op();
80105fff:	e8 ac dc ff ff       	call   80103cb0 <begin_op>
	if ((dp = nameiparent(path, name)) == 0) {
80106004:	8d 5d ca             	lea    -0x36(%ebp),%ebx
80106007:	83 ec 08             	sub    $0x8,%esp
8010600a:	53                   	push   %ebx
8010600b:	ff 75 c0             	push   -0x40(%ebp)
8010600e:	e8 ed ce ff ff       	call   80102f00 <nameiparent>
80106013:	83 c4 10             	add    $0x10,%esp
80106016:	89 45 b4             	mov    %eax,-0x4c(%ebp)
80106019:	85 c0                	test   %eax,%eax
8010601b:	0f 84 58 01 00 00    	je     80106179 <sys_unlink+0x199>
	ilock(dp);
80106021:	8b 7d b4             	mov    -0x4c(%ebp),%edi
80106024:	83 ec 0c             	sub    $0xc,%esp
80106027:	57                   	push   %edi
80106028:	e8 53 c4 ff ff       	call   80102480 <ilock>
	if (namecmp(name, ".") == 0 || namecmp(name, "..") == 0)
8010602d:	58                   	pop    %eax
8010602e:	5a                   	pop    %edx
8010602f:	68 c5 b5 10 80       	push   $0x8010b5c5
80106034:	53                   	push   %ebx
80106035:	e8 d6 ca ff ff       	call   80102b10 <namecmp>
8010603a:	83 c4 10             	add    $0x10,%esp
8010603d:	85 c0                	test   %eax,%eax
8010603f:	0f 84 fb 00 00 00    	je     80106140 <sys_unlink+0x160>
80106045:	83 ec 08             	sub    $0x8,%esp
80106048:	68 c4 b5 10 80       	push   $0x8010b5c4
8010604d:	53                   	push   %ebx
8010604e:	e8 bd ca ff ff       	call   80102b10 <namecmp>
80106053:	83 c4 10             	add    $0x10,%esp
80106056:	85 c0                	test   %eax,%eax
80106058:	0f 84 e2 00 00 00    	je     80106140 <sys_unlink+0x160>
	if ((ip = dirlookup(dp, name, &off)) == 0)
8010605e:	83 ec 04             	sub    $0x4,%esp
80106061:	8d 45 c4             	lea    -0x3c(%ebp),%eax
80106064:	50                   	push   %eax
80106065:	53                   	push   %ebx
80106066:	57                   	push   %edi
80106067:	e8 c4 ca ff ff       	call   80102b30 <dirlookup>
8010606c:	83 c4 10             	add    $0x10,%esp
8010606f:	89 c3                	mov    %eax,%ebx
80106071:	85 c0                	test   %eax,%eax
80106073:	0f 84 c7 00 00 00    	je     80106140 <sys_unlink+0x160>
	ilock(ip);
80106079:	83 ec 0c             	sub    $0xc,%esp
8010607c:	50                   	push   %eax
8010607d:	e8 fe c3 ff ff       	call   80102480 <ilock>
	if (ip->nlink < 1)
80106082:	83 c4 10             	add    $0x10,%esp
80106085:	66 83 7b 56 00       	cmpw   $0x0,0x56(%ebx)
8010608a:	0f 8e 0a 01 00 00    	jle    8010619a <sys_unlink+0x1ba>
	if (ip->type == T_DIR && !isdirempty(ip)) {
80106090:	66 83 7b 50 01       	cmpw   $0x1,0x50(%ebx)
80106095:	8d 7d d8             	lea    -0x28(%ebp),%edi
80106098:	74 66                	je     80106100 <sys_unlink+0x120>
	memset(&de, 0, sizeof(de));
8010609a:	83 ec 04             	sub    $0x4,%esp
8010609d:	6a 10                	push   $0x10
8010609f:	6a 00                	push   $0x0
801060a1:	57                   	push   %edi
801060a2:	e8 c9 f5 ff ff       	call   80105670 <memset>
	if (writei(dp, (char *)&de, off, sizeof(de)) != sizeof(de))
801060a7:	6a 10                	push   $0x10
801060a9:	ff 75 c4             	push   -0x3c(%ebp)
801060ac:	57                   	push   %edi
801060ad:	ff 75 b4             	push   -0x4c(%ebp)
801060b0:	e8 fb c8 ff ff       	call   801029b0 <writei>
801060b5:	83 c4 20             	add    $0x20,%esp
801060b8:	83 f8 10             	cmp    $0x10,%eax
801060bb:	0f 85 cc 00 00 00    	jne    8010618d <sys_unlink+0x1ad>
	if (ip->type == T_DIR) {
801060c1:	66 83 7b 50 01       	cmpw   $0x1,0x50(%ebx)
801060c6:	0f 84 94 00 00 00    	je     80106160 <sys_unlink+0x180>
	iunlockput(dp);
801060cc:	83 ec 0c             	sub    $0xc,%esp
801060cf:	ff 75 b4             	push   -0x4c(%ebp)
801060d2:	e8 19 c7 ff ff       	call   801027f0 <iunlockput>
	ip->nlink--;
801060d7:	66 83 6b 56 01       	subw   $0x1,0x56(%ebx)
	iupdate(ip);
801060dc:	89 1c 24             	mov    %ebx,(%esp)
801060df:	e8 ac c2 ff ff       	call   80102390 <iupdate>
	iunlockput(ip);
801060e4:	89 1c 24             	mov    %ebx,(%esp)
801060e7:	e8 04 c7 ff ff       	call   801027f0 <iunlockput>
	end_op();
801060ec:	e8 2f dc ff ff       	call   80103d20 <end_op>
	return 0;
801060f1:	83 c4 10             	add    $0x10,%esp
801060f4:	31 c0                	xor    %eax,%eax
}
801060f6:	8d 65 f4             	lea    -0xc(%ebp),%esp
801060f9:	5b                   	pop    %ebx
801060fa:	5e                   	pop    %esi
801060fb:	5f                   	pop    %edi
801060fc:	5d                   	pop    %ebp
801060fd:	c3                   	ret
801060fe:	66 90                	xchg   %ax,%ax
	for (off = 2 * sizeof(de); off < dp->size; off += sizeof(de)) {
80106100:	83 7b 58 20          	cmpl   $0x20,0x58(%ebx)
80106104:	76 94                	jbe    8010609a <sys_unlink+0xba>
80106106:	be 20 00 00 00       	mov    $0x20,%esi
8010610b:	eb 0b                	jmp    80106118 <sys_unlink+0x138>
8010610d:	8d 76 00             	lea    0x0(%esi),%esi
80106110:	83 c6 10             	add    $0x10,%esi
80106113:	3b 73 58             	cmp    0x58(%ebx),%esi
80106116:	73 82                	jae    8010609a <sys_unlink+0xba>
		if (readi(dp, (char *)&de, off, sizeof(de)) != sizeof(de))
80106118:	6a 10                	push   $0x10
8010611a:	56                   	push   %esi
8010611b:	57                   	push   %edi
8010611c:	53                   	push   %ebx
8010611d:	e8 5e c7 ff ff       	call   80102880 <readi>
80106122:	83 c4 10             	add    $0x10,%esp
80106125:	83 f8 10             	cmp    $0x10,%eax
80106128:	75 56                	jne    80106180 <sys_unlink+0x1a0>
		if (de.inum != 0)
8010612a:	66 83 7d d8 00       	cmpw   $0x0,-0x28(%ebp)
8010612f:	74 df                	je     80106110 <sys_unlink+0x130>
		iunlockput(ip);
80106131:	83 ec 0c             	sub    $0xc,%esp
80106134:	53                   	push   %ebx
80106135:	e8 b6 c6 ff ff       	call   801027f0 <iunlockput>
		goto bad;
8010613a:	83 c4 10             	add    $0x10,%esp
8010613d:	8d 76 00             	lea    0x0(%esi),%esi
	iunlockput(dp);
80106140:	83 ec 0c             	sub    $0xc,%esp
80106143:	ff 75 b4             	push   -0x4c(%ebp)
80106146:	e8 a5 c6 ff ff       	call   801027f0 <iunlockput>
	end_op();
8010614b:	e8 d0 db ff ff       	call   80103d20 <end_op>
	return -1;
80106150:	83 c4 10             	add    $0x10,%esp
		return -1;
80106153:	b8 ff ff ff ff       	mov    $0xffffffff,%eax
80106158:	eb 9c                	jmp    801060f6 <sys_unlink+0x116>
8010615a:	8d b6 00 00 00 00    	lea    0x0(%esi),%esi
		dp->nlink--;
80106160:	8b 45 b4             	mov    -0x4c(%ebp),%eax
		iupdate(dp);
80106163:	83 ec 0c             	sub    $0xc,%esp
		dp->nlink--;
80106166:	66 83 68 56 01       	subw   $0x1,0x56(%eax)
		iupdate(dp);
8010616b:	50                   	push   %eax
8010616c:	e8 1f c2 ff ff       	call   80102390 <iupdate>
80106171:	83 c4 10             	add    $0x10,%esp
80106174:	e9 53 ff ff ff       	jmp    801060cc <sys_unlink+0xec>
		end_op();
80106179:	e8 a2 db ff ff       	call   80103d20 <end_op>
		return -1;
8010617e:	eb d3                	jmp    80106153 <sys_unlink+0x173>
			panic("isdirempty: readi");
80106180:	83 ec 0c             	sub    $0xc,%esp
80106183:	68 e9 b5 10 80       	push   $0x8010b5e9
80106188:	e8 63 ac ff ff       	call   80100df0 <panic>
		panic("unlink: writei");
8010618d:	83 ec 0c             	sub    $0xc,%esp
80106190:	68 fb b5 10 80       	push   $0x8010b5fb
80106195:	e8 56 ac ff ff       	call   80100df0 <panic>
		panic("unlink: nlink < 1");
8010619a:	83 ec 0c             	sub    $0xc,%esp
8010619d:	68 d7 b5 10 80       	push   $0x8010b5d7
801061a2:	e8 49 ac ff ff       	call   80100df0 <panic>
801061a7:	2e 8d b4 26 00 00 00 	lea    %cs:0x0(%esi,%eiz,1),%esi
801061ae:	00 
801061af:	90                   	nop

801061b0 <sys_open>:

int sys_open(void) {
801061b0:	55                   	push   %ebp
801061b1:	89 e5                	mov    %esp,%ebp
801061b3:	57                   	push   %edi
801061b4:	56                   	push   %esi
	char *path;
	int fd, omode;
	struct file *f;
	struct inode *ip;

	if (argstr(0, &path) < 0 || argint(1, &omode) < 0)
801061b5:	8d 45 e0             	lea    -0x20(%ebp),%eax
int sys_open(void) {
801061b8:	53                   	push   %ebx
801061b9:	83 ec 24             	sub    $0x24,%esp
	if (argstr(0, &path) < 0 || argint(1, &omode) < 0)
801061bc:	50                   	push   %eax
801061bd:	6a 00                	push   $0x0
801061bf:	e8 1c f8 ff ff       	call   801059e0 <argstr>
801061c4:	83 c4 10             	add    $0x10,%esp
801061c7:	85 c0                	test   %eax,%eax
801061c9:	0f 88 f7 00 00 00    	js     801062c6 <sys_open+0x116>
801061cf:	83 ec 08             	sub    $0x8,%esp
801061d2:	8d 45 e4             	lea    -0x1c(%ebp),%eax
801061d5:	50                   	push   %eax
801061d6:	6a 01                	push   $0x1
801061d8:	e8 43 f7 ff ff       	call   80105920 <argint>
801061dd:	83 c4 10             	add    $0x10,%esp
801061e0:	85 c0                	test   %eax,%eax
801061e2:	0f 88 de 00 00 00    	js     801062c6 <sys_open+0x116>
		return -1;

	begin_op();
801061e8:	e8 c3 da ff ff       	call   80103cb0 <begin_op>

	if (omode & O_CREATE) {
801061ed:	f6 45 e5 02          	testb  $0x2,-0x1b(%ebp)
801061f1:	0f 85 a9 00 00 00    	jne    801062a0 <sys_open+0xf0>
		if (ip == 0) {
			end_op();
			return -1;
		}
	} else {
		if ((ip = namei(path)) == 0) {
801061f7:	83 ec 0c             	sub    $0xc,%esp
801061fa:	ff 75 e0             	push   -0x20(%ebp)
801061fd:	e8 de cc ff ff       	call   80102ee0 <namei>
80106202:	83 c4 10             	add    $0x10,%esp
80106205:	89 c6                	mov    %eax,%esi
80106207:	85 c0                	test   %eax,%eax
80106209:	0f 84 b2 00 00 00    	je     801062c1 <sys_open+0x111>
			end_op();
			return -1;
		}
		ilock(ip);
8010620f:	83 ec 0c             	sub    $0xc,%esp
80106212:	50                   	push   %eax
80106213:	e8 68 c2 ff ff       	call   80102480 <ilock>
		if (ip->type == T_DIR && omode != O_RDONLY) {
80106218:	83 c4 10             	add    $0x10,%esp
8010621b:	66 83 7e 50 01       	cmpw   $0x1,0x50(%esi)
80106220:	0f 84 ca 00 00 00    	je     801062f0 <sys_open+0x140>
			end_op();
			return -1;
		}
	}

	if ((f = filealloc()) == 0 || (fd = fdalloc(f)) < 0) {
80106226:	e8 95 b6 ff ff       	call   801018c0 <filealloc>
8010622b:	89 c7                	mov    %eax,%edi
8010622d:	85 c0                	test   %eax,%eax
8010622f:	0f 84 a7 00 00 00    	je     801062dc <sys_open+0x12c>
	struct proc *curproc = myproc();
80106235:	e8 b6 e6 ff ff       	call   801048f0 <myproc>
	for (fd = 0; fd < NOFILE; fd++) {
8010623a:	31 db                	xor    %ebx,%ebx
8010623c:	eb 0e                	jmp    8010624c <sys_open+0x9c>
8010623e:	66 90                	xchg   %ax,%ax
80106240:	83 c3 01             	add    $0x1,%ebx
80106243:	83 fb 40             	cmp    $0x40,%ebx
80106246:	0f 84 84 00 00 00    	je     801062d0 <sys_open+0x120>
		if (curproc->ofile[fd] == 0) {
8010624c:	8b 54 98 28          	mov    0x28(%eax,%ebx,4),%edx
80106250:	85 d2                	test   %edx,%edx
80106252:	75 ec                	jne    80106240 <sys_open+0x90>
			fileclose(f);
		iunlockput(ip);
		end_op();
		return -1;
	}
	iunlock(ip);
80106254:	83 ec 0c             	sub    $0xc,%esp
			curproc->ofile[fd] = f;
80106257:	89 7c 98 28          	mov    %edi,0x28(%eax,%ebx,4)
	iunlock(ip);
8010625b:	56                   	push   %esi
8010625c:	e8 ff c2 ff ff       	call   80102560 <iunlock>
	end_op();
80106261:	e8 ba da ff ff       	call   80103d20 <end_op>

	f->type = FD_INODE;
80106266:	c7 07 02 00 00 00    	movl   $0x2,(%edi)
	f->ip = ip;
	f->off = 0;
	f->readable = !(omode & O_WRONLY);
8010626c:	8b 55 e4             	mov    -0x1c(%ebp),%edx
	f->writable = (omode & O_WRONLY) || (omode & O_RDWR);
8010626f:	83 c4 10             	add    $0x10,%esp
	f->ip = ip;
80106272:	89 77 10             	mov    %esi,0x10(%edi)
	f->readable = !(omode & O_WRONLY);
80106275:	89 d0                	mov    %edx,%eax
	f->off = 0;
80106277:	c7 47 14 00 00 00 00 	movl   $0x0,0x14(%edi)
	f->readable = !(omode & O_WRONLY);
8010627e:	f7 d0                	not    %eax
80106280:	83 e0 01             	and    $0x1,%eax
	f->writable = (omode & O_WRONLY) || (omode & O_RDWR);
80106283:	83 e2 03             	and    $0x3,%edx
	f->readable = !(omode & O_WRONLY);
80106286:	88 47 08             	mov    %al,0x8(%edi)
	f->writable = (omode & O_WRONLY) || (omode & O_RDWR);
80106289:	0f 95 47 09          	setne  0x9(%edi)
	return fd;
}
8010628d:	8d 65 f4             	lea    -0xc(%ebp),%esp
80106290:	89 d8                	mov    %ebx,%eax
80106292:	5b                   	pop    %ebx
80106293:	5e                   	pop    %esi
80106294:	5f                   	pop    %edi
80106295:	5d                   	pop    %ebp
80106296:	c3                   	ret
80106297:	2e 8d b4 26 00 00 00 	lea    %cs:0x0(%esi,%eiz,1),%esi
8010629e:	00 
8010629f:	90                   	nop
		ip = create(path, T_FILE, 0, 0);
801062a0:	83 ec 0c             	sub    $0xc,%esp
801062a3:	31 c9                	xor    %ecx,%ecx
801062a5:	ba 02 00 00 00       	mov    $0x2,%edx
801062aa:	6a 00                	push   $0x0
801062ac:	8b 45 e0             	mov    -0x20(%ebp),%eax
801062af:	e8 1c f8 ff ff       	call   80105ad0 <create>
		if (ip == 0) {
801062b4:	83 c4 10             	add    $0x10,%esp
		ip = create(path, T_FILE, 0, 0);
801062b7:	89 c6                	mov    %eax,%esi
		if (ip == 0) {
801062b9:	85 c0                	test   %eax,%eax
801062bb:	0f 85 65 ff ff ff    	jne    80106226 <sys_open+0x76>
			end_op();
801062c1:	e8 5a da ff ff       	call   80103d20 <end_op>
		return -1;
801062c6:	bb ff ff ff ff       	mov    $0xffffffff,%ebx
801062cb:	eb c0                	jmp    8010628d <sys_open+0xdd>
801062cd:	8d 76 00             	lea    0x0(%esi),%esi
			fileclose(f);
801062d0:	83 ec 0c             	sub    $0xc,%esp
801062d3:	57                   	push   %edi
801062d4:	e8 a7 b6 ff ff       	call   80101980 <fileclose>
801062d9:	83 c4 10             	add    $0x10,%esp
		iunlockput(ip);
801062dc:	83 ec 0c             	sub    $0xc,%esp
801062df:	56                   	push   %esi
801062e0:	e8 0b c5 ff ff       	call   801027f0 <iunlockput>
		end_op();
801062e5:	e8 36 da ff ff       	call   80103d20 <end_op>
		return -1;
801062ea:	83 c4 10             	add    $0x10,%esp
801062ed:	eb d7                	jmp    801062c6 <sys_open+0x116>
801062ef:	90                   	nop
		if (ip->type == T_DIR && omode != O_RDONLY) {
801062f0:	8b 4d e4             	mov    -0x1c(%ebp),%ecx
801062f3:	85 c9                	test   %ecx,%ecx
801062f5:	0f 84 2b ff ff ff    	je     80106226 <sys_open+0x76>
801062fb:	eb df                	jmp    801062dc <sys_open+0x12c>
801062fd:	8d 76 00             	lea    0x0(%esi),%esi

80106300 <sys_mkdir>:

int sys_mkdir(void) {
80106300:	55                   	push   %ebp
80106301:	89 e5                	mov    %esp,%ebp
80106303:	83 ec 18             	sub    $0x18,%esp
	char *path;
	struct inode *ip;

	begin_op();
80106306:	e8 a5 d9 ff ff       	call   80103cb0 <begin_op>
	if (argstr(0, &path) < 0 || (ip = create(path, T_DIR, 0, 0)) == 0) {
8010630b:	83 ec 08             	sub    $0x8,%esp
8010630e:	8d 45 f4             	lea    -0xc(%ebp),%eax
80106311:	50                   	push   %eax
80106312:	6a 00                	push   $0x0
80106314:	e8 c7 f6 ff ff       	call   801059e0 <argstr>
80106319:	83 c4 10             	add    $0x10,%esp
8010631c:	85 c0                	test   %eax,%eax
8010631e:	78 30                	js     80106350 <sys_mkdir+0x50>
80106320:	83 ec 0c             	sub    $0xc,%esp
80106323:	8b 45 f4             	mov    -0xc(%ebp),%eax
80106326:	31 c9                	xor    %ecx,%ecx
80106328:	ba 01 00 00 00       	mov    $0x1,%edx
8010632d:	6a 00                	push   $0x0
8010632f:	e8 9c f7 ff ff       	call   80105ad0 <create>
80106334:	83 c4 10             	add    $0x10,%esp
80106337:	85 c0                	test   %eax,%eax
80106339:	74 15                	je     80106350 <sys_mkdir+0x50>
		end_op();
		return -1;
	}
	iunlockput(ip);
8010633b:	83 ec 0c             	sub    $0xc,%esp
8010633e:	50                   	push   %eax
8010633f:	e8 ac c4 ff ff       	call   801027f0 <iunlockput>
	end_op();
80106344:	e8 d7 d9 ff ff       	call   80103d20 <end_op>
	return 0;
80106349:	83 c4 10             	add    $0x10,%esp
8010634c:	31 c0                	xor    %eax,%eax
}
8010634e:	c9                   	leave
8010634f:	c3                   	ret
		end_op();
80106350:	e8 cb d9 ff ff       	call   80103d20 <end_op>
		return -1;
80106355:	b8 ff ff ff ff       	mov    $0xffffffff,%eax
}
8010635a:	c9                   	leave
8010635b:	c3                   	ret
8010635c:	8d 74 26 00          	lea    0x0(%esi,%eiz,1),%esi

80106360 <sys_mknod>:

int sys_mknod(void) {
80106360:	55                   	push   %ebp
80106361:	89 e5                	mov    %esp,%ebp
80106363:	83 ec 18             	sub    $0x18,%esp
	struct inode *ip;
	char *path;
	int major, minor;

	begin_op();
80106366:	e8 45 d9 ff ff       	call   80103cb0 <begin_op>
	if ((argstr(0, &path)) < 0 || argint(1, &major) < 0 ||
8010636b:	83 ec 08             	sub    $0x8,%esp
8010636e:	8d 45 ec             	lea    -0x14(%ebp),%eax
80106371:	50                   	push   %eax
80106372:	6a 00                	push   $0x0
80106374:	e8 67 f6 ff ff       	call   801059e0 <argstr>
80106379:	83 c4 10             	add    $0x10,%esp
8010637c:	85 c0                	test   %eax,%eax
8010637e:	78 60                	js     801063e0 <sys_mknod+0x80>
80106380:	83 ec 08             	sub    $0x8,%esp
80106383:	8d 45 f0             	lea    -0x10(%ebp),%eax
80106386:	50                   	push   %eax
80106387:	6a 01                	push   $0x1
80106389:	e8 92 f5 ff ff       	call   80105920 <argint>
8010638e:	83 c4 10             	add    $0x10,%esp
80106391:	85 c0                	test   %eax,%eax
80106393:	78 4b                	js     801063e0 <sys_mknod+0x80>
	    argint(2, &minor) < 0 ||
80106395:	83 ec 08             	sub    $0x8,%esp
80106398:	8d 45 f4             	lea    -0xc(%ebp),%eax
8010639b:	50                   	push   %eax
8010639c:	6a 02                	push   $0x2
8010639e:	e8 7d f5 ff ff       	call   80105920 <argint>
	if ((argstr(0, &path)) < 0 || argint(1, &major) < 0 ||
801063a3:	83 c4 10             	add    $0x10,%esp
801063a6:	85 c0                	test   %eax,%eax
801063a8:	78 36                	js     801063e0 <sys_mknod+0x80>
	    (ip = create(path, T_DEV, major, minor)) == 0) {
801063aa:	0f bf 45 f4          	movswl -0xc(%ebp),%eax
801063ae:	83 ec 0c             	sub    $0xc,%esp
801063b1:	0f bf 4d f0          	movswl -0x10(%ebp),%ecx
801063b5:	ba 03 00 00 00       	mov    $0x3,%edx
801063ba:	50                   	push   %eax
801063bb:	8b 45 ec             	mov    -0x14(%ebp),%eax
801063be:	e8 0d f7 ff ff       	call   80105ad0 <create>
	    argint(2, &minor) < 0 ||
801063c3:	83 c4 10             	add    $0x10,%esp
801063c6:	85 c0                	test   %eax,%eax
801063c8:	74 16                	je     801063e0 <sys_mknod+0x80>
		end_op();
		return -1;
	}
	iunlockput(ip);
801063ca:	83 ec 0c             	sub    $0xc,%esp
801063cd:	50                   	push   %eax
801063ce:	e8 1d c4 ff ff       	call   801027f0 <iunlockput>
	end_op();
801063d3:	e8 48 d9 ff ff       	call   80103d20 <end_op>
	return 0;
801063d8:	83 c4 10             	add    $0x10,%esp
801063db:	31 c0                	xor    %eax,%eax
}
801063dd:	c9                   	leave
801063de:	c3                   	ret
801063df:	90                   	nop
		end_op();
801063e0:	e8 3b d9 ff ff       	call   80103d20 <end_op>
		return -1;
801063e5:	b8 ff ff ff ff       	mov    $0xffffffff,%eax
}
801063ea:	c9                   	leave
801063eb:	c3                   	ret
801063ec:	8d 74 26 00          	lea    0x0(%esi,%eiz,1),%esi

801063f0 <sys_chdir>:

int sys_chdir(void) {
801063f0:	55                   	push   %ebp
801063f1:	89 e5                	mov    %esp,%ebp
801063f3:	56                   	push   %esi
801063f4:	53                   	push   %ebx
801063f5:	83 ec 10             	sub    $0x10,%esp
	char *path;
	struct inode *ip;
	struct proc *curproc = myproc();
801063f8:	e8 f3 e4 ff ff       	call   801048f0 <myproc>
801063fd:	89 c6                	mov    %eax,%esi

	begin_op();
801063ff:	e8 ac d8 ff ff       	call   80103cb0 <begin_op>
	if (argstr(0, &path) < 0 || (ip = namei(path)) == 0) {
80106404:	83 ec 08             	sub    $0x8,%esp
80106407:	8d 45 f4             	lea    -0xc(%ebp),%eax
8010640a:	50                   	push   %eax
8010640b:	6a 00                	push   $0x0
8010640d:	e8 ce f5 ff ff       	call   801059e0 <argstr>
80106412:	83 c4 10             	add    $0x10,%esp
80106415:	85 c0                	test   %eax,%eax
80106417:	78 77                	js     80106490 <sys_chdir+0xa0>
80106419:	83 ec 0c             	sub    $0xc,%esp
8010641c:	ff 75 f4             	push   -0xc(%ebp)
8010641f:	e8 bc ca ff ff       	call   80102ee0 <namei>
80106424:	83 c4 10             	add    $0x10,%esp
80106427:	89 c3                	mov    %eax,%ebx
80106429:	85 c0                	test   %eax,%eax
8010642b:	74 63                	je     80106490 <sys_chdir+0xa0>
		end_op();
		return -1;
	}
	ilock(ip);
8010642d:	83 ec 0c             	sub    $0xc,%esp
80106430:	50                   	push   %eax
80106431:	e8 4a c0 ff ff       	call   80102480 <ilock>
	if (ip->type != T_DIR) {
80106436:	83 c4 10             	add    $0x10,%esp
80106439:	66 83 7b 50 01       	cmpw   $0x1,0x50(%ebx)
8010643e:	75 30                	jne    80106470 <sys_chdir+0x80>
		iunlockput(ip);
		end_op();
		return -1;
	}
	iunlock(ip);
80106440:	83 ec 0c             	sub    $0xc,%esp
80106443:	53                   	push   %ebx
80106444:	e8 17 c1 ff ff       	call   80102560 <iunlock>
	iput(curproc->cwd);
80106449:	58                   	pop    %eax
8010644a:	ff b6 28 01 00 00    	push   0x128(%esi)
80106450:	e8 5b c1 ff ff       	call   801025b0 <iput>
	end_op();
80106455:	e8 c6 d8 ff ff       	call   80103d20 <end_op>
	curproc->cwd = ip;
8010645a:	89 9e 28 01 00 00    	mov    %ebx,0x128(%esi)
	return 0;
80106460:	83 c4 10             	add    $0x10,%esp
80106463:	31 c0                	xor    %eax,%eax
}
80106465:	8d 65 f8             	lea    -0x8(%ebp),%esp
80106468:	5b                   	pop    %ebx
80106469:	5e                   	pop    %esi
8010646a:	5d                   	pop    %ebp
8010646b:	c3                   	ret
8010646c:	8d 74 26 00          	lea    0x0(%esi,%eiz,1),%esi
		iunlockput(ip);
80106470:	83 ec 0c             	sub    $0xc,%esp
80106473:	53                   	push   %ebx
80106474:	e8 77 c3 ff ff       	call   801027f0 <iunlockput>
		end_op();
80106479:	e8 a2 d8 ff ff       	call   80103d20 <end_op>
		return -1;
8010647e:	83 c4 10             	add    $0x10,%esp
		return -1;
80106481:	b8 ff ff ff ff       	mov    $0xffffffff,%eax
80106486:	eb dd                	jmp    80106465 <sys_chdir+0x75>
80106488:	2e 8d b4 26 00 00 00 	lea    %cs:0x0(%esi,%eiz,1),%esi
8010648f:	00 
		end_op();
80106490:	e8 8b d8 ff ff       	call   80103d20 <end_op>
		return -1;
80106495:	eb ea                	jmp    80106481 <sys_chdir+0x91>
80106497:	2e 8d b4 26 00 00 00 	lea    %cs:0x0(%esi,%eiz,1),%esi
8010649e:	00 
8010649f:	90                   	nop

801064a0 <sys_exec>:

int sys_exec(void) {
801064a0:	55                   	push   %ebp
801064a1:	89 e5                	mov    %esp,%ebp
801064a3:	57                   	push   %edi
801064a4:	56                   	push   %esi
	char *path, *argv[MAXARG];
	int i;
	uint uargv, uarg;

	if (argstr(0, &path) < 0 || argint(1, (int *)&uargv) < 0) {
801064a5:	8d 85 5c ff ff ff    	lea    -0xa4(%ebp),%eax
int sys_exec(void) {
801064ab:	53                   	push   %ebx
801064ac:	81 ec a4 00 00 00    	sub    $0xa4,%esp
	if (argstr(0, &path) < 0 || argint(1, (int *)&uargv) < 0) {
801064b2:	50                   	push   %eax
801064b3:	6a 00                	push   $0x0
801064b5:	e8 26 f5 ff ff       	call   801059e0 <argstr>
801064ba:	83 c4 10             	add    $0x10,%esp
801064bd:	85 c0                	test   %eax,%eax
801064bf:	0f 88 87 00 00 00    	js     8010654c <sys_exec+0xac>
801064c5:	83 ec 08             	sub    $0x8,%esp
801064c8:	8d 85 60 ff ff ff    	lea    -0xa0(%ebp),%eax
801064ce:	50                   	push   %eax
801064cf:	6a 01                	push   $0x1
801064d1:	e8 4a f4 ff ff       	call   80105920 <argint>
801064d6:	83 c4 10             	add    $0x10,%esp
801064d9:	85 c0                	test   %eax,%eax
801064db:	78 6f                	js     8010654c <sys_exec+0xac>
		return -1;
	}
	memset(argv, 0, sizeof(argv));
801064dd:	83 ec 04             	sub    $0x4,%esp
801064e0:	8d b5 68 ff ff ff    	lea    -0x98(%ebp),%esi
	for (i = 0;; i++) {
801064e6:	31 db                	xor    %ebx,%ebx
	memset(argv, 0, sizeof(argv));
801064e8:	68 80 00 00 00       	push   $0x80
801064ed:	6a 00                	push   $0x0
801064ef:	56                   	push   %esi
801064f0:	e8 7b f1 ff ff       	call   80105670 <memset>
801064f5:	83 c4 10             	add    $0x10,%esp
801064f8:	2e 8d b4 26 00 00 00 	lea    %cs:0x0(%esi,%eiz,1),%esi
801064ff:	00 
		if (i >= NELEM(argv))
			return -1;
		if (fetchint(uargv + 4 * i, (int *)&uarg) < 0)
80106500:	83 ec 08             	sub    $0x8,%esp
80106503:	8d 85 64 ff ff ff    	lea    -0x9c(%ebp),%eax
80106509:	8d 3c 9d 00 00 00 00 	lea    0x0(,%ebx,4),%edi
80106510:	50                   	push   %eax
80106511:	8b 85 60 ff ff ff    	mov    -0xa0(%ebp),%eax
80106517:	01 f8                	add    %edi,%eax
80106519:	50                   	push   %eax
8010651a:	e8 71 f3 ff ff       	call   80105890 <fetchint>
8010651f:	83 c4 10             	add    $0x10,%esp
80106522:	85 c0                	test   %eax,%eax
80106524:	78 26                	js     8010654c <sys_exec+0xac>
			return -1;
		if (uarg == 0) {
80106526:	8b 85 64 ff ff ff    	mov    -0x9c(%ebp),%eax
8010652c:	85 c0                	test   %eax,%eax
8010652e:	74 30                	je     80106560 <sys_exec+0xc0>
			argv[i] = 0;
			break;
		}
		if (fetchstr(uarg, &argv[i]) < 0)
80106530:	83 ec 08             	sub    $0x8,%esp
80106533:	8d 14 3e             	lea    (%esi,%edi,1),%edx
80106536:	52                   	push   %edx
80106537:	50                   	push   %eax
80106538:	e8 93 f3 ff ff       	call   801058d0 <fetchstr>
8010653d:	83 c4 10             	add    $0x10,%esp
80106540:	85 c0                	test   %eax,%eax
80106542:	78 08                	js     8010654c <sys_exec+0xac>
	for (i = 0;; i++) {
80106544:	83 c3 01             	add    $0x1,%ebx
		if (i >= NELEM(argv))
80106547:	83 fb 20             	cmp    $0x20,%ebx
8010654a:	75 b4                	jne    80106500 <sys_exec+0x60>
			return -1;
	}
	return exec(path, argv);
}
8010654c:	8d 65 f4             	lea    -0xc(%ebp),%esp
		return -1;
8010654f:	b8 ff ff ff ff       	mov    $0xffffffff,%eax
}
80106554:	5b                   	pop    %ebx
80106555:	5e                   	pop    %esi
80106556:	5f                   	pop    %edi
80106557:	5d                   	pop    %ebp
80106558:	c3                   	ret
80106559:	8d b4 26 00 00 00 00 	lea    0x0(%esi,%eiz,1),%esi
			argv[i] = 0;
80106560:	c7 84 9d 68 ff ff ff 	movl   $0x0,-0x98(%ebp,%ebx,4)
80106567:	00 00 00 00 
	return exec(path, argv);
8010656b:	83 ec 08             	sub    $0x8,%esp
8010656e:	56                   	push   %esi
8010656f:	ff b5 5c ff ff ff    	push   -0xa4(%ebp)
80106575:	e8 a6 af ff ff       	call   80101520 <exec>
8010657a:	83 c4 10             	add    $0x10,%esp
}
8010657d:	8d 65 f4             	lea    -0xc(%ebp),%esp
80106580:	5b                   	pop    %ebx
80106581:	5e                   	pop    %esi
80106582:	5f                   	pop    %edi
80106583:	5d                   	pop    %ebp
80106584:	c3                   	ret
80106585:	2e 8d b4 26 00 00 00 	lea    %cs:0x0(%esi,%eiz,1),%esi
8010658c:	00 
8010658d:	8d 76 00             	lea    0x0(%esi),%esi

80106590 <sys_pipe>:

int sys_pipe(void) {
80106590:	55                   	push   %ebp
80106591:	89 e5                	mov    %esp,%ebp
80106593:	57                   	push   %edi
80106594:	56                   	push   %esi
	int *fd;
	struct file *rf, *wf;
	int fd0, fd1;

	if (argptr(0, (void *)&fd, 2 * sizeof(fd[0])) < 0)
80106595:	8d 45 dc             	lea    -0x24(%ebp),%eax
int sys_pipe(void) {
80106598:	53                   	push   %ebx
80106599:	83 ec 20             	sub    $0x20,%esp
	if (argptr(0, (void *)&fd, 2 * sizeof(fd[0])) < 0)
8010659c:	6a 08                	push   $0x8
8010659e:	50                   	push   %eax
8010659f:	6a 00                	push   $0x0
801065a1:	e8 ca f3 ff ff       	call   80105970 <argptr>
801065a6:	83 c4 10             	add    $0x10,%esp
801065a9:	85 c0                	test   %eax,%eax
801065ab:	0f 88 ab 00 00 00    	js     8010665c <sys_pipe+0xcc>
		return -1;
	if (pipealloc(&rf, &wf) < 0)
801065b1:	83 ec 08             	sub    $0x8,%esp
801065b4:	8d 45 e4             	lea    -0x1c(%ebp),%eax
801065b7:	50                   	push   %eax
801065b8:	8d 45 e0             	lea    -0x20(%ebp),%eax
801065bb:	50                   	push   %eax
801065bc:	e8 df dd ff ff       	call   801043a0 <pipealloc>
801065c1:	83 c4 10             	add    $0x10,%esp
801065c4:	85 c0                	test   %eax,%eax
801065c6:	0f 88 90 00 00 00    	js     8010665c <sys_pipe+0xcc>
		return -1;
	fd0 = -1;
	if ((fd0 = fdalloc(rf)) < 0 || (fd1 = fdalloc(wf)) < 0) {
801065cc:	8b 7d e0             	mov    -0x20(%ebp),%edi
	for (fd = 0; fd < NOFILE; fd++) {
801065cf:	31 db                	xor    %ebx,%ebx
	struct proc *curproc = myproc();
801065d1:	e8 1a e3 ff ff       	call   801048f0 <myproc>
	for (fd = 0; fd < NOFILE; fd++) {
801065d6:	eb 10                	jmp    801065e8 <sys_pipe+0x58>
801065d8:	2e 8d b4 26 00 00 00 	lea    %cs:0x0(%esi,%eiz,1),%esi
801065df:	00 
801065e0:	83 c3 01             	add    $0x1,%ebx
801065e3:	83 fb 40             	cmp    $0x40,%ebx
801065e6:	74 5d                	je     80106645 <sys_pipe+0xb5>
		if (curproc->ofile[fd] == 0) {
801065e8:	8b 74 98 28          	mov    0x28(%eax,%ebx,4),%esi
801065ec:	85 f6                	test   %esi,%esi
801065ee:	75 f0                	jne    801065e0 <sys_pipe+0x50>
			curproc->ofile[fd] = f;
801065f0:	8d 73 08             	lea    0x8(%ebx),%esi
801065f3:	89 7c b0 08          	mov    %edi,0x8(%eax,%esi,4)
	if ((fd0 = fdalloc(rf)) < 0 || (fd1 = fdalloc(wf)) < 0) {
801065f7:	8b 7d e4             	mov    -0x1c(%ebp),%edi
	struct proc *curproc = myproc();
801065fa:	e8 f1 e2 ff ff       	call   801048f0 <myproc>
	for (fd = 0; fd < NOFILE; fd++) {
801065ff:	31 d2                	xor    %edx,%edx
80106601:	eb 0d                	jmp    80106610 <sys_pipe+0x80>
80106603:	2e 8d 74 26 00       	lea    %cs:0x0(%esi,%eiz,1),%esi
80106608:	83 c2 01             	add    $0x1,%edx
8010660b:	83 fa 40             	cmp    $0x40,%edx
8010660e:	74 28                	je     80106638 <sys_pipe+0xa8>
		if (curproc->ofile[fd] == 0) {
80106610:	8b 4c 90 28          	mov    0x28(%eax,%edx,4),%ecx
80106614:	85 c9                	test   %ecx,%ecx
80106616:	75 f0                	jne    80106608 <sys_pipe+0x78>
			curproc->ofile[fd] = f;
80106618:	89 7c 90 28          	mov    %edi,0x28(%eax,%edx,4)
			myproc()->ofile[fd0] = 0;
		fileclose(rf);
		fileclose(wf);
		return -1;
	}
	fd[0] = fd0;
8010661c:	8b 45 dc             	mov    -0x24(%ebp),%eax
8010661f:	89 18                	mov    %ebx,(%eax)
	fd[1] = fd1;
80106621:	8b 45 dc             	mov    -0x24(%ebp),%eax
80106624:	89 50 04             	mov    %edx,0x4(%eax)
	return 0;
80106627:	31 c0                	xor    %eax,%eax
}
80106629:	8d 65 f4             	lea    -0xc(%ebp),%esp
8010662c:	5b                   	pop    %ebx
8010662d:	5e                   	pop    %esi
8010662e:	5f                   	pop    %edi
8010662f:	5d                   	pop    %ebp
80106630:	c3                   	ret
80106631:	8d b4 26 00 00 00 00 	lea    0x0(%esi,%eiz,1),%esi
			myproc()->ofile[fd0] = 0;
80106638:	e8 b3 e2 ff ff       	call   801048f0 <myproc>
8010663d:	c7 44 b0 08 00 00 00 	movl   $0x0,0x8(%eax,%esi,4)
80106644:	00 
		fileclose(rf);
80106645:	83 ec 0c             	sub    $0xc,%esp
80106648:	ff 75 e0             	push   -0x20(%ebp)
8010664b:	e8 30 b3 ff ff       	call   80101980 <fileclose>
		fileclose(wf);
80106650:	58                   	pop    %eax
80106651:	ff 75 e4             	push   -0x1c(%ebp)
80106654:	e8 27 b3 ff ff       	call   80101980 <fileclose>
		return -1;
80106659:	83 c4 10             	add    $0x10,%esp
		return -1;
8010665c:	b8 ff ff ff ff       	mov    $0xffffffff,%eax
80106661:	eb c6                	jmp    80106629 <sys_pipe+0x99>
80106663:	66 90                	xchg   %ax,%ax
80106665:	66 90                	xchg   %ax,%ax
80106667:	66 90                	xchg   %ax,%ax
80106669:	66 90                	xchg   %ax,%ax
8010666b:	66 90                	xchg   %ax,%ax
8010666d:	66 90                	xchg   %ax,%ax
8010666f:	90                   	nop

80106670 <sys_fork>:
#include "proc.h"
#include "types.h"
#include "x86.h"
#include "rtc.h"

int sys_fork(void) { return fork(); }
80106670:	e9 2b e4 ff ff       	jmp    80104aa0 <fork>
80106675:	2e 8d b4 26 00 00 00 	lea    %cs:0x0(%esi,%eiz,1),%esi
8010667c:	00 
8010667d:	8d 76 00             	lea    0x0(%esi),%esi

80106680 <sys_exit>:

int sys_exit(void) {
80106680:	55                   	push   %ebp
80106681:	89 e5                	mov    %esp,%ebp
80106683:	83 ec 08             	sub    $0x8,%esp
	exit();
80106686:	e8 95 e6 ff ff       	call   80104d20 <exit>
	return 0; // not reached
}
8010668b:	31 c0                	xor    %eax,%eax
8010668d:	c9                   	leave
8010668e:	c3                   	ret
8010668f:	90                   	nop

80106690 <sys_wait>:

int sys_wait(void) { return wait(); }
80106690:	e9 bb e7 ff ff       	jmp    80104e50 <wait>
80106695:	2e 8d b4 26 00 00 00 	lea    %cs:0x0(%esi,%eiz,1),%esi
8010669c:	00 
8010669d:	8d 76 00             	lea    0x0(%esi),%esi

801066a0 <sys_kill>:

int sys_kill(void) {
801066a0:	55                   	push   %ebp
801066a1:	89 e5                	mov    %esp,%ebp
801066a3:	83 ec 20             	sub    $0x20,%esp
	int pid;

	if (argint(0, &pid) < 0)
801066a6:	8d 45 f4             	lea    -0xc(%ebp),%eax
801066a9:	50                   	push   %eax
801066aa:	6a 00                	push   $0x0
801066ac:	e8 6f f2 ff ff       	call   80105920 <argint>
801066b1:	83 c4 10             	add    $0x10,%esp
801066b4:	85 c0                	test   %eax,%eax
801066b6:	78 18                	js     801066d0 <sys_kill+0x30>
		return -1;
	return kill(pid);
801066b8:	83 ec 0c             	sub    $0xc,%esp
801066bb:	ff 75 f4             	push   -0xc(%ebp)
801066be:	e8 2d ea ff ff       	call   801050f0 <kill>
801066c3:	83 c4 10             	add    $0x10,%esp
}
801066c6:	c9                   	leave
801066c7:	c3                   	ret
801066c8:	2e 8d b4 26 00 00 00 	lea    %cs:0x0(%esi,%eiz,1),%esi
801066cf:	00 
801066d0:	c9                   	leave
		return -1;
801066d1:	b8 ff ff ff ff       	mov    $0xffffffff,%eax
}
801066d6:	c3                   	ret
801066d7:	2e 8d b4 26 00 00 00 	lea    %cs:0x0(%esi,%eiz,1),%esi
801066de:	00 
801066df:	90                   	nop

801066e0 <sys_getpid>:

int sys_getpid(void) { return myproc()->pid; }
801066e0:	55                   	push   %ebp
801066e1:	89 e5                	mov    %esp,%ebp
801066e3:	83 ec 08             	sub    $0x8,%esp
801066e6:	e8 05 e2 ff ff       	call   801048f0 <myproc>
801066eb:	8b 40 10             	mov    0x10(%eax),%eax
801066ee:	c9                   	leave
801066ef:	c3                   	ret

801066f0 <sys_sbrk>:

int sys_sbrk(void) {
801066f0:	55                   	push   %ebp
801066f1:	89 e5                	mov    %esp,%ebp
801066f3:	53                   	push   %ebx
	int addr;
	int n;

	if (argint(0, &n) < 0)
801066f4:	8d 45 f4             	lea    -0xc(%ebp),%eax
int sys_sbrk(void) {
801066f7:	83 ec 1c             	sub    $0x1c,%esp
	if (argint(0, &n) < 0)
801066fa:	50                   	push   %eax
801066fb:	6a 00                	push   $0x0
801066fd:	e8 1e f2 ff ff       	call   80105920 <argint>
80106702:	83 c4 10             	add    $0x10,%esp
80106705:	85 c0                	test   %eax,%eax
80106707:	78 27                	js     80106730 <sys_sbrk+0x40>
		return -1;
	addr = myproc()->sz;
80106709:	e8 e2 e1 ff ff       	call   801048f0 <myproc>
	if (growproc(n) < 0)
8010670e:	83 ec 0c             	sub    $0xc,%esp
	addr = myproc()->sz;
80106711:	8b 18                	mov    (%eax),%ebx
	if (growproc(n) < 0)
80106713:	ff 75 f4             	push   -0xc(%ebp)
80106716:	e8 05 e3 ff ff       	call   80104a20 <growproc>
8010671b:	83 c4 10             	add    $0x10,%esp
8010671e:	85 c0                	test   %eax,%eax
80106720:	78 0e                	js     80106730 <sys_sbrk+0x40>
		return -1;
	return addr;
}
80106722:	89 d8                	mov    %ebx,%eax
80106724:	8b 5d fc             	mov    -0x4(%ebp),%ebx
80106727:	c9                   	leave
80106728:	c3                   	ret
80106729:	8d b4 26 00 00 00 00 	lea    0x0(%esi,%eiz,1),%esi
		return -1;
80106730:	bb ff ff ff ff       	mov    $0xffffffff,%ebx
80106735:	eb eb                	jmp    80106722 <sys_sbrk+0x32>
80106737:	2e 8d b4 26 00 00 00 	lea    %cs:0x0(%esi,%eiz,1),%esi
8010673e:	00 
8010673f:	90                   	nop

80106740 <sys_sleep>:

int sys_sleep(void) {
80106740:	55                   	push   %ebp
80106741:	89 e5                	mov    %esp,%ebp
80106743:	53                   	push   %ebx
	int n;
	uint ticks0;

	if (argint(0, &n) < 0)
80106744:	8d 45 f4             	lea    -0xc(%ebp),%eax
int sys_sleep(void) {
80106747:	83 ec 1c             	sub    $0x1c,%esp
	if (argint(0, &n) < 0)
8010674a:	50                   	push   %eax
8010674b:	6a 00                	push   $0x0
8010674d:	e8 ce f1 ff ff       	call   80105920 <argint>
80106752:	83 c4 10             	add    $0x10,%esp
80106755:	85 c0                	test   %eax,%eax
80106757:	78 64                	js     801067bd <sys_sleep+0x7d>
		return -1;
	acquire(&tickslock);
80106759:	83 ec 0c             	sub    $0xc,%esp
8010675c:	68 80 94 13 80       	push   $0x80139480
80106761:	e8 0a ee ff ff       	call   80105570 <acquire>
	ticks0 = ticks;
	while (ticks - ticks0 < n) {
80106766:	8b 55 f4             	mov    -0xc(%ebp),%edx
	ticks0 = ticks;
80106769:	8b 1d 60 94 13 80    	mov    0x80139460,%ebx
	while (ticks - ticks0 < n) {
8010676f:	83 c4 10             	add    $0x10,%esp
80106772:	85 d2                	test   %edx,%edx
80106774:	75 2b                	jne    801067a1 <sys_sleep+0x61>
80106776:	eb 58                	jmp    801067d0 <sys_sleep+0x90>
80106778:	2e 8d b4 26 00 00 00 	lea    %cs:0x0(%esi,%eiz,1),%esi
8010677f:	00 
		if (myproc()->killed) {
			release(&tickslock);
			return -1;
		}
		sleep(&ticks, &tickslock);
80106780:	83 ec 08             	sub    $0x8,%esp
80106783:	68 80 94 13 80       	push   $0x80139480
80106788:	68 60 94 13 80       	push   $0x80139460
8010678d:	e8 3e e8 ff ff       	call   80104fd0 <sleep>
	while (ticks - ticks0 < n) {
80106792:	a1 60 94 13 80       	mov    0x80139460,%eax
80106797:	83 c4 10             	add    $0x10,%esp
8010679a:	29 d8                	sub    %ebx,%eax
8010679c:	3b 45 f4             	cmp    -0xc(%ebp),%eax
8010679f:	73 2f                	jae    801067d0 <sys_sleep+0x90>
		if (myproc()->killed) {
801067a1:	e8 4a e1 ff ff       	call   801048f0 <myproc>
801067a6:	8b 40 24             	mov    0x24(%eax),%eax
801067a9:	85 c0                	test   %eax,%eax
801067ab:	74 d3                	je     80106780 <sys_sleep+0x40>
			release(&tickslock);
801067ad:	83 ec 0c             	sub    $0xc,%esp
801067b0:	68 80 94 13 80       	push   $0x80139480
801067b5:	e8 56 ed ff ff       	call   80105510 <release>
			return -1;
801067ba:	83 c4 10             	add    $0x10,%esp
	}
	release(&tickslock);
	return 0;
}
801067bd:	8b 5d fc             	mov    -0x4(%ebp),%ebx
		return -1;
801067c0:	b8 ff ff ff ff       	mov    $0xffffffff,%eax
}
801067c5:	c9                   	leave
801067c6:	c3                   	ret
801067c7:	2e 8d b4 26 00 00 00 	lea    %cs:0x0(%esi,%eiz,1),%esi
801067ce:	00 
801067cf:	90                   	nop
	release(&tickslock);
801067d0:	83 ec 0c             	sub    $0xc,%esp
801067d3:	68 80 94 13 80       	push   $0x80139480
801067d8:	e8 33 ed ff ff       	call   80105510 <release>
}
801067dd:	8b 5d fc             	mov    -0x4(%ebp),%ebx
	return 0;
801067e0:	83 c4 10             	add    $0x10,%esp
801067e3:	31 c0                	xor    %eax,%eax
}
801067e5:	c9                   	leave
801067e6:	c3                   	ret
801067e7:	2e 8d b4 26 00 00 00 	lea    %cs:0x0(%esi,%eiz,1),%esi
801067ee:	00 
801067ef:	90                   	nop

801067f0 <sys_uptime>:

// return how many clock tick interrupts have occurred
// since start.
int sys_uptime(void) {
801067f0:	55                   	push   %ebp
801067f1:	89 e5                	mov    %esp,%ebp
801067f3:	53                   	push   %ebx
801067f4:	83 ec 10             	sub    $0x10,%esp
	uint xticks;

	acquire(&tickslock);
801067f7:	68 80 94 13 80       	push   $0x80139480
801067fc:	e8 6f ed ff ff       	call   80105570 <acquire>
	xticks = ticks;
80106801:	8b 1d 60 94 13 80    	mov    0x80139460,%ebx
	release(&tickslock);
80106807:	c7 04 24 80 94 13 80 	movl   $0x80139480,(%esp)
8010680e:	e8 fd ec ff ff       	call   80105510 <release>
	return xticks;
}
80106813:	89 d8                	mov    %ebx,%eax
80106815:	8b 5d fc             	mov    -0x4(%ebp),%ebx
80106818:	c9                   	leave
80106819:	c3                   	ret
8010681a:	8d b6 00 00 00 00    	lea    0x0(%esi),%esi

80106820 <sys_halt>:
	asm volatile("out %0,%1" : : "a"(data), "d"(port));
80106820:	b8 00 20 00 00       	mov    $0x2000,%eax
80106825:	ba 04 06 00 00       	mov    $0x604,%edx
8010682a:	66 ef                	out    %ax,(%dx)
8010682c:	ba 04 b0 ff ff       	mov    $0xffffb004,%edx
80106831:	66 ef                	out    %ax,(%dx)

	// Jika kode di atas gagal (untuk versi QEMU lama)
	outw(0xB004, 0x2000);

	return 0;
}
80106833:	31 c0                	xor    %eax,%eax
80106835:	c3                   	ret
80106836:	2e 8d b4 26 00 00 00 	lea    %cs:0x0(%esi,%eiz,1),%esi
8010683d:	00 
8010683e:	66 90                	xchg   %ax,%ax

80106840 <sys_reboot>:
	asm volatile("in %1,%0" : "=a"(data) : "d"(port));
80106840:	ba 64 00 00 00       	mov    $0x64,%edx
80106845:	8d 76 00             	lea    0x0(%esi),%esi
80106848:	ec                   	in     (%dx),%al

// System call untuk restart komputer
int sys_reboot(void) {
	// Mengirim sinyal reset ke keyboard controller (standar x86 reboot)
	uchar good = 0x02;
	while (good & 0x02)
80106849:	a8 02                	test   $0x2,%al
8010684b:	75 fb                	jne    80106848 <sys_reboot+0x8>
	asm volatile("out %0,%1" : : "a"(data), "d"(port));
8010684d:	b8 fe ff ff ff       	mov    $0xfffffffe,%eax
80106852:	ee                   	out    %al,(%dx)
		good = inb(0x64);
	outb(0x64, 0xFE);

	return 0;
}
80106853:	31 c0                	xor    %eax,%eax
80106855:	c3                   	ret
80106856:	2e 8d b4 26 00 00 00 	lea    %cs:0x0(%esi,%eiz,1),%esi
8010685d:	00 
8010685e:	66 90                	xchg   %ax,%ax

80106860 <sys_get_rtc_time>:

// Implementasi System Call RTC yang sudah diperbaiki cast-nya
int sys_get_rtc_time(void) {
80106860:	55                   	push   %ebp
80106861:	89 e5                	mov    %esp,%ebp
80106863:	83 ec 1c             	sub    $0x1c,%esp
	int *h, *m, *s;

	// Ubah cast menjadi (char **) agar sesuai dengan defs.h
	if (argptr(0, (char **)&h, sizeof(int)) < 0 ||
80106866:	8d 45 ec             	lea    -0x14(%ebp),%eax
80106869:	6a 04                	push   $0x4
8010686b:	50                   	push   %eax
8010686c:	6a 00                	push   $0x0
8010686e:	e8 fd f0 ff ff       	call   80105970 <argptr>
80106873:	83 c4 10             	add    $0x10,%esp
80106876:	85 c0                	test   %eax,%eax
80106878:	78 46                	js     801068c0 <sys_get_rtc_time+0x60>
	    argptr(1, (char **)&m, sizeof(int)) < 0 ||
8010687a:	83 ec 04             	sub    $0x4,%esp
8010687d:	8d 45 f0             	lea    -0x10(%ebp),%eax
80106880:	6a 04                	push   $0x4
80106882:	50                   	push   %eax
80106883:	6a 01                	push   $0x1
80106885:	e8 e6 f0 ff ff       	call   80105970 <argptr>
	if (argptr(0, (char **)&h, sizeof(int)) < 0 ||
8010688a:	83 c4 10             	add    $0x10,%esp
8010688d:	85 c0                	test   %eax,%eax
8010688f:	78 2f                	js     801068c0 <sys_get_rtc_time+0x60>
	    argptr(2, (char **)&s, sizeof(int)) < 0)
80106891:	83 ec 04             	sub    $0x4,%esp
80106894:	8d 45 f4             	lea    -0xc(%ebp),%eax
80106897:	6a 04                	push   $0x4
80106899:	50                   	push   %eax
8010689a:	6a 02                	push   $0x2
8010689c:	e8 cf f0 ff ff       	call   80105970 <argptr>
	    argptr(1, (char **)&m, sizeof(int)) < 0 ||
801068a1:	83 c4 10             	add    $0x10,%esp
801068a4:	85 c0                	test   %eax,%eax
801068a6:	78 18                	js     801068c0 <sys_get_rtc_time+0x60>
		return -1;

	rtc_read_time(h, m, s);
801068a8:	83 ec 04             	sub    $0x4,%esp
801068ab:	ff 75 f4             	push   -0xc(%ebp)
801068ae:	ff 75 f0             	push   -0x10(%ebp)
801068b1:	ff 75 ec             	push   -0x14(%ebp)
801068b4:	e8 87 47 00 00       	call   8010b040 <rtc_read_time>
	return 0;
801068b9:	83 c4 10             	add    $0x10,%esp
801068bc:	31 c0                	xor    %eax,%eax
}
801068be:	c9                   	leave
801068bf:	c3                   	ret
801068c0:	c9                   	leave
		return -1;
801068c1:	b8 ff ff ff ff       	mov    $0xffffffff,%eax
}
801068c6:	c3                   	ret
801068c7:	2e 8d b4 26 00 00 00 	lea    %cs:0x0(%esi,%eiz,1),%esi
801068ce:	00 
801068cf:	90                   	nop

801068d0 <sys_get_rtc_date>:

int sys_get_rtc_date(void) {
801068d0:	55                   	push   %ebp
801068d1:	89 e5                	mov    %esp,%ebp
801068d3:	83 ec 1c             	sub    $0x1c,%esp
	int *d, *mo, *y;

	// Ubah cast menjadi (char **) agar sesuai dengan defs.h
	if (argptr(0, (char **)&d, sizeof(int)) < 0 ||
801068d6:	8d 45 ec             	lea    -0x14(%ebp),%eax
801068d9:	6a 04                	push   $0x4
801068db:	50                   	push   %eax
801068dc:	6a 00                	push   $0x0
801068de:	e8 8d f0 ff ff       	call   80105970 <argptr>
801068e3:	83 c4 10             	add    $0x10,%esp
801068e6:	85 c0                	test   %eax,%eax
801068e8:	78 46                	js     80106930 <sys_get_rtc_date+0x60>
	    argptr(1, (char **)&mo, sizeof(int)) < 0 ||
801068ea:	83 ec 04             	sub    $0x4,%esp
801068ed:	8d 45 f0             	lea    -0x10(%ebp),%eax
801068f0:	6a 04                	push   $0x4
801068f2:	50                   	push   %eax
801068f3:	6a 01                	push   $0x1
801068f5:	e8 76 f0 ff ff       	call   80105970 <argptr>
	if (argptr(0, (char **)&d, sizeof(int)) < 0 ||
801068fa:	83 c4 10             	add    $0x10,%esp
801068fd:	85 c0                	test   %eax,%eax
801068ff:	78 2f                	js     80106930 <sys_get_rtc_date+0x60>
	    argptr(2, (char **)&y, sizeof(int)) < 0)
80106901:	83 ec 04             	sub    $0x4,%esp
80106904:	8d 45 f4             	lea    -0xc(%ebp),%eax
80106907:	6a 04                	push   $0x4
80106909:	50                   	push   %eax
8010690a:	6a 02                	push   $0x2
8010690c:	e8 5f f0 ff ff       	call   80105970 <argptr>
	    argptr(1, (char **)&mo, sizeof(int)) < 0 ||
80106911:	83 c4 10             	add    $0x10,%esp
80106914:	85 c0                	test   %eax,%eax
80106916:	78 18                	js     80106930 <sys_get_rtc_date+0x60>
		return -1;

	rtc_read_date(d, mo, y);
80106918:	83 ec 04             	sub    $0x4,%esp
8010691b:	ff 75 f4             	push   -0xc(%ebp)
8010691e:	ff 75 f0             	push   -0x10(%ebp)
80106921:	ff 75 ec             	push   -0x14(%ebp)
80106924:	e8 97 47 00 00       	call   8010b0c0 <rtc_read_date>
	return 0;
80106929:	83 c4 10             	add    $0x10,%esp
8010692c:	31 c0                	xor    %eax,%eax
8010692e:	c9                   	leave
8010692f:	c3                   	ret
80106930:	c9                   	leave
		return -1;
80106931:	b8 ff ff ff ff       	mov    $0xffffffff,%eax
80106936:	c3                   	ret

80106937 <alltraps>:

  # vectors.S sends all traps here.
.globl alltraps
alltraps:
  # Build trap frame.
  pushl %ds
80106937:	1e                   	push   %ds
  pushl %es
80106938:	06                   	push   %es
  pushl %fs
80106939:	0f a0                	push   %fs
  pushl %gs
8010693b:	0f a8                	push   %gs
  pushal
8010693d:	60                   	pusha
  
  # Set up data segments.
  movw $(SEG_KDATA<<3), %ax
8010693e:	66 b8 10 00          	mov    $0x10,%ax
  movw %ax, %ds
80106942:	8e d8                	mov    %eax,%ds
  movw %ax, %es
80106944:	8e c0                	mov    %eax,%es

  # Call trap(tf), where tf=%esp
  pushl %esp
80106946:	54                   	push   %esp
  call trap
80106947:	e8 c4 00 00 00       	call   80106a10 <trap>
  addl $4, %esp
8010694c:	83 c4 04             	add    $0x4,%esp

8010694f <trapret>:

  # Return falls through to trapret...
.globl trapret
trapret:
  popal
8010694f:	61                   	popa
  popl %gs
80106950:	0f a9                	pop    %gs
  popl %fs
80106952:	0f a1                	pop    %fs
  popl %es
80106954:	07                   	pop    %es
  popl %ds
80106955:	1f                   	pop    %ds
  addl $0x8, %esp  # trapno and errcode
80106956:	83 c4 08             	add    $0x8,%esp
  iret
80106959:	cf                   	iret
8010695a:	66 90                	xchg   %ax,%ax
8010695c:	66 90                	xchg   %ax,%ax
8010695e:	66 90                	xchg   %ax,%ax

80106960 <tvinit>:
struct gatedesc idt[256];
extern uint vectors[]; // in vectors.S: array of 256 entry pointers
struct spinlock tickslock;
uint ticks;

void tvinit(void) {
80106960:	55                   	push   %ebp
	int i;

	for (i = 0; i < 256; i++)
80106961:	31 c0                	xor    %eax,%eax
void tvinit(void) {
80106963:	89 e5                	mov    %esp,%ebp
80106965:	83 ec 08             	sub    $0x8,%esp
80106968:	2e 8d b4 26 00 00 00 	lea    %cs:0x0(%esi,%eiz,1),%esi
8010696f:	00 
		SETGATE(idt[i], 0, SEG_KCODE << 3, vectors[i], 0);
80106970:	8b 14 85 00 c0 10 80 	mov    -0x7fef4000(,%eax,4),%edx
80106977:	c7 04 c5 c2 94 13 80 	movl   $0x8e000008,-0x7fec6b3e(,%eax,8)
8010697e:	08 00 00 8e 
80106982:	66 89 14 c5 c0 94 13 	mov    %dx,-0x7fec6b40(,%eax,8)
80106989:	80 
8010698a:	c1 ea 10             	shr    $0x10,%edx
8010698d:	66 89 14 c5 c6 94 13 	mov    %dx,-0x7fec6b3a(,%eax,8)
80106994:	80 
	for (i = 0; i < 256; i++)
80106995:	83 c0 01             	add    $0x1,%eax
80106998:	3d 00 01 00 00       	cmp    $0x100,%eax
8010699d:	75 d1                	jne    80106970 <tvinit+0x10>
	SETGATE(idt[T_SYSCALL], 1, SEG_KCODE << 3, vectors[T_SYSCALL],
		DPL_USER);

	initlock(&tickslock, "time");
8010699f:	83 ec 08             	sub    $0x8,%esp
	SETGATE(idt[T_SYSCALL], 1, SEG_KCODE << 3, vectors[T_SYSCALL],
801069a2:	a1 00 c1 10 80       	mov    0x8010c100,%eax
801069a7:	c7 05 c2 96 13 80 08 	movl   $0xef000008,0x801396c2
801069ae:	00 00 ef 
	initlock(&tickslock, "time");
801069b1:	68 0a b6 10 80       	push   $0x8010b60a
801069b6:	68 80 94 13 80       	push   $0x80139480
	SETGATE(idt[T_SYSCALL], 1, SEG_KCODE << 3, vectors[T_SYSCALL],
801069bb:	66 a3 c0 96 13 80    	mov    %ax,0x801396c0
801069c1:	c1 e8 10             	shr    $0x10,%eax
801069c4:	66 a3 c6 96 13 80    	mov    %ax,0x801396c6
	initlock(&tickslock, "time");
801069ca:	e8 b1 e9 ff ff       	call   80105380 <initlock>
}
801069cf:	83 c4 10             	add    $0x10,%esp
801069d2:	c9                   	leave
801069d3:	c3                   	ret
801069d4:	2e 8d b4 26 00 00 00 	lea    %cs:0x0(%esi,%eiz,1),%esi
801069db:	00 
801069dc:	8d 74 26 00          	lea    0x0(%esi,%eiz,1),%esi

801069e0 <idtinit>:

void idtinit(void) { lidt(idt, sizeof(idt)); }
801069e0:	55                   	push   %ebp
	pd[0] = size - 1;
801069e1:	b8 ff 07 00 00       	mov    $0x7ff,%eax
801069e6:	89 e5                	mov    %esp,%ebp
801069e8:	83 ec 10             	sub    $0x10,%esp
801069eb:	66 89 45 fa          	mov    %ax,-0x6(%ebp)
	pd[1] = (uint)p;
801069ef:	b8 c0 94 13 80       	mov    $0x801394c0,%eax
801069f4:	66 89 45 fc          	mov    %ax,-0x4(%ebp)
	pd[2] = (uint)p >> 16;
801069f8:	c1 e8 10             	shr    $0x10,%eax
801069fb:	66 89 45 fe          	mov    %ax,-0x2(%ebp)
	asm volatile("lidt (%0)" : : "r"(pd));
801069ff:	8d 45 fa             	lea    -0x6(%ebp),%eax
80106a02:	0f 01 18             	lidtl  (%eax)
80106a05:	c9                   	leave
80106a06:	c3                   	ret
80106a07:	2e 8d b4 26 00 00 00 	lea    %cs:0x0(%esi,%eiz,1),%esi
80106a0e:	00 
80106a0f:	90                   	nop

80106a10 <trap>:

// PAGEBREAK: 41
void trap(struct trapframe *tf) {
80106a10:	55                   	push   %ebp
80106a11:	89 e5                	mov    %esp,%ebp
80106a13:	57                   	push   %edi
80106a14:	56                   	push   %esi
80106a15:	53                   	push   %ebx
80106a16:	83 ec 1c             	sub    $0x1c,%esp
80106a19:	8b 5d 08             	mov    0x8(%ebp),%ebx
	if (tf->trapno == T_SYSCALL) {
80106a1c:	8b 43 30             	mov    0x30(%ebx),%eax
80106a1f:	83 f8 40             	cmp    $0x40,%eax
80106a22:	0f 84 60 01 00 00    	je     80106b88 <trap+0x178>
		if (myproc()->killed)
			exit();
		return;
	}

	switch (tf->trapno) {
80106a28:	83 e8 20             	sub    $0x20,%eax
80106a2b:	83 f8 1f             	cmp    $0x1f,%eax
80106a2e:	0f 87 7c 00 00 00    	ja     80106ab0 <trap+0xa0>
80106a34:	ff 24 85 10 be 10 80 	jmp    *-0x7fef41f0(,%eax,4)
80106a3b:	2e 8d 74 26 00       	lea    %cs:0x0(%esi,%eiz,1),%esi
			release(&tickslock);
		}
		lapiceoi();
		break;
	case T_IRQ0 + IRQ_IDE:
		ideintr();
80106a40:	e8 8b c6 ff ff       	call   801030d0 <ideintr>
		lapiceoi();
80106a45:	e8 16 ce ff ff       	call   80103860 <lapiceoi>
	}

	// Force process exit if it has been killed and is in user space.
	// (If it is still executing in the kernel, let it keep running
	// until it gets to the regular system call return.)
	if (myproc() && myproc()->killed && (tf->cs & 3) == DPL_USER)
80106a4a:	e8 a1 de ff ff       	call   801048f0 <myproc>
80106a4f:	85 c0                	test   %eax,%eax
80106a51:	74 1a                	je     80106a6d <trap+0x5d>
80106a53:	e8 98 de ff ff       	call   801048f0 <myproc>
80106a58:	8b 50 24             	mov    0x24(%eax),%edx
80106a5b:	85 d2                	test   %edx,%edx
80106a5d:	74 0e                	je     80106a6d <trap+0x5d>
80106a5f:	0f b7 43 3c          	movzwl 0x3c(%ebx),%eax
80106a63:	f7 d0                	not    %eax
80106a65:	a8 03                	test   $0x3,%al
80106a67:	0f 84 0b 02 00 00    	je     80106c78 <trap+0x268>
		exit();

	// Force process to give up CPU on clock tick.
	// If interrupts were on while locks held, would need to check nlock.
	if (myproc() && myproc()->state == RUNNING &&
80106a6d:	e8 7e de ff ff       	call   801048f0 <myproc>
80106a72:	85 c0                	test   %eax,%eax
80106a74:	74 0f                	je     80106a85 <trap+0x75>
80106a76:	e8 75 de ff ff       	call   801048f0 <myproc>
80106a7b:	83 78 0c 04          	cmpl   $0x4,0xc(%eax)
80106a7f:	0f 84 b3 00 00 00    	je     80106b38 <trap+0x128>
	    tf->trapno == T_IRQ0 + IRQ_TIMER)
		yield();

	// Check if the process has been killed since we yielded
	if (myproc() && myproc()->killed && (tf->cs & 3) == DPL_USER)
80106a85:	e8 66 de ff ff       	call   801048f0 <myproc>
80106a8a:	85 c0                	test   %eax,%eax
80106a8c:	74 1a                	je     80106aa8 <trap+0x98>
80106a8e:	e8 5d de ff ff       	call   801048f0 <myproc>
80106a93:	8b 40 24             	mov    0x24(%eax),%eax
80106a96:	85 c0                	test   %eax,%eax
80106a98:	74 0e                	je     80106aa8 <trap+0x98>
80106a9a:	0f b7 43 3c          	movzwl 0x3c(%ebx),%eax
80106a9e:	f7 d0                	not    %eax
80106aa0:	a8 03                	test   $0x3,%al
80106aa2:	0f 84 0d 01 00 00    	je     80106bb5 <trap+0x1a5>
		exit();
}
80106aa8:	8d 65 f4             	lea    -0xc(%ebp),%esp
80106aab:	5b                   	pop    %ebx
80106aac:	5e                   	pop    %esi
80106aad:	5f                   	pop    %edi
80106aae:	5d                   	pop    %ebp
80106aaf:	c3                   	ret
		if (myproc() == 0 || (tf->cs & 3) == 0) {
80106ab0:	e8 3b de ff ff       	call   801048f0 <myproc>
80106ab5:	8b 7b 38             	mov    0x38(%ebx),%edi
80106ab8:	85 c0                	test   %eax,%eax
80106aba:	0f 84 d2 01 00 00    	je     80106c92 <trap+0x282>
80106ac0:	f6 43 3c 03          	testb  $0x3,0x3c(%ebx)
80106ac4:	0f 84 c8 01 00 00    	je     80106c92 <trap+0x282>
	return result;
}

static inline uint rcr2(void) {
	uint val;
	asm volatile("movl %%cr2,%0" : "=r"(val));
80106aca:	0f 20 d1             	mov    %cr2,%ecx
80106acd:	89 4d d8             	mov    %ecx,-0x28(%ebp)
		cprintf("pid %d %s: trap %d err %d on cpu %d "
80106ad0:	e8 fb dd ff ff       	call   801048d0 <cpuid>
80106ad5:	8b 73 30             	mov    0x30(%ebx),%esi
80106ad8:	89 45 dc             	mov    %eax,-0x24(%ebp)
80106adb:	8b 43 34             	mov    0x34(%ebx),%eax
80106ade:	89 45 e4             	mov    %eax,-0x1c(%ebp)
			myproc()->pid, myproc()->name, tf->trapno, tf->err,
80106ae1:	e8 0a de ff ff       	call   801048f0 <myproc>
80106ae6:	89 45 e0             	mov    %eax,-0x20(%ebp)
80106ae9:	e8 02 de ff ff       	call   801048f0 <myproc>
		cprintf("pid %d %s: trap %d err %d on cpu %d "
80106aee:	8b 4d d8             	mov    -0x28(%ebp),%ecx
80106af1:	51                   	push   %ecx
80106af2:	57                   	push   %edi
80106af3:	8b 55 dc             	mov    -0x24(%ebp),%edx
80106af6:	52                   	push   %edx
80106af7:	ff 75 e4             	push   -0x1c(%ebp)
80106afa:	56                   	push   %esi
			myproc()->pid, myproc()->name, tf->trapno, tf->err,
80106afb:	8b 75 e0             	mov    -0x20(%ebp),%esi
80106afe:	81 c6 2c 01 00 00    	add    $0x12c,%esi
		cprintf("pid %d %s: trap %d err %d on cpu %d "
80106b04:	56                   	push   %esi
80106b05:	ff 70 10             	push   0x10(%eax)
80106b08:	68 40 ba 10 80       	push   $0x8010ba40
80106b0d:	e8 0e a6 ff ff       	call   80101120 <cprintf>
		myproc()->killed = 1;
80106b12:	83 c4 20             	add    $0x20,%esp
80106b15:	e8 d6 dd ff ff       	call   801048f0 <myproc>
80106b1a:	c7 40 24 01 00 00 00 	movl   $0x1,0x24(%eax)
	if (myproc() && myproc()->killed && (tf->cs & 3) == DPL_USER)
80106b21:	e8 ca dd ff ff       	call   801048f0 <myproc>
80106b26:	85 c0                	test   %eax,%eax
80106b28:	0f 85 25 ff ff ff    	jne    80106a53 <trap+0x43>
80106b2e:	e9 3a ff ff ff       	jmp    80106a6d <trap+0x5d>
80106b33:	2e 8d 74 26 00       	lea    %cs:0x0(%esi,%eiz,1),%esi
	if (myproc() && myproc()->state == RUNNING &&
80106b38:	83 7b 30 20          	cmpl   $0x20,0x30(%ebx)
80106b3c:	0f 85 43 ff ff ff    	jne    80106a85 <trap+0x75>
		yield();
80106b42:	e8 39 e4 ff ff       	call   80104f80 <yield>
80106b47:	e9 39 ff ff ff       	jmp    80106a85 <trap+0x75>
80106b4c:	8d 74 26 00          	lea    0x0(%esi,%eiz,1),%esi
		cprintf("cpu%d: spurious interrupt at %x:%x\n", cpuid(), tf->cs,
80106b50:	8b 7b 38             	mov    0x38(%ebx),%edi
80106b53:	0f b7 73 3c          	movzwl 0x3c(%ebx),%esi
80106b57:	e8 74 dd ff ff       	call   801048d0 <cpuid>
80106b5c:	57                   	push   %edi
80106b5d:	56                   	push   %esi
80106b5e:	50                   	push   %eax
80106b5f:	68 e8 b9 10 80       	push   $0x8010b9e8
80106b64:	e8 b7 a5 ff ff       	call   80101120 <cprintf>
		lapiceoi();
80106b69:	e8 f2 cc ff ff       	call   80103860 <lapiceoi>
		break;
80106b6e:	83 c4 10             	add    $0x10,%esp
	if (myproc() && myproc()->killed && (tf->cs & 3) == DPL_USER)
80106b71:	e8 7a dd ff ff       	call   801048f0 <myproc>
80106b76:	85 c0                	test   %eax,%eax
80106b78:	0f 85 d5 fe ff ff    	jne    80106a53 <trap+0x43>
80106b7e:	e9 ea fe ff ff       	jmp    80106a6d <trap+0x5d>
80106b83:	2e 8d 74 26 00       	lea    %cs:0x0(%esi,%eiz,1),%esi
		if (myproc()->killed)
80106b88:	e8 63 dd ff ff       	call   801048f0 <myproc>
80106b8d:	8b 70 24             	mov    0x24(%eax),%esi
80106b90:	85 f6                	test   %esi,%esi
80106b92:	0f 85 f0 00 00 00    	jne    80106c88 <trap+0x278>
		myproc()->tf = tf;
80106b98:	e8 53 dd ff ff       	call   801048f0 <myproc>
80106b9d:	89 58 18             	mov    %ebx,0x18(%eax)
		syscall();
80106ba0:	e8 bb ee ff ff       	call   80105a60 <syscall>
		if (myproc()->killed)
80106ba5:	e8 46 dd ff ff       	call   801048f0 <myproc>
80106baa:	8b 48 24             	mov    0x24(%eax),%ecx
80106bad:	85 c9                	test   %ecx,%ecx
80106baf:	0f 84 f3 fe ff ff    	je     80106aa8 <trap+0x98>
}
80106bb5:	8d 65 f4             	lea    -0xc(%ebp),%esp
80106bb8:	5b                   	pop    %ebx
80106bb9:	5e                   	pop    %esi
80106bba:	5f                   	pop    %edi
80106bbb:	5d                   	pop    %ebp
			exit();
80106bbc:	e9 5f e1 ff ff       	jmp    80104d20 <exit>
80106bc1:	8d b4 26 00 00 00 00 	lea    0x0(%esi,%eiz,1),%esi
		mouseintr(ticks);
80106bc8:	83 ec 0c             	sub    $0xc,%esp
80106bcb:	ff 35 60 94 13 80    	push   0x80139460
80106bd1:	e8 6a 1d 00 00       	call   80108940 <mouseintr>
		lapiceoi();
80106bd6:	e8 85 cc ff ff       	call   80103860 <lapiceoi>
		break;
80106bdb:	83 c4 10             	add    $0x10,%esp
	if (myproc() && myproc()->killed && (tf->cs & 3) == DPL_USER)
80106bde:	e8 0d dd ff ff       	call   801048f0 <myproc>
80106be3:	85 c0                	test   %eax,%eax
80106be5:	0f 85 68 fe ff ff    	jne    80106a53 <trap+0x43>
80106beb:	e9 7d fe ff ff       	jmp    80106a6d <trap+0x5d>
		kbdintr();
80106bf0:	e8 2b cb ff ff       	call   80103720 <kbdintr>
		lapiceoi();
80106bf5:	e8 66 cc ff ff       	call   80103860 <lapiceoi>
	if (myproc() && myproc()->killed && (tf->cs & 3) == DPL_USER)
80106bfa:	e8 f1 dc ff ff       	call   801048f0 <myproc>
80106bff:	85 c0                	test   %eax,%eax
80106c01:	0f 85 4c fe ff ff    	jne    80106a53 <trap+0x43>
80106c07:	e9 61 fe ff ff       	jmp    80106a6d <trap+0x5d>
80106c0c:	8d 74 26 00          	lea    0x0(%esi,%eiz,1),%esi
		uartintr();
80106c10:	e8 2b 02 00 00       	call   80106e40 <uartintr>
		lapiceoi();
80106c15:	e8 46 cc ff ff       	call   80103860 <lapiceoi>
	if (myproc() && myproc()->killed && (tf->cs & 3) == DPL_USER)
80106c1a:	e8 d1 dc ff ff       	call   801048f0 <myproc>
80106c1f:	85 c0                	test   %eax,%eax
80106c21:	0f 85 2c fe ff ff    	jne    80106a53 <trap+0x43>
80106c27:	e9 41 fe ff ff       	jmp    80106a6d <trap+0x5d>
80106c2c:	8d 74 26 00          	lea    0x0(%esi,%eiz,1),%esi
		if (cpuid() == 0) {
80106c30:	e8 9b dc ff ff       	call   801048d0 <cpuid>
80106c35:	85 c0                	test   %eax,%eax
80106c37:	0f 85 08 fe ff ff    	jne    80106a45 <trap+0x35>
			acquire(&tickslock);
80106c3d:	83 ec 0c             	sub    $0xc,%esp
80106c40:	68 80 94 13 80       	push   $0x80139480
80106c45:	e8 26 e9 ff ff       	call   80105570 <acquire>
			ticks++;
80106c4a:	83 05 60 94 13 80 01 	addl   $0x1,0x80139460
			wakeup(&ticks);
80106c51:	c7 04 24 60 94 13 80 	movl   $0x80139460,(%esp)
80106c58:	e8 33 e4 ff ff       	call   80105090 <wakeup>
			release(&tickslock);
80106c5d:	c7 04 24 80 94 13 80 	movl   $0x80139480,(%esp)
80106c64:	e8 a7 e8 ff ff       	call   80105510 <release>
80106c69:	83 c4 10             	add    $0x10,%esp
		lapiceoi();
80106c6c:	e9 d4 fd ff ff       	jmp    80106a45 <trap+0x35>
80106c71:	8d b4 26 00 00 00 00 	lea    0x0(%esi,%eiz,1),%esi
		exit();
80106c78:	e8 a3 e0 ff ff       	call   80104d20 <exit>
80106c7d:	e9 eb fd ff ff       	jmp    80106a6d <trap+0x5d>
80106c82:	8d b6 00 00 00 00    	lea    0x0(%esi),%esi
			exit();
80106c88:	e8 93 e0 ff ff       	call   80104d20 <exit>
80106c8d:	e9 06 ff ff ff       	jmp    80106b98 <trap+0x188>
80106c92:	0f 20 d6             	mov    %cr2,%esi
			cprintf("unexpected trap %d from cpu %d eip %x "
80106c95:	e8 36 dc ff ff       	call   801048d0 <cpuid>
80106c9a:	83 ec 0c             	sub    $0xc,%esp
80106c9d:	56                   	push   %esi
80106c9e:	57                   	push   %edi
80106c9f:	50                   	push   %eax
80106ca0:	ff 73 30             	push   0x30(%ebx)
80106ca3:	68 0c ba 10 80       	push   $0x8010ba0c
80106ca8:	e8 73 a4 ff ff       	call   80101120 <cprintf>
			panic("trap");
80106cad:	83 c4 14             	add    $0x14,%esp
80106cb0:	68 0f b6 10 80       	push   $0x8010b60f
80106cb5:	e8 36 a1 ff ff       	call   80100df0 <panic>
80106cba:	66 90                	xchg   %ax,%ax
80106cbc:	66 90                	xchg   %ax,%ax
80106cbe:	66 90                	xchg   %ax,%ax

80106cc0 <uartgetc>:
		microdelay(10);
	outb(COM1 + 0, c);
}

static int uartgetc(void) {
	if (!uart)
80106cc0:	a1 c0 9c 13 80       	mov    0x80139cc0,%eax
80106cc5:	85 c0                	test   %eax,%eax
80106cc7:	74 17                	je     80106ce0 <uartgetc+0x20>
	asm volatile("in %1,%0" : "=a"(data) : "d"(port));
80106cc9:	ba fd 03 00 00       	mov    $0x3fd,%edx
80106cce:	ec                   	in     (%dx),%al
		return -1;
	if (!(inb(COM1 + 5) & 0x01))
80106ccf:	a8 01                	test   $0x1,%al
80106cd1:	74 0d                	je     80106ce0 <uartgetc+0x20>
80106cd3:	ba f8 03 00 00       	mov    $0x3f8,%edx
80106cd8:	ec                   	in     (%dx),%al
		return -1;
	return inb(COM1 + 0);
80106cd9:	0f b6 c0             	movzbl %al,%eax
80106cdc:	c3                   	ret
80106cdd:	8d 76 00             	lea    0x0(%esi),%esi
		return -1;
80106ce0:	b8 ff ff ff ff       	mov    $0xffffffff,%eax
}
80106ce5:	c3                   	ret
80106ce6:	2e 8d b4 26 00 00 00 	lea    %cs:0x0(%esi,%eiz,1),%esi
80106ced:	00 
80106cee:	66 90                	xchg   %ax,%ax

80106cf0 <uartinit>:
void uartinit(void) {
80106cf0:	55                   	push   %ebp
	asm volatile("out %0,%1" : : "a"(data), "d"(port));
80106cf1:	31 c9                	xor    %ecx,%ecx
80106cf3:	89 c8                	mov    %ecx,%eax
80106cf5:	89 e5                	mov    %esp,%ebp
80106cf7:	57                   	push   %edi
80106cf8:	bf fa 03 00 00       	mov    $0x3fa,%edi
80106cfd:	56                   	push   %esi
80106cfe:	89 fa                	mov    %edi,%edx
80106d00:	53                   	push   %ebx
80106d01:	83 ec 1c             	sub    $0x1c,%esp
80106d04:	ee                   	out    %al,(%dx)
80106d05:	be fb 03 00 00       	mov    $0x3fb,%esi
80106d0a:	b8 80 ff ff ff       	mov    $0xffffff80,%eax
80106d0f:	89 f2                	mov    %esi,%edx
80106d11:	ee                   	out    %al,(%dx)
80106d12:	b8 0c 00 00 00       	mov    $0xc,%eax
80106d17:	ba f8 03 00 00       	mov    $0x3f8,%edx
80106d1c:	ee                   	out    %al,(%dx)
80106d1d:	bb f9 03 00 00       	mov    $0x3f9,%ebx
80106d22:	89 c8                	mov    %ecx,%eax
80106d24:	89 da                	mov    %ebx,%edx
80106d26:	ee                   	out    %al,(%dx)
80106d27:	b8 03 00 00 00       	mov    $0x3,%eax
80106d2c:	89 f2                	mov    %esi,%edx
80106d2e:	ee                   	out    %al,(%dx)
80106d2f:	ba fc 03 00 00       	mov    $0x3fc,%edx
80106d34:	89 c8                	mov    %ecx,%eax
80106d36:	ee                   	out    %al,(%dx)
80106d37:	b8 01 00 00 00       	mov    $0x1,%eax
80106d3c:	89 da                	mov    %ebx,%edx
80106d3e:	ee                   	out    %al,(%dx)
	asm volatile("in %1,%0" : "=a"(data) : "d"(port));
80106d3f:	ba fd 03 00 00       	mov    $0x3fd,%edx
80106d44:	ec                   	in     (%dx),%al
	if (inb(COM1 + 5) == 0xFF)
80106d45:	3c ff                	cmp    $0xff,%al
80106d47:	0f 84 7c 00 00 00    	je     80106dc9 <uartinit+0xd9>
	uart = 1;
80106d4d:	c7 05 c0 9c 13 80 01 	movl   $0x1,0x80139cc0
80106d54:	00 00 00 
80106d57:	89 fa                	mov    %edi,%edx
80106d59:	ec                   	in     (%dx),%al
80106d5a:	ba f8 03 00 00       	mov    $0x3f8,%edx
80106d5f:	ec                   	in     (%dx),%al
	ioapicenable(IRQ_COM1, 0);
80106d60:	83 ec 08             	sub    $0x8,%esp
	for (p = "xv6...\n"; *p; p++)
80106d63:	bf 14 b6 10 80       	mov    $0x8010b614,%edi
80106d68:	be fd 03 00 00       	mov    $0x3fd,%esi
	ioapicenable(IRQ_COM1, 0);
80106d6d:	6a 00                	push   $0x0
80106d6f:	6a 04                	push   $0x4
80106d71:	e8 fa c5 ff ff       	call   80103370 <ioapicenable>
80106d76:	83 c4 10             	add    $0x10,%esp
	for (p = "xv6...\n"; *p; p++)
80106d79:	c6 45 e7 78          	movb   $0x78,-0x19(%ebp)
80106d7d:	8d 76 00             	lea    0x0(%esi),%esi
	if (!uart)
80106d80:	a1 c0 9c 13 80       	mov    0x80139cc0,%eax
80106d85:	85 c0                	test   %eax,%eax
80106d87:	74 32                	je     80106dbb <uartinit+0xcb>
80106d89:	89 f2                	mov    %esi,%edx
80106d8b:	ec                   	in     (%dx),%al
	for (i = 0; i < 128 && !(inb(COM1 + 5) & 0x20); i++)
80106d8c:	a8 20                	test   $0x20,%al
80106d8e:	75 21                	jne    80106db1 <uartinit+0xc1>
80106d90:	bb 80 00 00 00       	mov    $0x80,%ebx
80106d95:	8d 76 00             	lea    0x0(%esi),%esi
		microdelay(10);
80106d98:	83 ec 0c             	sub    $0xc,%esp
80106d9b:	6a 0a                	push   $0xa
80106d9d:	e8 de ca ff ff       	call   80103880 <microdelay>
	for (i = 0; i < 128 && !(inb(COM1 + 5) & 0x20); i++)
80106da2:	83 c4 10             	add    $0x10,%esp
80106da5:	83 eb 01             	sub    $0x1,%ebx
80106da8:	74 07                	je     80106db1 <uartinit+0xc1>
80106daa:	89 f2                	mov    %esi,%edx
80106dac:	ec                   	in     (%dx),%al
80106dad:	a8 20                	test   $0x20,%al
80106daf:	74 e7                	je     80106d98 <uartinit+0xa8>
	asm volatile("out %0,%1" : : "a"(data), "d"(port));
80106db1:	ba f8 03 00 00       	mov    $0x3f8,%edx
80106db6:	0f b6 45 e7          	movzbl -0x19(%ebp),%eax
80106dba:	ee                   	out    %al,(%dx)
	for (p = "xv6...\n"; *p; p++)
80106dbb:	0f b6 47 01          	movzbl 0x1(%edi),%eax
80106dbf:	83 c7 01             	add    $0x1,%edi
80106dc2:	88 45 e7             	mov    %al,-0x19(%ebp)
80106dc5:	84 c0                	test   %al,%al
80106dc7:	75 b7                	jne    80106d80 <uartinit+0x90>
}
80106dc9:	8d 65 f4             	lea    -0xc(%ebp),%esp
80106dcc:	5b                   	pop    %ebx
80106dcd:	5e                   	pop    %esi
80106dce:	5f                   	pop    %edi
80106dcf:	5d                   	pop    %ebp
80106dd0:	c3                   	ret
80106dd1:	2e 8d b4 26 00 00 00 	lea    %cs:0x0(%esi,%eiz,1),%esi
80106dd8:	00 
80106dd9:	8d b4 26 00 00 00 00 	lea    0x0(%esi,%eiz,1),%esi

80106de0 <uartputc>:
	if (!uart)
80106de0:	a1 c0 9c 13 80       	mov    0x80139cc0,%eax
80106de5:	85 c0                	test   %eax,%eax
80106de7:	74 4f                	je     80106e38 <uartputc+0x58>
void uartputc(int c) {
80106de9:	55                   	push   %ebp
	asm volatile("in %1,%0" : "=a"(data) : "d"(port));
80106dea:	ba fd 03 00 00       	mov    $0x3fd,%edx
80106def:	89 e5                	mov    %esp,%ebp
80106df1:	56                   	push   %esi
80106df2:	53                   	push   %ebx
80106df3:	ec                   	in     (%dx),%al
	for (i = 0; i < 128 && !(inb(COM1 + 5) & 0x20); i++)
80106df4:	a8 20                	test   $0x20,%al
80106df6:	75 29                	jne    80106e21 <uartputc+0x41>
80106df8:	bb 80 00 00 00       	mov    $0x80,%ebx
80106dfd:	be fd 03 00 00       	mov    $0x3fd,%esi
80106e02:	8d b6 00 00 00 00    	lea    0x0(%esi),%esi
		microdelay(10);
80106e08:	83 ec 0c             	sub    $0xc,%esp
80106e0b:	6a 0a                	push   $0xa
80106e0d:	e8 6e ca ff ff       	call   80103880 <microdelay>
	for (i = 0; i < 128 && !(inb(COM1 + 5) & 0x20); i++)
80106e12:	83 c4 10             	add    $0x10,%esp
80106e15:	83 eb 01             	sub    $0x1,%ebx
80106e18:	74 07                	je     80106e21 <uartputc+0x41>
80106e1a:	89 f2                	mov    %esi,%edx
80106e1c:	ec                   	in     (%dx),%al
80106e1d:	a8 20                	test   $0x20,%al
80106e1f:	74 e7                	je     80106e08 <uartputc+0x28>
	asm volatile("out %0,%1" : : "a"(data), "d"(port));
80106e21:	8b 45 08             	mov    0x8(%ebp),%eax
80106e24:	ba f8 03 00 00       	mov    $0x3f8,%edx
80106e29:	ee                   	out    %al,(%dx)
}
80106e2a:	8d 65 f8             	lea    -0x8(%ebp),%esp
80106e2d:	5b                   	pop    %ebx
80106e2e:	5e                   	pop    %esi
80106e2f:	5d                   	pop    %ebp
80106e30:	c3                   	ret
80106e31:	8d b4 26 00 00 00 00 	lea    0x0(%esi,%eiz,1),%esi
80106e38:	c3                   	ret
80106e39:	8d b4 26 00 00 00 00 	lea    0x0(%esi,%eiz,1),%esi

80106e40 <uartintr>:

void uartintr(void) { consoleintr(uartgetc); }
80106e40:	55                   	push   %ebp
80106e41:	89 e5                	mov    %esp,%ebp
80106e43:	83 ec 14             	sub    $0x14,%esp
80106e46:	68 c0 6c 10 80       	push   $0x80106cc0
80106e4b:	e8 c0 a4 ff ff       	call   80101310 <consoleintr>
80106e50:	83 c4 10             	add    $0x10,%esp
80106e53:	c9                   	leave
80106e54:	c3                   	ret
80106e55:	66 90                	xchg   %ax,%ax
80106e57:	66 90                	xchg   %ax,%ax
80106e59:	66 90                	xchg   %ax,%ax
80106e5b:	66 90                	xchg   %ax,%ax
80106e5d:	66 90                	xchg   %ax,%ax
80106e5f:	90                   	nop

80106e60 <deallocuvm.part.0>:

// Deallocate user pages to bring the process size from oldsz to
// newsz.  oldsz and newsz need not be page-aligned, nor does newsz
// need to be less than oldsz.  oldsz can be larger than the actual
// process size.  Returns the new process size.
int deallocuvm(pde_t *pgdir, uint oldsz, uint newsz) {
80106e60:	55                   	push   %ebp
80106e61:	89 e5                	mov    %esp,%ebp
80106e63:	57                   	push   %edi
80106e64:	56                   	push   %esi
80106e65:	53                   	push   %ebx
	uint a, pa;

	if (newsz >= oldsz)
		return oldsz;

	a = PGROUNDUP(newsz);
80106e66:	8d 99 ff 0f 00 00    	lea    0xfff(%ecx),%ebx
80106e6c:	81 e3 00 f0 ff ff    	and    $0xfffff000,%ebx
int deallocuvm(pde_t *pgdir, uint oldsz, uint newsz) {
80106e72:	83 ec 1c             	sub    $0x1c,%esp
	for (; a < oldsz; a += PGSIZE) {
80106e75:	39 d3                	cmp    %edx,%ebx
80106e77:	73 56                	jae    80106ecf <deallocuvm.part.0+0x6f>
80106e79:	89 4d e0             	mov    %ecx,-0x20(%ebp)
80106e7c:	89 c6                	mov    %eax,%esi
80106e7e:	89 d7                	mov    %edx,%edi
80106e80:	eb 12                	jmp    80106e94 <deallocuvm.part.0+0x34>
80106e82:	8d b6 00 00 00 00    	lea    0x0(%esi),%esi
		pte = walkpgdir(pgdir, (char *)a, 0);
		if (!pte)
			a = PGADDR(PDX(a) + 1, 0, 0) - PGSIZE;
80106e88:	83 c2 01             	add    $0x1,%edx
80106e8b:	89 d3                	mov    %edx,%ebx
80106e8d:	c1 e3 16             	shl    $0x16,%ebx
	for (; a < oldsz; a += PGSIZE) {
80106e90:	39 fb                	cmp    %edi,%ebx
80106e92:	73 38                	jae    80106ecc <deallocuvm.part.0+0x6c>
	pde = &pgdir[PDX(va)];
80106e94:	89 da                	mov    %ebx,%edx
80106e96:	c1 ea 16             	shr    $0x16,%edx
	if (*pde & PTE_P) {
80106e99:	8b 04 96             	mov    (%esi,%edx,4),%eax
80106e9c:	a8 01                	test   $0x1,%al
80106e9e:	74 e8                	je     80106e88 <deallocuvm.part.0+0x28>
	return &pgtab[PTX(va)];
80106ea0:	89 d9                	mov    %ebx,%ecx
		pgtab = (pte_t *)P2V(PTE_ADDR(*pde));
80106ea2:	25 00 f0 ff ff       	and    $0xfffff000,%eax
	return &pgtab[PTX(va)];
80106ea7:	c1 e9 0a             	shr    $0xa,%ecx
80106eaa:	81 e1 fc 0f 00 00    	and    $0xffc,%ecx
80106eb0:	8d 84 08 00 00 00 80 	lea    -0x80000000(%eax,%ecx,1),%eax
		if (!pte)
80106eb7:	85 c0                	test   %eax,%eax
80106eb9:	74 cd                	je     80106e88 <deallocuvm.part.0+0x28>
		else if ((*pte & PTE_P) != 0) {
80106ebb:	8b 10                	mov    (%eax),%edx
80106ebd:	f6 c2 01             	test   $0x1,%dl
80106ec0:	75 1e                	jne    80106ee0 <deallocuvm.part.0+0x80>
	for (; a < oldsz; a += PGSIZE) {
80106ec2:	81 c3 00 10 00 00    	add    $0x1000,%ebx
80106ec8:	39 fb                	cmp    %edi,%ebx
80106eca:	72 c8                	jb     80106e94 <deallocuvm.part.0+0x34>
80106ecc:	8b 4d e0             	mov    -0x20(%ebp),%ecx
			kfree(v);
			*pte = 0;
		}
	}
	return newsz;
}
80106ecf:	8d 65 f4             	lea    -0xc(%ebp),%esp
80106ed2:	89 c8                	mov    %ecx,%eax
80106ed4:	5b                   	pop    %ebx
80106ed5:	5e                   	pop    %esi
80106ed6:	5f                   	pop    %edi
80106ed7:	5d                   	pop    %ebp
80106ed8:	c3                   	ret
80106ed9:	8d b4 26 00 00 00 00 	lea    0x0(%esi,%eiz,1),%esi
			if (pa == 0)
80106ee0:	81 e2 00 f0 ff ff    	and    $0xfffff000,%edx
80106ee6:	74 26                	je     80106f0e <deallocuvm.part.0+0xae>
			kfree(v);
80106ee8:	83 ec 0c             	sub    $0xc,%esp
			char *v = P2V(pa);
80106eeb:	81 c2 00 00 00 80    	add    $0x80000000,%edx
80106ef1:	89 45 e4             	mov    %eax,-0x1c(%ebp)
	for (; a < oldsz; a += PGSIZE) {
80106ef4:	81 c3 00 10 00 00    	add    $0x1000,%ebx
			kfree(v);
80106efa:	52                   	push   %edx
80106efb:	e8 b0 c4 ff ff       	call   801033b0 <kfree>
			*pte = 0;
80106f00:	8b 45 e4             	mov    -0x1c(%ebp),%eax
	for (; a < oldsz; a += PGSIZE) {
80106f03:	83 c4 10             	add    $0x10,%esp
			*pte = 0;
80106f06:	c7 00 00 00 00 00    	movl   $0x0,(%eax)
80106f0c:	eb 82                	jmp    80106e90 <deallocuvm.part.0+0x30>
				panic("kfree");
80106f0e:	83 ec 0c             	sub    $0xc,%esp
80106f11:	68 e8 b3 10 80       	push   $0x8010b3e8
80106f16:	e8 d5 9e ff ff       	call   80100df0 <panic>
80106f1b:	2e 8d 74 26 00       	lea    %cs:0x0(%esi,%eiz,1),%esi

80106f20 <mappages>:
static int mappages(pde_t *pgdir, void *va, uint size, uint pa, int perm) {
80106f20:	55                   	push   %ebp
80106f21:	89 e5                	mov    %esp,%ebp
80106f23:	57                   	push   %edi
80106f24:	56                   	push   %esi
80106f25:	53                   	push   %ebx
	a = (char *)PGROUNDDOWN((uint)va);
80106f26:	89 d3                	mov    %edx,%ebx
80106f28:	81 e3 00 f0 ff ff    	and    $0xfffff000,%ebx
static int mappages(pde_t *pgdir, void *va, uint size, uint pa, int perm) {
80106f2e:	83 ec 1c             	sub    $0x1c,%esp
80106f31:	89 45 e0             	mov    %eax,-0x20(%ebp)
	last = (char *)PGROUNDDOWN(((uint)va) + size - 1);
80106f34:	8d 44 0a ff          	lea    -0x1(%edx,%ecx,1),%eax
80106f38:	25 00 f0 ff ff       	and    $0xfffff000,%eax
80106f3d:	89 45 dc             	mov    %eax,-0x24(%ebp)
80106f40:	8b 45 08             	mov    0x8(%ebp),%eax
80106f43:	29 d8                	sub    %ebx,%eax
80106f45:	89 45 e4             	mov    %eax,-0x1c(%ebp)
80106f48:	eb 3f                	jmp    80106f89 <mappages+0x69>
80106f4a:	8d b6 00 00 00 00    	lea    0x0(%esi),%esi
	return &pgtab[PTX(va)];
80106f50:	89 da                	mov    %ebx,%edx
		pgtab = (pte_t *)P2V(PTE_ADDR(*pde));
80106f52:	25 00 f0 ff ff       	and    $0xfffff000,%eax
	return &pgtab[PTX(va)];
80106f57:	c1 ea 0a             	shr    $0xa,%edx
80106f5a:	81 e2 fc 0f 00 00    	and    $0xffc,%edx
80106f60:	8d 84 10 00 00 00 80 	lea    -0x80000000(%eax,%edx,1),%eax
		if ((pte = walkpgdir(pgdir, a, 1)) == 0)
80106f67:	85 c0                	test   %eax,%eax
80106f69:	74 75                	je     80106fe0 <mappages+0xc0>
		if (*pte & PTE_P)
80106f6b:	f6 00 01             	testb  $0x1,(%eax)
80106f6e:	0f 85 86 00 00 00    	jne    80106ffa <mappages+0xda>
		*pte = pa | perm | PTE_P;
80106f74:	0b 75 0c             	or     0xc(%ebp),%esi
80106f77:	83 ce 01             	or     $0x1,%esi
80106f7a:	89 30                	mov    %esi,(%eax)
		if (a == last)
80106f7c:	8b 45 dc             	mov    -0x24(%ebp),%eax
80106f7f:	39 c3                	cmp    %eax,%ebx
80106f81:	74 6d                	je     80106ff0 <mappages+0xd0>
		a += PGSIZE;
80106f83:	81 c3 00 10 00 00    	add    $0x1000,%ebx
	for (;;) {
80106f89:	8b 45 e4             	mov    -0x1c(%ebp),%eax
	pde = &pgdir[PDX(va)];
80106f8c:	8b 4d e0             	mov    -0x20(%ebp),%ecx
80106f8f:	8d 34 03             	lea    (%ebx,%eax,1),%esi
80106f92:	89 d8                	mov    %ebx,%eax
80106f94:	c1 e8 16             	shr    $0x16,%eax
80106f97:	8d 3c 81             	lea    (%ecx,%eax,4),%edi
	if (*pde & PTE_P) {
80106f9a:	8b 07                	mov    (%edi),%eax
80106f9c:	a8 01                	test   $0x1,%al
80106f9e:	75 b0                	jne    80106f50 <mappages+0x30>
		if (!alloc || (pgtab = (pte_t *)kalloc()) == 0)
80106fa0:	e8 cb c5 ff ff       	call   80103570 <kalloc>
80106fa5:	85 c0                	test   %eax,%eax
80106fa7:	74 37                	je     80106fe0 <mappages+0xc0>
		memset(pgtab, 0, PGSIZE);
80106fa9:	83 ec 04             	sub    $0x4,%esp
80106fac:	68 00 10 00 00       	push   $0x1000
80106fb1:	6a 00                	push   $0x0
80106fb3:	50                   	push   %eax
80106fb4:	89 45 d8             	mov    %eax,-0x28(%ebp)
80106fb7:	e8 b4 e6 ff ff       	call   80105670 <memset>
		*pde = V2P(pgtab) | PTE_P | PTE_W | PTE_U;
80106fbc:	8b 55 d8             	mov    -0x28(%ebp),%edx
	return &pgtab[PTX(va)];
80106fbf:	83 c4 10             	add    $0x10,%esp
		*pde = V2P(pgtab) | PTE_P | PTE_W | PTE_U;
80106fc2:	8d 82 00 00 00 80    	lea    -0x80000000(%edx),%eax
80106fc8:	83 c8 07             	or     $0x7,%eax
80106fcb:	89 07                	mov    %eax,(%edi)
	return &pgtab[PTX(va)];
80106fcd:	89 d8                	mov    %ebx,%eax
80106fcf:	c1 e8 0a             	shr    $0xa,%eax
80106fd2:	25 fc 0f 00 00       	and    $0xffc,%eax
80106fd7:	01 d0                	add    %edx,%eax
80106fd9:	eb 90                	jmp    80106f6b <mappages+0x4b>
80106fdb:	2e 8d 74 26 00       	lea    %cs:0x0(%esi,%eiz,1),%esi
}
80106fe0:	8d 65 f4             	lea    -0xc(%ebp),%esp
			return -1;
80106fe3:	b8 ff ff ff ff       	mov    $0xffffffff,%eax
}
80106fe8:	5b                   	pop    %ebx
80106fe9:	5e                   	pop    %esi
80106fea:	5f                   	pop    %edi
80106feb:	5d                   	pop    %ebp
80106fec:	c3                   	ret
80106fed:	8d 76 00             	lea    0x0(%esi),%esi
80106ff0:	8d 65 f4             	lea    -0xc(%ebp),%esp
	return 0;
80106ff3:	31 c0                	xor    %eax,%eax
}
80106ff5:	5b                   	pop    %ebx
80106ff6:	5e                   	pop    %esi
80106ff7:	5f                   	pop    %edi
80106ff8:	5d                   	pop    %ebp
80106ff9:	c3                   	ret
			panic("remap");
80106ffa:	83 ec 0c             	sub    $0xc,%esp
80106ffd:	68 1c b6 10 80       	push   $0x8010b61c
80107002:	e8 e9 9d ff ff       	call   80100df0 <panic>
80107007:	2e 8d b4 26 00 00 00 	lea    %cs:0x0(%esi,%eiz,1),%esi
8010700e:	00 
8010700f:	90                   	nop

80107010 <seginit>:
void seginit(void) {
80107010:	55                   	push   %ebp
80107011:	89 e5                	mov    %esp,%ebp
80107013:	83 ec 18             	sub    $0x18,%esp
	c = &cpus[cpuid()];
80107016:	e8 b5 d8 ff ff       	call   801048d0 <cpuid>
	pd[0] = size - 1;
8010701b:	ba 2f 00 00 00       	mov    $0x2f,%edx
	c->gdt[SEG_KCODE] = SEG(STA_X | STA_R, 0, 0xffffffff, 0);
80107020:	69 c0 b0 00 00 00    	imul   $0xb0,%eax,%eax
80107026:	66 89 55 f2          	mov    %dx,-0xe(%ebp)
8010702a:	c7 80 18 40 13 80 ff 	movl   $0xffff,-0x7fecbfe8(%eax)
80107031:	ff 00 00 
80107034:	c7 80 1c 40 13 80 00 	movl   $0xcf9a00,-0x7fecbfe4(%eax)
8010703b:	9a cf 00 
	c->gdt[SEG_KDATA] = SEG(STA_W, 0, 0xffffffff, 0);
8010703e:	c7 80 20 40 13 80 ff 	movl   $0xffff,-0x7fecbfe0(%eax)
80107045:	ff 00 00 
80107048:	c7 80 24 40 13 80 00 	movl   $0xcf9200,-0x7fecbfdc(%eax)
8010704f:	92 cf 00 
	c->gdt[SEG_UCODE] = SEG(STA_X | STA_R, 0, 0xffffffff, DPL_USER);
80107052:	c7 80 28 40 13 80 ff 	movl   $0xffff,-0x7fecbfd8(%eax)
80107059:	ff 00 00 
8010705c:	c7 80 2c 40 13 80 00 	movl   $0xcffa00,-0x7fecbfd4(%eax)
80107063:	fa cf 00 
	c->gdt[SEG_UDATA] = SEG(STA_W, 0, 0xffffffff, DPL_USER);
80107066:	c7 80 30 40 13 80 ff 	movl   $0xffff,-0x7fecbfd0(%eax)
8010706d:	ff 00 00 
80107070:	c7 80 34 40 13 80 00 	movl   $0xcff200,-0x7fecbfcc(%eax)
80107077:	f2 cf 00 
	lgdt(c->gdt, sizeof(c->gdt));
8010707a:	05 10 40 13 80       	add    $0x80134010,%eax
	pd[1] = (uint)p;
8010707f:	66 89 45 f4          	mov    %ax,-0xc(%ebp)
	pd[2] = (uint)p >> 16;
80107083:	c1 e8 10             	shr    $0x10,%eax
80107086:	66 89 45 f6          	mov    %ax,-0xa(%ebp)
	asm volatile("lgdt (%0)" : : "r"(pd));
8010708a:	8d 45 f2             	lea    -0xe(%ebp),%eax
8010708d:	0f 01 10             	lgdtl  (%eax)
}
80107090:	c9                   	leave
80107091:	c3                   	ret
80107092:	2e 8d b4 26 00 00 00 	lea    %cs:0x0(%esi,%eiz,1),%esi
80107099:	00 
8010709a:	8d b6 00 00 00 00    	lea    0x0(%esi),%esi

801070a0 <switchkvm>:
	lcr3(V2P(kpgdir)); // switch to the kernel page table
801070a0:	a1 c4 9c 13 80       	mov    0x80139cc4,%eax
801070a5:	05 00 00 00 80       	add    $0x80000000,%eax
	return val;
}

static inline void lcr3(uint val) {
	asm volatile("movl %0,%%cr3" : : "r"(val));
801070aa:	0f 22 d8             	mov    %eax,%cr3
}
801070ad:	c3                   	ret
801070ae:	66 90                	xchg   %ax,%ax

801070b0 <switchuvm>:
void switchuvm(struct proc *p) {
801070b0:	55                   	push   %ebp
801070b1:	89 e5                	mov    %esp,%ebp
801070b3:	57                   	push   %edi
801070b4:	56                   	push   %esi
801070b5:	53                   	push   %ebx
801070b6:	83 ec 1c             	sub    $0x1c,%esp
801070b9:	8b 75 08             	mov    0x8(%ebp),%esi
	if (p == 0)
801070bc:	85 f6                	test   %esi,%esi
801070be:	0f 84 cb 00 00 00    	je     8010718f <switchuvm+0xdf>
	if (p->kstack == 0)
801070c4:	8b 46 08             	mov    0x8(%esi),%eax
801070c7:	85 c0                	test   %eax,%eax
801070c9:	0f 84 da 00 00 00    	je     801071a9 <switchuvm+0xf9>
	if (p->pgdir == 0)
801070cf:	8b 46 04             	mov    0x4(%esi),%eax
801070d2:	85 c0                	test   %eax,%eax
801070d4:	0f 84 c2 00 00 00    	je     8010719c <switchuvm+0xec>
	pushcli();
801070da:	e8 41 e3 ff ff       	call   80105420 <pushcli>
	mycpu()->gdt[SEG_TSS] =
801070df:	e8 8c d7 ff ff       	call   80104870 <mycpu>
801070e4:	89 c3                	mov    %eax,%ebx
		SEG16(STS_T32A, &mycpu()->ts, sizeof(mycpu()->ts) - 1, 0);
801070e6:	e8 85 d7 ff ff       	call   80104870 <mycpu>
801070eb:	89 c7                	mov    %eax,%edi
801070ed:	e8 7e d7 ff ff       	call   80104870 <mycpu>
801070f2:	83 c7 08             	add    $0x8,%edi
801070f5:	89 45 e4             	mov    %eax,-0x1c(%ebp)
801070f8:	e8 73 d7 ff ff       	call   80104870 <mycpu>
801070fd:	8b 4d e4             	mov    -0x1c(%ebp),%ecx
	mycpu()->gdt[SEG_TSS] =
80107100:	ba 67 00 00 00       	mov    $0x67,%edx
80107105:	66 89 bb 9a 00 00 00 	mov    %di,0x9a(%ebx)
		SEG16(STS_T32A, &mycpu()->ts, sizeof(mycpu()->ts) - 1, 0);
8010710c:	83 c0 08             	add    $0x8,%eax
	mycpu()->gdt[SEG_TSS] =
8010710f:	66 89 93 98 00 00 00 	mov    %dx,0x98(%ebx)
	mycpu()->ts.iomb = (ushort)0xFFFF;
80107116:	bf ff ff ff ff       	mov    $0xffffffff,%edi
		SEG16(STS_T32A, &mycpu()->ts, sizeof(mycpu()->ts) - 1, 0);
8010711b:	83 c1 08             	add    $0x8,%ecx
8010711e:	c1 e8 18             	shr    $0x18,%eax
80107121:	c1 e9 10             	shr    $0x10,%ecx
	mycpu()->gdt[SEG_TSS] =
80107124:	88 83 9f 00 00 00    	mov    %al,0x9f(%ebx)
8010712a:	88 8b 9c 00 00 00    	mov    %cl,0x9c(%ebx)
80107130:	b9 99 40 00 00       	mov    $0x4099,%ecx
80107135:	66 89 8b 9d 00 00 00 	mov    %cx,0x9d(%ebx)
	mycpu()->ts.ss0 = SEG_KDATA << 3;
8010713c:	bb 10 00 00 00       	mov    $0x10,%ebx
	mycpu()->gdt[SEG_TSS].s = 0;
80107141:	e8 2a d7 ff ff       	call   80104870 <mycpu>
80107146:	80 a0 9d 00 00 00 ef 	andb   $0xef,0x9d(%eax)
	mycpu()->ts.ss0 = SEG_KDATA << 3;
8010714d:	e8 1e d7 ff ff       	call   80104870 <mycpu>
80107152:	66 89 58 10          	mov    %bx,0x10(%eax)
	mycpu()->ts.esp0 = (uint)p->kstack + KSTACKSIZE;
80107156:	8b 5e 08             	mov    0x8(%esi),%ebx
80107159:	81 c3 00 10 00 00    	add    $0x1000,%ebx
8010715f:	e8 0c d7 ff ff       	call   80104870 <mycpu>
80107164:	89 58 0c             	mov    %ebx,0xc(%eax)
	mycpu()->ts.iomb = (ushort)0xFFFF;
80107167:	e8 04 d7 ff ff       	call   80104870 <mycpu>
8010716c:	66 89 78 6e          	mov    %di,0x6e(%eax)
static inline void ltr(ushort sel) { asm volatile("ltr %0" : : "r"(sel)); }
80107170:	b8 28 00 00 00       	mov    $0x28,%eax
80107175:	0f 00 d8             	ltr    %eax
	lcr3(V2P(p->pgdir)); // switch to process's address space
80107178:	8b 46 04             	mov    0x4(%esi),%eax
8010717b:	05 00 00 00 80       	add    $0x80000000,%eax
	asm volatile("movl %0,%%cr3" : : "r"(val));
80107180:	0f 22 d8             	mov    %eax,%cr3
}
80107183:	8d 65 f4             	lea    -0xc(%ebp),%esp
80107186:	5b                   	pop    %ebx
80107187:	5e                   	pop    %esi
80107188:	5f                   	pop    %edi
80107189:	5d                   	pop    %ebp
	popcli();
8010718a:	e9 e1 e2 ff ff       	jmp    80105470 <popcli>
		panic("switchuvm: no process");
8010718f:	83 ec 0c             	sub    $0xc,%esp
80107192:	68 22 b6 10 80       	push   $0x8010b622
80107197:	e8 54 9c ff ff       	call   80100df0 <panic>
		panic("switchuvm: no pgdir");
8010719c:	83 ec 0c             	sub    $0xc,%esp
8010719f:	68 4d b6 10 80       	push   $0x8010b64d
801071a4:	e8 47 9c ff ff       	call   80100df0 <panic>
		panic("switchuvm: no kstack");
801071a9:	83 ec 0c             	sub    $0xc,%esp
801071ac:	68 38 b6 10 80       	push   $0x8010b638
801071b1:	e8 3a 9c ff ff       	call   80100df0 <panic>
801071b6:	2e 8d b4 26 00 00 00 	lea    %cs:0x0(%esi,%eiz,1),%esi
801071bd:	00 
801071be:	66 90                	xchg   %ax,%ax

801071c0 <inituvm>:
void inituvm(pde_t *pgdir, char *init, uint sz) {
801071c0:	55                   	push   %ebp
801071c1:	89 e5                	mov    %esp,%ebp
801071c3:	57                   	push   %edi
801071c4:	56                   	push   %esi
801071c5:	53                   	push   %ebx
801071c6:	83 ec 1c             	sub    $0x1c,%esp
801071c9:	8b 45 08             	mov    0x8(%ebp),%eax
801071cc:	8b 75 10             	mov    0x10(%ebp),%esi
801071cf:	8b 7d 0c             	mov    0xc(%ebp),%edi
801071d2:	89 45 e4             	mov    %eax,-0x1c(%ebp)
	if (sz >= PGSIZE)
801071d5:	81 fe ff 0f 00 00    	cmp    $0xfff,%esi
801071db:	77 49                	ja     80107226 <inituvm+0x66>
	mem = kalloc();
801071dd:	e8 8e c3 ff ff       	call   80103570 <kalloc>
	memset(mem, 0, PGSIZE);
801071e2:	83 ec 04             	sub    $0x4,%esp
801071e5:	68 00 10 00 00       	push   $0x1000
	mem = kalloc();
801071ea:	89 c3                	mov    %eax,%ebx
	memset(mem, 0, PGSIZE);
801071ec:	6a 00                	push   $0x0
801071ee:	50                   	push   %eax
801071ef:	e8 7c e4 ff ff       	call   80105670 <memset>
	mappages(pgdir, 0, PGSIZE, V2P(mem), PTE_W | PTE_U);
801071f4:	58                   	pop    %eax
801071f5:	8d 83 00 00 00 80    	lea    -0x80000000(%ebx),%eax
801071fb:	5a                   	pop    %edx
801071fc:	6a 06                	push   $0x6
801071fe:	b9 00 10 00 00       	mov    $0x1000,%ecx
80107203:	31 d2                	xor    %edx,%edx
80107205:	50                   	push   %eax
80107206:	8b 45 e4             	mov    -0x1c(%ebp),%eax
80107209:	e8 12 fd ff ff       	call   80106f20 <mappages>
	memmove(mem, init, sz);
8010720e:	83 c4 10             	add    $0x10,%esp
80107211:	89 75 10             	mov    %esi,0x10(%ebp)
80107214:	89 7d 0c             	mov    %edi,0xc(%ebp)
80107217:	89 5d 08             	mov    %ebx,0x8(%ebp)
}
8010721a:	8d 65 f4             	lea    -0xc(%ebp),%esp
8010721d:	5b                   	pop    %ebx
8010721e:	5e                   	pop    %esi
8010721f:	5f                   	pop    %edi
80107220:	5d                   	pop    %ebp
	memmove(mem, init, sz);
80107221:	e9 da e4 ff ff       	jmp    80105700 <memmove>
		panic("inituvm: more than a page");
80107226:	83 ec 0c             	sub    $0xc,%esp
80107229:	68 61 b6 10 80       	push   $0x8010b661
8010722e:	e8 bd 9b ff ff       	call   80100df0 <panic>
80107233:	2e 8d b4 26 00 00 00 	lea    %cs:0x0(%esi,%eiz,1),%esi
8010723a:	00 
8010723b:	2e 8d 74 26 00       	lea    %cs:0x0(%esi,%eiz,1),%esi

80107240 <loaduvm>:
int loaduvm(pde_t *pgdir, char *addr, struct inode *ip, uint offset, uint sz) {
80107240:	55                   	push   %ebp
80107241:	89 e5                	mov    %esp,%ebp
80107243:	57                   	push   %edi
80107244:	56                   	push   %esi
80107245:	53                   	push   %ebx
80107246:	83 ec 0c             	sub    $0xc,%esp
	if ((uint)addr % PGSIZE != 0)
80107249:	8b 75 0c             	mov    0xc(%ebp),%esi
int loaduvm(pde_t *pgdir, char *addr, struct inode *ip, uint offset, uint sz) {
8010724c:	8b 7d 18             	mov    0x18(%ebp),%edi
	if ((uint)addr % PGSIZE != 0)
8010724f:	81 e6 ff 0f 00 00    	and    $0xfff,%esi
80107255:	0f 85 a2 00 00 00    	jne    801072fd <loaduvm+0xbd>
	for (i = 0; i < sz; i += PGSIZE) {
8010725b:	85 ff                	test   %edi,%edi
8010725d:	74 7d                	je     801072dc <loaduvm+0x9c>
8010725f:	90                   	nop
	pde = &pgdir[PDX(va)];
80107260:	8b 45 0c             	mov    0xc(%ebp),%eax
	if (*pde & PTE_P) {
80107263:	8b 55 08             	mov    0x8(%ebp),%edx
80107266:	01 f0                	add    %esi,%eax
	pde = &pgdir[PDX(va)];
80107268:	89 c1                	mov    %eax,%ecx
8010726a:	c1 e9 16             	shr    $0x16,%ecx
	if (*pde & PTE_P) {
8010726d:	8b 0c 8a             	mov    (%edx,%ecx,4),%ecx
80107270:	f6 c1 01             	test   $0x1,%cl
80107273:	75 13                	jne    80107288 <loaduvm+0x48>
			panic("loaduvm: address should exist");
80107275:	83 ec 0c             	sub    $0xc,%esp
80107278:	68 7b b6 10 80       	push   $0x8010b67b
8010727d:	e8 6e 9b ff ff       	call   80100df0 <panic>
80107282:	8d b6 00 00 00 00    	lea    0x0(%esi),%esi
	return &pgtab[PTX(va)];
80107288:	c1 e8 0a             	shr    $0xa,%eax
		pgtab = (pte_t *)P2V(PTE_ADDR(*pde));
8010728b:	81 e1 00 f0 ff ff    	and    $0xfffff000,%ecx
	return &pgtab[PTX(va)];
80107291:	25 fc 0f 00 00       	and    $0xffc,%eax
80107296:	8d 8c 01 00 00 00 80 	lea    -0x80000000(%ecx,%eax,1),%ecx
		if ((pte = walkpgdir(pgdir, addr + i, 0)) == 0)
8010729d:	85 c9                	test   %ecx,%ecx
8010729f:	74 d4                	je     80107275 <loaduvm+0x35>
		if (sz - i < PGSIZE)
801072a1:	89 fb                	mov    %edi,%ebx
801072a3:	b8 00 10 00 00       	mov    $0x1000,%eax
801072a8:	29 f3                	sub    %esi,%ebx
801072aa:	39 c3                	cmp    %eax,%ebx
801072ac:	0f 47 d8             	cmova  %eax,%ebx
		if (readi(ip, P2V(pa), offset + i, n) != n)
801072af:	53                   	push   %ebx
801072b0:	8b 45 14             	mov    0x14(%ebp),%eax
801072b3:	01 f0                	add    %esi,%eax
801072b5:	50                   	push   %eax
		pa = PTE_ADDR(*pte);
801072b6:	8b 01                	mov    (%ecx),%eax
801072b8:	25 00 f0 ff ff       	and    $0xfffff000,%eax
		if (readi(ip, P2V(pa), offset + i, n) != n)
801072bd:	05 00 00 00 80       	add    $0x80000000,%eax
801072c2:	50                   	push   %eax
801072c3:	ff 75 10             	push   0x10(%ebp)
801072c6:	e8 b5 b5 ff ff       	call   80102880 <readi>
801072cb:	83 c4 10             	add    $0x10,%esp
801072ce:	39 d8                	cmp    %ebx,%eax
801072d0:	75 1e                	jne    801072f0 <loaduvm+0xb0>
	for (i = 0; i < sz; i += PGSIZE) {
801072d2:	81 c6 00 10 00 00    	add    $0x1000,%esi
801072d8:	39 fe                	cmp    %edi,%esi
801072da:	72 84                	jb     80107260 <loaduvm+0x20>
}
801072dc:	8d 65 f4             	lea    -0xc(%ebp),%esp
	return 0;
801072df:	31 c0                	xor    %eax,%eax
}
801072e1:	5b                   	pop    %ebx
801072e2:	5e                   	pop    %esi
801072e3:	5f                   	pop    %edi
801072e4:	5d                   	pop    %ebp
801072e5:	c3                   	ret
801072e6:	2e 8d b4 26 00 00 00 	lea    %cs:0x0(%esi,%eiz,1),%esi
801072ed:	00 
801072ee:	66 90                	xchg   %ax,%ax
801072f0:	8d 65 f4             	lea    -0xc(%ebp),%esp
			return -1;
801072f3:	b8 ff ff ff ff       	mov    $0xffffffff,%eax
}
801072f8:	5b                   	pop    %ebx
801072f9:	5e                   	pop    %esi
801072fa:	5f                   	pop    %edi
801072fb:	5d                   	pop    %ebp
801072fc:	c3                   	ret
		panic("loaduvm: addr must be page aligned");
801072fd:	83 ec 0c             	sub    $0xc,%esp
80107300:	68 84 ba 10 80       	push   $0x8010ba84
80107305:	e8 e6 9a ff ff       	call   80100df0 <panic>
8010730a:	8d b6 00 00 00 00    	lea    0x0(%esi),%esi

80107310 <allocuvm>:
int allocuvm(pde_t *pgdir, uint oldsz, uint newsz) {
80107310:	55                   	push   %ebp
80107311:	89 e5                	mov    %esp,%ebp
80107313:	57                   	push   %edi
80107314:	56                   	push   %esi
80107315:	53                   	push   %ebx
80107316:	83 ec 1c             	sub    $0x1c,%esp
80107319:	8b 75 10             	mov    0x10(%ebp),%esi
	if (newsz >= KERNBASE)
8010731c:	85 f6                	test   %esi,%esi
8010731e:	0f 88 98 00 00 00    	js     801073bc <allocuvm+0xac>
80107324:	89 f2                	mov    %esi,%edx
	if (newsz < oldsz)
80107326:	3b 75 0c             	cmp    0xc(%ebp),%esi
80107329:	0f 82 a1 00 00 00    	jb     801073d0 <allocuvm+0xc0>
	a = PGROUNDUP(oldsz);
8010732f:	8b 45 0c             	mov    0xc(%ebp),%eax
80107332:	05 ff 0f 00 00       	add    $0xfff,%eax
80107337:	25 00 f0 ff ff       	and    $0xfffff000,%eax
8010733c:	89 c7                	mov    %eax,%edi
	for (; a < newsz; a += PGSIZE) {
8010733e:	39 f0                	cmp    %esi,%eax
80107340:	0f 83 8d 00 00 00    	jae    801073d3 <allocuvm+0xc3>
80107346:	89 75 e4             	mov    %esi,-0x1c(%ebp)
80107349:	eb 44                	jmp    8010738f <allocuvm+0x7f>
8010734b:	2e 8d 74 26 00       	lea    %cs:0x0(%esi,%eiz,1),%esi
		memset(mem, 0, PGSIZE);
80107350:	83 ec 04             	sub    $0x4,%esp
80107353:	68 00 10 00 00       	push   $0x1000
80107358:	6a 00                	push   $0x0
8010735a:	50                   	push   %eax
8010735b:	e8 10 e3 ff ff       	call   80105670 <memset>
		if (mappages(pgdir, (char *)a, PGSIZE, V2P(mem),
80107360:	58                   	pop    %eax
80107361:	8d 83 00 00 00 80    	lea    -0x80000000(%ebx),%eax
80107367:	5a                   	pop    %edx
80107368:	6a 06                	push   $0x6
8010736a:	b9 00 10 00 00       	mov    $0x1000,%ecx
8010736f:	89 fa                	mov    %edi,%edx
80107371:	50                   	push   %eax
80107372:	8b 45 08             	mov    0x8(%ebp),%eax
80107375:	e8 a6 fb ff ff       	call   80106f20 <mappages>
8010737a:	83 c4 10             	add    $0x10,%esp
8010737d:	85 c0                	test   %eax,%eax
8010737f:	78 5f                	js     801073e0 <allocuvm+0xd0>
	for (; a < newsz; a += PGSIZE) {
80107381:	81 c7 00 10 00 00    	add    $0x1000,%edi
80107387:	39 f7                	cmp    %esi,%edi
80107389:	0f 83 89 00 00 00    	jae    80107418 <allocuvm+0x108>
		mem = kalloc();
8010738f:	e8 dc c1 ff ff       	call   80103570 <kalloc>
80107394:	89 c3                	mov    %eax,%ebx
		if (mem == 0) {
80107396:	85 c0                	test   %eax,%eax
80107398:	75 b6                	jne    80107350 <allocuvm+0x40>
			cprintf("allocuvm out of memory\n");
8010739a:	83 ec 0c             	sub    $0xc,%esp
8010739d:	68 99 b6 10 80       	push   $0x8010b699
801073a2:	e8 79 9d ff ff       	call   80101120 <cprintf>
	if (newsz >= oldsz)
801073a7:	83 c4 10             	add    $0x10,%esp
801073aa:	3b 75 0c             	cmp    0xc(%ebp),%esi
801073ad:	74 0d                	je     801073bc <allocuvm+0xac>
801073af:	8b 4d 0c             	mov    0xc(%ebp),%ecx
801073b2:	8b 45 08             	mov    0x8(%ebp),%eax
801073b5:	89 f2                	mov    %esi,%edx
801073b7:	e8 a4 fa ff ff       	call   80106e60 <deallocuvm.part.0>
		return 0;
801073bc:	31 d2                	xor    %edx,%edx
}
801073be:	8d 65 f4             	lea    -0xc(%ebp),%esp
801073c1:	89 d0                	mov    %edx,%eax
801073c3:	5b                   	pop    %ebx
801073c4:	5e                   	pop    %esi
801073c5:	5f                   	pop    %edi
801073c6:	5d                   	pop    %ebp
801073c7:	c3                   	ret
801073c8:	2e 8d b4 26 00 00 00 	lea    %cs:0x0(%esi,%eiz,1),%esi
801073cf:	00 
		return oldsz;
801073d0:	8b 55 0c             	mov    0xc(%ebp),%edx
}
801073d3:	8d 65 f4             	lea    -0xc(%ebp),%esp
801073d6:	89 d0                	mov    %edx,%eax
801073d8:	5b                   	pop    %ebx
801073d9:	5e                   	pop    %esi
801073da:	5f                   	pop    %edi
801073db:	5d                   	pop    %ebp
801073dc:	c3                   	ret
801073dd:	8d 76 00             	lea    0x0(%esi),%esi
			cprintf("allocuvm out of memory (2)\n");
801073e0:	83 ec 0c             	sub    $0xc,%esp
801073e3:	68 b1 b6 10 80       	push   $0x8010b6b1
801073e8:	e8 33 9d ff ff       	call   80101120 <cprintf>
	if (newsz >= oldsz)
801073ed:	83 c4 10             	add    $0x10,%esp
801073f0:	3b 75 0c             	cmp    0xc(%ebp),%esi
801073f3:	74 0d                	je     80107402 <allocuvm+0xf2>
801073f5:	8b 4d 0c             	mov    0xc(%ebp),%ecx
801073f8:	8b 45 08             	mov    0x8(%ebp),%eax
801073fb:	89 f2                	mov    %esi,%edx
801073fd:	e8 5e fa ff ff       	call   80106e60 <deallocuvm.part.0>
			kfree(mem);
80107402:	83 ec 0c             	sub    $0xc,%esp
80107405:	53                   	push   %ebx
80107406:	e8 a5 bf ff ff       	call   801033b0 <kfree>
			return 0;
8010740b:	83 c4 10             	add    $0x10,%esp
		return 0;
8010740e:	31 d2                	xor    %edx,%edx
80107410:	eb ac                	jmp    801073be <allocuvm+0xae>
80107412:	8d b6 00 00 00 00    	lea    0x0(%esi),%esi
80107418:	8b 55 e4             	mov    -0x1c(%ebp),%edx
}
8010741b:	8d 65 f4             	lea    -0xc(%ebp),%esp
8010741e:	5b                   	pop    %ebx
8010741f:	5e                   	pop    %esi
80107420:	89 d0                	mov    %edx,%eax
80107422:	5f                   	pop    %edi
80107423:	5d                   	pop    %ebp
80107424:	c3                   	ret
80107425:	2e 8d b4 26 00 00 00 	lea    %cs:0x0(%esi,%eiz,1),%esi
8010742c:	00 
8010742d:	8d 76 00             	lea    0x0(%esi),%esi

80107430 <deallocuvm>:
int deallocuvm(pde_t *pgdir, uint oldsz, uint newsz) {
80107430:	55                   	push   %ebp
80107431:	89 e5                	mov    %esp,%ebp
80107433:	8b 55 0c             	mov    0xc(%ebp),%edx
80107436:	8b 4d 10             	mov    0x10(%ebp),%ecx
80107439:	8b 45 08             	mov    0x8(%ebp),%eax
	if (newsz >= oldsz)
8010743c:	39 d1                	cmp    %edx,%ecx
8010743e:	73 10                	jae    80107450 <deallocuvm+0x20>
}
80107440:	5d                   	pop    %ebp
80107441:	e9 1a fa ff ff       	jmp    80106e60 <deallocuvm.part.0>
80107446:	2e 8d b4 26 00 00 00 	lea    %cs:0x0(%esi,%eiz,1),%esi
8010744d:	00 
8010744e:	66 90                	xchg   %ax,%ax
80107450:	89 d0                	mov    %edx,%eax
80107452:	5d                   	pop    %ebp
80107453:	c3                   	ret
80107454:	2e 8d b4 26 00 00 00 	lea    %cs:0x0(%esi,%eiz,1),%esi
8010745b:	00 
8010745c:	8d 74 26 00          	lea    0x0(%esi,%eiz,1),%esi

80107460 <freevm>:

// Free a page table and all the physical memory pages
// in the user part.
void freevm(pde_t *pgdir) {
80107460:	55                   	push   %ebp
80107461:	89 e5                	mov    %esp,%ebp
80107463:	57                   	push   %edi
80107464:	56                   	push   %esi
80107465:	53                   	push   %ebx
80107466:	83 ec 0c             	sub    $0xc,%esp
80107469:	8b 75 08             	mov    0x8(%ebp),%esi
	uint i;

	if (pgdir == 0)
8010746c:	85 f6                	test   %esi,%esi
8010746e:	74 59                	je     801074c9 <freevm+0x69>
	if (newsz >= oldsz)
80107470:	31 c9                	xor    %ecx,%ecx
80107472:	ba 00 00 00 80       	mov    $0x80000000,%edx
80107477:	89 f0                	mov    %esi,%eax
80107479:	89 f3                	mov    %esi,%ebx
8010747b:	e8 e0 f9 ff ff       	call   80106e60 <deallocuvm.part.0>
		panic("freevm: no pgdir");
	deallocuvm(pgdir, KERNBASE, 0);
	for (i = 0; i < NPDENTRIES; i++) {
80107480:	8d be 00 10 00 00    	lea    0x1000(%esi),%edi
80107486:	eb 0f                	jmp    80107497 <freevm+0x37>
80107488:	2e 8d b4 26 00 00 00 	lea    %cs:0x0(%esi,%eiz,1),%esi
8010748f:	00 
80107490:	83 c3 04             	add    $0x4,%ebx
80107493:	39 fb                	cmp    %edi,%ebx
80107495:	74 23                	je     801074ba <freevm+0x5a>
		if (pgdir[i] & PTE_P) {
80107497:	8b 03                	mov    (%ebx),%eax
80107499:	a8 01                	test   $0x1,%al
8010749b:	74 f3                	je     80107490 <freevm+0x30>
			char *v = P2V(PTE_ADDR(pgdir[i]));
8010749d:	25 00 f0 ff ff       	and    $0xfffff000,%eax
			kfree(v);
801074a2:	83 ec 0c             	sub    $0xc,%esp
	for (i = 0; i < NPDENTRIES; i++) {
801074a5:	83 c3 04             	add    $0x4,%ebx
			char *v = P2V(PTE_ADDR(pgdir[i]));
801074a8:	05 00 00 00 80       	add    $0x80000000,%eax
			kfree(v);
801074ad:	50                   	push   %eax
801074ae:	e8 fd be ff ff       	call   801033b0 <kfree>
801074b3:	83 c4 10             	add    $0x10,%esp
	for (i = 0; i < NPDENTRIES; i++) {
801074b6:	39 fb                	cmp    %edi,%ebx
801074b8:	75 dd                	jne    80107497 <freevm+0x37>
		}
	}
	kfree((char *)pgdir);
801074ba:	89 75 08             	mov    %esi,0x8(%ebp)
}
801074bd:	8d 65 f4             	lea    -0xc(%ebp),%esp
801074c0:	5b                   	pop    %ebx
801074c1:	5e                   	pop    %esi
801074c2:	5f                   	pop    %edi
801074c3:	5d                   	pop    %ebp
	kfree((char *)pgdir);
801074c4:	e9 e7 be ff ff       	jmp    801033b0 <kfree>
		panic("freevm: no pgdir");
801074c9:	83 ec 0c             	sub    $0xc,%esp
801074cc:	68 cd b6 10 80       	push   $0x8010b6cd
801074d1:	e8 1a 99 ff ff       	call   80100df0 <panic>
801074d6:	2e 8d b4 26 00 00 00 	lea    %cs:0x0(%esi,%eiz,1),%esi
801074dd:	00 
801074de:	66 90                	xchg   %ax,%ax

801074e0 <setupkvm>:
pde_t *setupkvm(void) {
801074e0:	55                   	push   %ebp
801074e1:	89 e5                	mov    %esp,%ebp
801074e3:	56                   	push   %esi
801074e4:	53                   	push   %ebx
	if ((pgdir = (pde_t *)kalloc()) == 0)
801074e5:	e8 86 c0 ff ff       	call   80103570 <kalloc>
801074ea:	85 c0                	test   %eax,%eax
801074ec:	74 5e                	je     8010754c <setupkvm+0x6c>
	memset(pgdir, 0, PGSIZE);
801074ee:	83 ec 04             	sub    $0x4,%esp
801074f1:	89 c6                	mov    %eax,%esi
	for (k = kmap; k < &kmap[NELEM(kmap)]; k++)
801074f3:	bb 20 20 11 80       	mov    $0x80112020,%ebx
	memset(pgdir, 0, PGSIZE);
801074f8:	68 00 10 00 00       	push   $0x1000
801074fd:	6a 00                	push   $0x0
801074ff:	50                   	push   %eax
80107500:	e8 6b e1 ff ff       	call   80105670 <memset>
80107505:	83 c4 10             	add    $0x10,%esp
			     (uint)k->phys_start, k->perm) < 0) {
80107508:	8b 43 04             	mov    0x4(%ebx),%eax
		if (mappages(pgdir, k->virt, k->phys_end - k->phys_start,
8010750b:	83 ec 08             	sub    $0x8,%esp
8010750e:	8b 4b 08             	mov    0x8(%ebx),%ecx
80107511:	8b 13                	mov    (%ebx),%edx
80107513:	ff 73 0c             	push   0xc(%ebx)
80107516:	50                   	push   %eax
80107517:	29 c1                	sub    %eax,%ecx
80107519:	89 f0                	mov    %esi,%eax
8010751b:	e8 00 fa ff ff       	call   80106f20 <mappages>
80107520:	83 c4 10             	add    $0x10,%esp
80107523:	85 c0                	test   %eax,%eax
80107525:	78 19                	js     80107540 <setupkvm+0x60>
	for (k = kmap; k < &kmap[NELEM(kmap)]; k++)
80107527:	83 c3 10             	add    $0x10,%ebx
8010752a:	81 fb 60 20 11 80    	cmp    $0x80112060,%ebx
80107530:	75 d6                	jne    80107508 <setupkvm+0x28>
}
80107532:	8d 65 f8             	lea    -0x8(%ebp),%esp
80107535:	89 f0                	mov    %esi,%eax
80107537:	5b                   	pop    %ebx
80107538:	5e                   	pop    %esi
80107539:	5d                   	pop    %ebp
8010753a:	c3                   	ret
8010753b:	2e 8d 74 26 00       	lea    %cs:0x0(%esi,%eiz,1),%esi
			freevm(pgdir);
80107540:	83 ec 0c             	sub    $0xc,%esp
80107543:	56                   	push   %esi
80107544:	e8 17 ff ff ff       	call   80107460 <freevm>
			return 0;
80107549:	83 c4 10             	add    $0x10,%esp
}
8010754c:	8d 65 f8             	lea    -0x8(%ebp),%esp
		return 0;
8010754f:	31 f6                	xor    %esi,%esi
}
80107551:	89 f0                	mov    %esi,%eax
80107553:	5b                   	pop    %ebx
80107554:	5e                   	pop    %esi
80107555:	5d                   	pop    %ebp
80107556:	c3                   	ret
80107557:	2e 8d b4 26 00 00 00 	lea    %cs:0x0(%esi,%eiz,1),%esi
8010755e:	00 
8010755f:	90                   	nop

80107560 <kvmalloc>:
void kvmalloc(void) {
80107560:	55                   	push   %ebp
80107561:	89 e5                	mov    %esp,%ebp
80107563:	83 ec 08             	sub    $0x8,%esp
	kpgdir = setupkvm();
80107566:	e8 75 ff ff ff       	call   801074e0 <setupkvm>
8010756b:	a3 c4 9c 13 80       	mov    %eax,0x80139cc4
	lcr3(V2P(kpgdir)); // switch to the kernel page table
80107570:	05 00 00 00 80       	add    $0x80000000,%eax
80107575:	0f 22 d8             	mov    %eax,%cr3
}
80107578:	c9                   	leave
80107579:	c3                   	ret
8010757a:	8d b6 00 00 00 00    	lea    0x0(%esi),%esi

80107580 <clearpteu>:

// Clear PTE_U on a page. Used to create an inaccessible
// page beneath the user stack.
void clearpteu(pde_t *pgdir, char *uva) {
80107580:	55                   	push   %ebp
80107581:	89 e5                	mov    %esp,%ebp
80107583:	83 ec 08             	sub    $0x8,%esp
80107586:	8b 45 0c             	mov    0xc(%ebp),%eax
	if (*pde & PTE_P) {
80107589:	8b 55 08             	mov    0x8(%ebp),%edx
	pde = &pgdir[PDX(va)];
8010758c:	89 c1                	mov    %eax,%ecx
8010758e:	c1 e9 16             	shr    $0x16,%ecx
	if (*pde & PTE_P) {
80107591:	8b 14 8a             	mov    (%edx,%ecx,4),%edx
80107594:	f6 c2 01             	test   $0x1,%dl
80107597:	75 17                	jne    801075b0 <clearpteu+0x30>
	pte_t *pte;

	pte = walkpgdir(pgdir, uva, 0);
	if (pte == 0)
		panic("clearpteu");
80107599:	83 ec 0c             	sub    $0xc,%esp
8010759c:	68 de b6 10 80       	push   $0x8010b6de
801075a1:	e8 4a 98 ff ff       	call   80100df0 <panic>
801075a6:	2e 8d b4 26 00 00 00 	lea    %cs:0x0(%esi,%eiz,1),%esi
801075ad:	00 
801075ae:	66 90                	xchg   %ax,%ax
	return &pgtab[PTX(va)];
801075b0:	c1 e8 0a             	shr    $0xa,%eax
		pgtab = (pte_t *)P2V(PTE_ADDR(*pde));
801075b3:	81 e2 00 f0 ff ff    	and    $0xfffff000,%edx
	return &pgtab[PTX(va)];
801075b9:	25 fc 0f 00 00       	and    $0xffc,%eax
801075be:	8d 84 02 00 00 00 80 	lea    -0x80000000(%edx,%eax,1),%eax
	if (pte == 0)
801075c5:	85 c0                	test   %eax,%eax
801075c7:	74 d0                	je     80107599 <clearpteu+0x19>
	*pte &= ~PTE_U;
801075c9:	83 20 fb             	andl   $0xfffffffb,(%eax)
}
801075cc:	c9                   	leave
801075cd:	c3                   	ret
801075ce:	66 90                	xchg   %ax,%ax

801075d0 <copyuvm>:

// Given a parent process's page table, create a copy
// of it for a child.
pde_t *copyuvm(pde_t *pgdir, uint sz) {
801075d0:	55                   	push   %ebp
801075d1:	89 e5                	mov    %esp,%ebp
801075d3:	57                   	push   %edi
801075d4:	56                   	push   %esi
801075d5:	53                   	push   %ebx
801075d6:	83 ec 1c             	sub    $0x1c,%esp
	pde_t *d;
	pte_t *pte;
	uint pa, i, flags;
	char *mem;

	if ((d = setupkvm()) == 0)
801075d9:	e8 02 ff ff ff       	call   801074e0 <setupkvm>
801075de:	89 45 e0             	mov    %eax,-0x20(%ebp)
801075e1:	85 c0                	test   %eax,%eax
801075e3:	0f 84 e9 00 00 00    	je     801076d2 <copyuvm+0x102>
		return 0;
	for (i = 0; i < sz; i += PGSIZE) {
801075e9:	8b 4d 0c             	mov    0xc(%ebp),%ecx
801075ec:	85 c9                	test   %ecx,%ecx
801075ee:	0f 84 b2 00 00 00    	je     801076a6 <copyuvm+0xd6>
801075f4:	31 f6                	xor    %esi,%esi
801075f6:	2e 8d b4 26 00 00 00 	lea    %cs:0x0(%esi,%eiz,1),%esi
801075fd:	00 
801075fe:	66 90                	xchg   %ax,%ax
	if (*pde & PTE_P) {
80107600:	8b 4d 08             	mov    0x8(%ebp),%ecx
	pde = &pgdir[PDX(va)];
80107603:	89 f0                	mov    %esi,%eax
80107605:	c1 e8 16             	shr    $0x16,%eax
	if (*pde & PTE_P) {
80107608:	8b 04 81             	mov    (%ecx,%eax,4),%eax
8010760b:	a8 01                	test   $0x1,%al
8010760d:	75 11                	jne    80107620 <copyuvm+0x50>
		if ((pte = walkpgdir(pgdir, (void *)i, 0)) == 0)
			panic("copyuvm: pte should exist");
8010760f:	83 ec 0c             	sub    $0xc,%esp
80107612:	68 e8 b6 10 80       	push   $0x8010b6e8
80107617:	e8 d4 97 ff ff       	call   80100df0 <panic>
8010761c:	8d 74 26 00          	lea    0x0(%esi,%eiz,1),%esi
	return &pgtab[PTX(va)];
80107620:	89 f2                	mov    %esi,%edx
		pgtab = (pte_t *)P2V(PTE_ADDR(*pde));
80107622:	25 00 f0 ff ff       	and    $0xfffff000,%eax
	return &pgtab[PTX(va)];
80107627:	c1 ea 0a             	shr    $0xa,%edx
8010762a:	81 e2 fc 0f 00 00    	and    $0xffc,%edx
80107630:	8d 84 10 00 00 00 80 	lea    -0x80000000(%eax,%edx,1),%eax
		if ((pte = walkpgdir(pgdir, (void *)i, 0)) == 0)
80107637:	85 c0                	test   %eax,%eax
80107639:	74 d4                	je     8010760f <copyuvm+0x3f>
		if (!(*pte & PTE_P))
8010763b:	8b 00                	mov    (%eax),%eax
8010763d:	a8 01                	test   $0x1,%al
8010763f:	0f 84 9f 00 00 00    	je     801076e4 <copyuvm+0x114>
			panic("copyuvm: page not present");
		pa = PTE_ADDR(*pte);
80107645:	89 c7                	mov    %eax,%edi
		flags = PTE_FLAGS(*pte);
80107647:	25 ff 0f 00 00       	and    $0xfff,%eax
8010764c:	89 45 e4             	mov    %eax,-0x1c(%ebp)
		pa = PTE_ADDR(*pte);
8010764f:	81 e7 00 f0 ff ff    	and    $0xfffff000,%edi
		if ((mem = kalloc()) == 0)
80107655:	e8 16 bf ff ff       	call   80103570 <kalloc>
8010765a:	89 c3                	mov    %eax,%ebx
8010765c:	85 c0                	test   %eax,%eax
8010765e:	74 64                	je     801076c4 <copyuvm+0xf4>
			goto bad;
		memmove(mem, (char *)P2V(pa), PGSIZE);
80107660:	83 ec 04             	sub    $0x4,%esp
80107663:	81 c7 00 00 00 80    	add    $0x80000000,%edi
80107669:	68 00 10 00 00       	push   $0x1000
8010766e:	57                   	push   %edi
8010766f:	50                   	push   %eax
80107670:	e8 8b e0 ff ff       	call   80105700 <memmove>
		if (mappages(d, (void *)i, PGSIZE, V2P(mem), flags) < 0) {
80107675:	58                   	pop    %eax
80107676:	8d 83 00 00 00 80    	lea    -0x80000000(%ebx),%eax
8010767c:	5a                   	pop    %edx
8010767d:	ff 75 e4             	push   -0x1c(%ebp)
80107680:	b9 00 10 00 00       	mov    $0x1000,%ecx
80107685:	89 f2                	mov    %esi,%edx
80107687:	50                   	push   %eax
80107688:	8b 45 e0             	mov    -0x20(%ebp),%eax
8010768b:	e8 90 f8 ff ff       	call   80106f20 <mappages>
80107690:	83 c4 10             	add    $0x10,%esp
80107693:	85 c0                	test   %eax,%eax
80107695:	78 21                	js     801076b8 <copyuvm+0xe8>
	for (i = 0; i < sz; i += PGSIZE) {
80107697:	81 c6 00 10 00 00    	add    $0x1000,%esi
8010769d:	3b 75 0c             	cmp    0xc(%ebp),%esi
801076a0:	0f 82 5a ff ff ff    	jb     80107600 <copyuvm+0x30>
	return d;

bad:
	freevm(d);
	return 0;
}
801076a6:	8b 45 e0             	mov    -0x20(%ebp),%eax
801076a9:	8d 65 f4             	lea    -0xc(%ebp),%esp
801076ac:	5b                   	pop    %ebx
801076ad:	5e                   	pop    %esi
801076ae:	5f                   	pop    %edi
801076af:	5d                   	pop    %ebp
801076b0:	c3                   	ret
801076b1:	8d b4 26 00 00 00 00 	lea    0x0(%esi,%eiz,1),%esi
			kfree(mem);
801076b8:	83 ec 0c             	sub    $0xc,%esp
801076bb:	53                   	push   %ebx
801076bc:	e8 ef bc ff ff       	call   801033b0 <kfree>
			goto bad;
801076c1:	83 c4 10             	add    $0x10,%esp
	freevm(d);
801076c4:	83 ec 0c             	sub    $0xc,%esp
801076c7:	ff 75 e0             	push   -0x20(%ebp)
801076ca:	e8 91 fd ff ff       	call   80107460 <freevm>
	return 0;
801076cf:	83 c4 10             	add    $0x10,%esp
		return 0;
801076d2:	c7 45 e0 00 00 00 00 	movl   $0x0,-0x20(%ebp)
}
801076d9:	8b 45 e0             	mov    -0x20(%ebp),%eax
801076dc:	8d 65 f4             	lea    -0xc(%ebp),%esp
801076df:	5b                   	pop    %ebx
801076e0:	5e                   	pop    %esi
801076e1:	5f                   	pop    %edi
801076e2:	5d                   	pop    %ebp
801076e3:	c3                   	ret
			panic("copyuvm: page not present");
801076e4:	83 ec 0c             	sub    $0xc,%esp
801076e7:	68 02 b7 10 80       	push   $0x8010b702
801076ec:	e8 ff 96 ff ff       	call   80100df0 <panic>
801076f1:	2e 8d b4 26 00 00 00 	lea    %cs:0x0(%esi,%eiz,1),%esi
801076f8:	00 
801076f9:	8d b4 26 00 00 00 00 	lea    0x0(%esi,%eiz,1),%esi

80107700 <uva2ka>:

// PAGEBREAK!
// Map user virtual address to kernel address.
char *uva2ka(pde_t *pgdir, char *uva) {
80107700:	55                   	push   %ebp
80107701:	89 e5                	mov    %esp,%ebp
80107703:	8b 45 0c             	mov    0xc(%ebp),%eax
	if (*pde & PTE_P) {
80107706:	8b 55 08             	mov    0x8(%ebp),%edx
	pde = &pgdir[PDX(va)];
80107709:	89 c1                	mov    %eax,%ecx
8010770b:	c1 e9 16             	shr    $0x16,%ecx
	if (*pde & PTE_P) {
8010770e:	8b 14 8a             	mov    (%edx,%ecx,4),%edx
80107711:	f6 c2 01             	test   $0x1,%dl
80107714:	0f 84 f8 00 00 00    	je     80107812 <uva2ka.cold>
	return &pgtab[PTX(va)];
8010771a:	c1 e8 0c             	shr    $0xc,%eax
		pgtab = (pte_t *)P2V(PTE_ADDR(*pde));
8010771d:	81 e2 00 f0 ff ff    	and    $0xfffff000,%edx
	if ((*pte & PTE_P) == 0)
		return 0;
	if ((*pte & PTE_U) == 0)
		return 0;
	return (char *)P2V(PTE_ADDR(*pte));
}
80107723:	5d                   	pop    %ebp
	return &pgtab[PTX(va)];
80107724:	25 ff 03 00 00       	and    $0x3ff,%eax
	if ((*pte & PTE_P) == 0)
80107729:	8b 94 82 00 00 00 80 	mov    -0x80000000(%edx,%eax,4),%edx
	return (char *)P2V(PTE_ADDR(*pte));
80107730:	89 d0                	mov    %edx,%eax
80107732:	f7 d2                	not    %edx
80107734:	25 00 f0 ff ff       	and    $0xfffff000,%eax
80107739:	05 00 00 00 80       	add    $0x80000000,%eax
8010773e:	83 e2 05             	and    $0x5,%edx
80107741:	ba 00 00 00 00       	mov    $0x0,%edx
80107746:	0f 45 c2             	cmovne %edx,%eax
}
80107749:	c3                   	ret
8010774a:	8d b6 00 00 00 00    	lea    0x0(%esi),%esi

80107750 <copyout>:

// Copy len bytes from p to user address va in page table pgdir.
// Most useful when pgdir is not the current page table.
// uva2ka ensures this only works for PTE_U pages.
int copyout(pde_t *pgdir, uint va, void *p, uint len) {
80107750:	55                   	push   %ebp
80107751:	89 e5                	mov    %esp,%ebp
80107753:	57                   	push   %edi
80107754:	56                   	push   %esi
80107755:	53                   	push   %ebx
80107756:	83 ec 0c             	sub    $0xc,%esp
80107759:	8b 75 14             	mov    0x14(%ebp),%esi
8010775c:	8b 45 0c             	mov    0xc(%ebp),%eax
8010775f:	8b 55 10             	mov    0x10(%ebp),%edx
	char *buf, *pa0;
	uint n, va0;

	buf = (char *)p;
	while (len > 0) {
80107762:	85 f6                	test   %esi,%esi
80107764:	75 51                	jne    801077b7 <copyout+0x67>
80107766:	e9 9d 00 00 00       	jmp    80107808 <copyout+0xb8>
8010776b:	2e 8d 74 26 00       	lea    %cs:0x0(%esi,%eiz,1),%esi
	return (char *)P2V(PTE_ADDR(*pte));
80107770:	81 e3 00 f0 ff ff    	and    $0xfffff000,%ebx
80107776:	8d 8b 00 00 00 80    	lea    -0x80000000(%ebx),%ecx
		va0 = (uint)PGROUNDDOWN(va);
		pa0 = uva2ka(pgdir, (char *)va0);
		if (pa0 == 0)
8010777c:	81 fb 00 00 00 80    	cmp    $0x80000000,%ebx
80107782:	74 74                	je     801077f8 <copyout+0xa8>
			return -1;
		n = PGSIZE - (va - va0);
80107784:	89 fb                	mov    %edi,%ebx
80107786:	29 c3                	sub    %eax,%ebx
80107788:	81 c3 00 10 00 00    	add    $0x1000,%ebx
		if (n > len)
8010778e:	39 f3                	cmp    %esi,%ebx
80107790:	0f 47 de             	cmova  %esi,%ebx
			n = len;
		memmove(pa0 + (va - va0), buf, n);
80107793:	29 f8                	sub    %edi,%eax
80107795:	83 ec 04             	sub    $0x4,%esp
80107798:	01 c1                	add    %eax,%ecx
8010779a:	53                   	push   %ebx
8010779b:	52                   	push   %edx
8010779c:	89 55 10             	mov    %edx,0x10(%ebp)
8010779f:	51                   	push   %ecx
801077a0:	e8 5b df ff ff       	call   80105700 <memmove>
		len -= n;
		buf += n;
801077a5:	8b 55 10             	mov    0x10(%ebp),%edx
		va = va0 + PGSIZE;
801077a8:	8d 87 00 10 00 00    	lea    0x1000(%edi),%eax
	while (len > 0) {
801077ae:	83 c4 10             	add    $0x10,%esp
		buf += n;
801077b1:	01 da                	add    %ebx,%edx
	while (len > 0) {
801077b3:	29 de                	sub    %ebx,%esi
801077b5:	74 51                	je     80107808 <copyout+0xb8>
	if (*pde & PTE_P) {
801077b7:	8b 5d 08             	mov    0x8(%ebp),%ebx
	pde = &pgdir[PDX(va)];
801077ba:	89 c1                	mov    %eax,%ecx
		va0 = (uint)PGROUNDDOWN(va);
801077bc:	89 c7                	mov    %eax,%edi
	pde = &pgdir[PDX(va)];
801077be:	c1 e9 16             	shr    $0x16,%ecx
		va0 = (uint)PGROUNDDOWN(va);
801077c1:	81 e7 00 f0 ff ff    	and    $0xfffff000,%edi
	if (*pde & PTE_P) {
801077c7:	8b 0c 8b             	mov    (%ebx,%ecx,4),%ecx
801077ca:	f6 c1 01             	test   $0x1,%cl
801077cd:	0f 84 46 00 00 00    	je     80107819 <copyout.cold>
	return &pgtab[PTX(va)];
801077d3:	89 fb                	mov    %edi,%ebx
		pgtab = (pte_t *)P2V(PTE_ADDR(*pde));
801077d5:	81 e1 00 f0 ff ff    	and    $0xfffff000,%ecx
	return &pgtab[PTX(va)];
801077db:	c1 eb 0c             	shr    $0xc,%ebx
801077de:	81 e3 ff 03 00 00    	and    $0x3ff,%ebx
	if ((*pte & PTE_P) == 0)
801077e4:	8b 9c 99 00 00 00 80 	mov    -0x80000000(%ecx,%ebx,4),%ebx
	if ((*pte & PTE_U) == 0)
801077eb:	89 d9                	mov    %ebx,%ecx
801077ed:	f7 d1                	not    %ecx
801077ef:	83 e1 05             	and    $0x5,%ecx
801077f2:	0f 84 78 ff ff ff    	je     80107770 <copyout+0x20>
	}
	return 0;
}
801077f8:	8d 65 f4             	lea    -0xc(%ebp),%esp
			return -1;
801077fb:	b8 ff ff ff ff       	mov    $0xffffffff,%eax
}
80107800:	5b                   	pop    %ebx
80107801:	5e                   	pop    %esi
80107802:	5f                   	pop    %edi
80107803:	5d                   	pop    %ebp
80107804:	c3                   	ret
80107805:	8d 76 00             	lea    0x0(%esi),%esi
80107808:	8d 65 f4             	lea    -0xc(%ebp),%esp
	return 0;
8010780b:	31 c0                	xor    %eax,%eax
}
8010780d:	5b                   	pop    %ebx
8010780e:	5e                   	pop    %esi
8010780f:	5f                   	pop    %edi
80107810:	5d                   	pop    %ebp
80107811:	c3                   	ret

80107812 <uva2ka.cold>:
	if ((*pte & PTE_P) == 0)
80107812:	a1 00 00 00 00       	mov    0x0,%eax
80107817:	0f 0b                	ud2

80107819 <copyout.cold>:
80107819:	a1 00 00 00 00       	mov    0x0,%eax
8010781e:	0f 0b                	ud2

80107820 <initGUI>:
int screen_size;

RGB *screen;
RGB *screen_buf;

void initGUI() {
80107820:	55                   	push   %ebp
80107821:	89 e5                	mov    %esp,%ebp
80107823:	53                   	push   %ebx
80107824:	83 ec 0c             	sub    $0xc,%esp
	uint GraphicMem = KERNBASE + 0x1028;

	uint baseAdd = *((uint *)GraphicMem);
80107827:	8b 1d 28 10 00 80    	mov    0x80001028,%ebx
	screen = (RGB *)baseAdd;
8010782d:	89 1d cc 9c 13 80    	mov    %ebx,0x80139ccc

	SCREEN_WIDTH = *((ushort *)(KERNBASE + 0x1012));
80107833:	0f b7 05 12 10 00 80 	movzwl 0x80001012,%eax
8010783a:	66 a3 d6 9c 13 80    	mov    %ax,0x80139cd6
	SCREEN_HEIGHT = *((ushort *)(KERNBASE + 0x1014));
80107840:	0f b7 15 14 10 00 80 	movzwl 0x80001014,%edx
	mouse_color[0].R = 0;
	mouse_color[1].G = 200;
	mouse_color[1].B = 200;
	mouse_color[1].R = 200;

	cprintf("KERNEL BASE ADDRESS: %x\n", KERNBASE);
80107847:	68 00 00 00 80       	push   $0x80000000
	screen_size = (SCREEN_WIDTH * SCREEN_HEIGHT) * 3;
8010784c:	0f af c2             	imul   %edx,%eax
	cprintf("KERNEL BASE ADDRESS: %x\n", KERNBASE);
8010784f:	68 1c b7 10 80       	push   $0x8010b71c
	SCREEN_HEIGHT = *((ushort *)(KERNBASE + 0x1014));
80107854:	66 89 15 d4 9c 13 80 	mov    %dx,0x80139cd4
	mouse_color[0].B = 0;
8010785b:	c7 05 d8 9c 13 80 00 	movl   $0xc8000000,0x80139cd8
80107862:	00 00 c8 
	screen_size = (SCREEN_WIDTH * SCREEN_HEIGHT) * 3;
80107865:	8d 04 40             	lea    (%eax,%eax,2),%eax
80107868:	a3 d0 9c 13 80       	mov    %eax,0x80139cd0
	screen_buf = (RGB *)(baseAdd + screen_size);
8010786d:	01 d8                	add    %ebx,%eax
8010786f:	a3 c8 9c 13 80       	mov    %eax,0x80139cc8
	mouse_color[1].G = 200;
80107874:	b8 c8 c8 ff ff       	mov    $0xffffc8c8,%eax
80107879:	66 a3 dc 9c 13 80    	mov    %ax,0x80139cdc
	cprintf("KERNEL BASE ADDRESS: %x\n", KERNBASE);
8010787f:	e8 9c 98 ff ff       	call   80101120 <cprintf>
	cprintf("SCREEN PHYSICAL ADDRESS: %x\n", baseAdd);
80107884:	5a                   	pop    %edx
80107885:	59                   	pop    %ecx
80107886:	53                   	push   %ebx
80107887:	68 35 b7 10 80       	push   $0x8010b735
8010788c:	e8 8f 98 ff ff       	call   80101120 <cprintf>
	cprintf("@Screen Width:   %d\n", SCREEN_WIDTH);
80107891:	5b                   	pop    %ebx
80107892:	58                   	pop    %eax
80107893:	0f b7 05 d6 9c 13 80 	movzwl 0x80139cd6,%eax
8010789a:	50                   	push   %eax
8010789b:	68 52 b7 10 80       	push   $0x8010b752
801078a0:	e8 7b 98 ff ff       	call   80101120 <cprintf>
	cprintf("@Screen Height:  %d\n", SCREEN_HEIGHT);
801078a5:	58                   	pop    %eax
801078a6:	0f b7 05 d4 9c 13 80 	movzwl 0x80139cd4,%eax
801078ad:	5a                   	pop    %edx
801078ae:	50                   	push   %eax
801078af:	68 67 b7 10 80       	push   $0x8010b767
801078b4:	e8 67 98 ff ff       	call   80101120 <cprintf>
	cprintf("@Video card drivers initialized successfully.\n");
801078b9:	c7 04 24 a8 ba 10 80 	movl   $0x8010baa8,(%esp)
801078c0:	e8 5b 98 ff ff       	call   80101120 <cprintf>

	wmInit();
}
801078c5:	8b 5d fc             	mov    -0x4(%ebp),%ebx
	wmInit();
801078c8:	83 c4 10             	add    $0x10,%esp
}
801078cb:	c9                   	leave
	wmInit();
801078cc:	e9 9f 16 00 00       	jmp    80108f70 <wmInit>
801078d1:	2e 8d b4 26 00 00 00 	lea    %cs:0x0(%esi,%eiz,1),%esi
801078d8:	00 
801078d9:	8d b4 26 00 00 00 00 	lea    0x0(%esi,%eiz,1),%esi

801078e0 <drawPoint>:

void drawPoint(RGB *color, RGB origin) {
801078e0:	55                   	push   %ebp
801078e1:	89 e5                	mov    %esp,%ebp
801078e3:	8b 45 08             	mov    0x8(%ebp),%eax
	color->R = origin.R;
801078e6:	0f b6 55 0e          	movzbl 0xe(%ebp),%edx
801078ea:	88 50 02             	mov    %dl,0x2(%eax)
	color->G = origin.G;
	color->B = origin.B;
801078ed:	0f b7 55 0c          	movzwl 0xc(%ebp),%edx
801078f1:	66 89 10             	mov    %dx,(%eax)
}
801078f4:	5d                   	pop    %ebp
801078f5:	c3                   	ret
801078f6:	2e 8d b4 26 00 00 00 	lea    %cs:0x0(%esi,%eiz,1),%esi
801078fd:	00 
801078fe:	66 90                	xchg   %ax,%ax

80107900 <drawPointAlpha>:

void drawPointAlpha(RGB *color, RGBA origin) {
80107900:	55                   	push   %ebp
80107901:	89 e5                	mov    %esp,%ebp
80107903:	57                   	push   %edi
80107904:	8b 45 0c             	mov    0xc(%ebp),%eax
80107907:	8b 4d 08             	mov    0x8(%ebp),%ecx
8010790a:	56                   	push   %esi
8010790b:	53                   	push   %ebx
8010790c:	89 c2                	mov    %eax,%edx
8010790e:	89 c3                	mov    %eax,%ebx
80107910:	c1 ea 08             	shr    $0x8,%edx
80107913:	c1 eb 18             	shr    $0x18,%ebx
	uint alpha, inv_alpha;

	if (origin.A == 255) {
80107916:	3c ff                	cmp    $0xff,%al
80107918:	74 46                	je     80107960 <drawPointAlpha+0x60>
		color->R = origin.R;
		color->G = origin.G;
		color->B = origin.B;
		return;
	}
	if (origin.A == 0) {
8010791a:	84 c0                	test   %al,%al
8010791c:	74 3b                	je     80107959 <drawPointAlpha+0x59>
		return;
	}

	alpha = origin.A;
8010791e:	0f b6 c0             	movzbl %al,%eax
	inv_alpha = 255 - alpha;

	color->R = (color->R * inv_alpha + origin.R * alpha) >> 8;
80107921:	0f b6 79 02          	movzbl 0x2(%ecx),%edi
	inv_alpha = 255 - alpha;
80107925:	be ff 00 00 00       	mov    $0xff,%esi
8010792a:	29 c6                	sub    %eax,%esi
	color->R = (color->R * inv_alpha + origin.R * alpha) >> 8;
8010792c:	0f af d8             	imul   %eax,%ebx
8010792f:	0f af fe             	imul   %esi,%edi
80107932:	01 fb                	add    %edi,%ebx
	color->G = (color->G * inv_alpha + origin.G * alpha) >> 8;
80107934:	0f b6 fe             	movzbl %dh,%edi
	color->B = (color->B * inv_alpha + origin.B * alpha) >> 8;
80107937:	0f b6 d2             	movzbl %dl,%edx
	color->R = (color->R * inv_alpha + origin.R * alpha) >> 8;
8010793a:	88 79 02             	mov    %bh,0x2(%ecx)
	color->G = (color->G * inv_alpha + origin.G * alpha) >> 8;
8010793d:	0f b6 59 01          	movzbl 0x1(%ecx),%ebx
80107941:	0f af f8             	imul   %eax,%edi
	color->B = (color->B * inv_alpha + origin.B * alpha) >> 8;
80107944:	0f af d0             	imul   %eax,%edx
	color->G = (color->G * inv_alpha + origin.G * alpha) >> 8;
80107947:	0f af de             	imul   %esi,%ebx
8010794a:	01 fb                	add    %edi,%ebx
8010794c:	88 79 01             	mov    %bh,0x1(%ecx)
	color->B = (color->B * inv_alpha + origin.B * alpha) >> 8;
8010794f:	0f b6 19             	movzbl (%ecx),%ebx
80107952:	0f af de             	imul   %esi,%ebx
80107955:	01 da                	add    %ebx,%edx
80107957:	88 31                	mov    %dh,(%ecx)
}
80107959:	5b                   	pop    %ebx
8010795a:	5e                   	pop    %esi
8010795b:	5f                   	pop    %edi
8010795c:	5d                   	pop    %ebp
8010795d:	c3                   	ret
8010795e:	66 90                	xchg   %ax,%ax
		color->R = origin.R;
80107960:	88 59 02             	mov    %bl,0x2(%ecx)
		color->B = origin.B;
80107963:	66 89 11             	mov    %dx,(%ecx)
}
80107966:	5b                   	pop    %ebx
80107967:	5e                   	pop    %esi
80107968:	5f                   	pop    %edi
80107969:	5d                   	pop    %ebp
8010796a:	c3                   	ret
8010796b:	2e 8d 74 26 00       	lea    %cs:0x0(%esi,%eiz,1),%esi

80107970 <drawCharacter>:

int drawCharacter(RGB *buf, int x, int y, char ch, RGBA color) {
80107970:	55                   	push   %ebp
80107971:	89 e5                	mov    %esp,%ebp
80107973:	57                   	push   %edi
80107974:	56                   	push   %esi
80107975:	53                   	push   %ebx
80107976:	83 ec 2c             	sub    $0x2c,%esp
	int i, j;
	RGB *t;
	int ord = ch - 0x20;
80107979:	0f be 75 14          	movsbl 0x14(%ebp),%esi
8010797d:	0f b6 45 18          	movzbl 0x18(%ebp),%eax
80107981:	83 ee 20             	sub    $0x20,%esi
80107984:	88 45 df             	mov    %al,-0x21(%ebp)

	if (ord < 0 || ord >= (CHARACTER_NUMBER - 1))
80107987:	83 fe 5e             	cmp    $0x5e,%esi
8010798a:	0f 87 c1 00 00 00    	ja     80107a51 <drawCharacter+0xe1>
80107990:	8b 7d 10             	mov    0x10(%ebp),%edi
80107993:	69 f6 b4 00 00 00    	imul   $0xb4,%esi,%esi
					continue;

				t = buf + (y + i) * SCREEN_WIDTH + x + j;

				RGBA smooth_color = color;
				smooth_color.A = (color.A * font_alpha) >> 8;
80107999:	89 45 d8             	mov    %eax,-0x28(%ebp)
8010799c:	8d 57 12             	lea    0x12(%edi),%edx
8010799f:	eb 15                	jmp    801079b6 <drawCharacter+0x46>
801079a1:	8d b4 26 00 00 00 00 	lea    0x0(%esi,%eiz,1),%esi
	for (i = 0; i < CHARACTER_HEIGHT; i++) {
801079a8:	83 c7 01             	add    $0x1,%edi
801079ab:	83 c6 0a             	add    $0xa,%esi
801079ae:	39 d7                	cmp    %edx,%edi
801079b0:	0f 84 8e 00 00 00    	je     80107a44 <drawCharacter+0xd4>
		if (y + i >= SCREEN_HEIGHT || y + i < 0)
801079b6:	0f b7 05 d4 9c 13 80 	movzwl 0x80139cd4,%eax
801079bd:	39 c7                	cmp    %eax,%edi
801079bf:	73 e7                	jae    801079a8 <drawCharacter+0x38>
		for (j = 0; j < CHARACTER_WIDTH; j++) {
801079c1:	89 55 d4             	mov    %edx,-0x2c(%ebp)
801079c4:	31 db                	xor    %ebx,%ebx
801079c6:	89 7d e0             	mov    %edi,-0x20(%ebp)
801079c9:	8b 7d 0c             	mov    0xc(%ebp),%edi
801079cc:	8d 74 26 00          	lea    0x0(%esi,%eiz,1),%esi
			uchar font_alpha = character[ord][i][j];
801079d0:	0f b6 84 1e 00 c4 10 	movzbl -0x7fef3c00(%esi,%ebx,1),%eax
801079d7:	80 
			if (font_alpha > 0) {
801079d8:	84 c0                	test   %al,%al
801079da:	74 4c                	je     80107a28 <drawCharacter+0xb8>
				if (x + j >= SCREEN_WIDTH || x + j < 0)
801079dc:	0f b7 15 d6 9c 13 80 	movzwl 0x80139cd6,%edx
801079e3:	8d 0c 1f             	lea    (%edi,%ebx,1),%ecx
801079e6:	39 d1                	cmp    %edx,%ecx
801079e8:	73 3e                	jae    80107a28 <drawCharacter+0xb8>
				RGBA smooth_color = color;
801079ea:	0f b6 4d 18          	movzbl 0x18(%ebp),%ecx
801079ee:	8a 4d df             	mov    -0x21(%ebp),%cl

				drawPointAlpha(t, smooth_color);
801079f1:	83 ec 08             	sub    $0x8,%esp
				RGBA smooth_color = color;
801079f4:	88 4d 18             	mov    %cl,0x18(%ebp)
801079f7:	8b 4d 18             	mov    0x18(%ebp),%ecx
801079fa:	89 4d e4             	mov    %ecx,-0x1c(%ebp)
				smooth_color.A = (color.A * font_alpha) >> 8;
801079fd:	8b 4d d8             	mov    -0x28(%ebp),%ecx
80107a00:	0f af c1             	imul   %ecx,%eax
80107a03:	8b 4d e4             	mov    -0x1c(%ebp),%ecx
80107a06:	c1 f8 08             	sar    $0x8,%eax
80107a09:	88 c1                	mov    %al,%cl
				drawPointAlpha(t, smooth_color);
80107a0b:	51                   	push   %ecx
				t = buf + (y + i) * SCREEN_WIDTH + x + j;
80107a0c:	8b 45 e0             	mov    -0x20(%ebp),%eax
80107a0f:	0f af d0             	imul   %eax,%edx
80107a12:	01 fa                	add    %edi,%edx
80107a14:	01 da                	add    %ebx,%edx
80107a16:	8d 04 52             	lea    (%edx,%edx,2),%eax
80107a19:	03 45 08             	add    0x8(%ebp),%eax
				drawPointAlpha(t, smooth_color);
80107a1c:	50                   	push   %eax
80107a1d:	e8 de fe ff ff       	call   80107900 <drawPointAlpha>
80107a22:	83 c4 10             	add    $0x10,%esp
80107a25:	8d 76 00             	lea    0x0(%esi),%esi
		for (j = 0; j < CHARACTER_WIDTH; j++) {
80107a28:	83 c3 01             	add    $0x1,%ebx
80107a2b:	83 fb 0a             	cmp    $0xa,%ebx
80107a2e:	75 a0                	jne    801079d0 <drawCharacter+0x60>
80107a30:	8b 7d e0             	mov    -0x20(%ebp),%edi
80107a33:	8b 55 d4             	mov    -0x2c(%ebp),%edx
	for (i = 0; i < CHARACTER_HEIGHT; i++) {
80107a36:	83 c6 0a             	add    $0xa,%esi
80107a39:	83 c7 01             	add    $0x1,%edi
80107a3c:	39 d7                	cmp    %edx,%edi
80107a3e:	0f 85 72 ff ff ff    	jne    801079b6 <drawCharacter+0x46>
			}
		}
	}
	return CHARACTER_WIDTH;
80107a44:	b8 0a 00 00 00       	mov    $0xa,%eax
}
80107a49:	8d 65 f4             	lea    -0xc(%ebp),%esp
80107a4c:	5b                   	pop    %ebx
80107a4d:	5e                   	pop    %esi
80107a4e:	5f                   	pop    %edi
80107a4f:	5d                   	pop    %ebp
80107a50:	c3                   	ret
		return -1;
80107a51:	b8 ff ff ff ff       	mov    $0xffffffff,%eax
80107a56:	eb f1                	jmp    80107a49 <drawCharacter+0xd9>
80107a58:	2e 8d b4 26 00 00 00 	lea    %cs:0x0(%esi,%eiz,1),%esi
80107a5f:	00 

80107a60 <drawIcon>:

int drawIcon(RGB *buf, int x, int y, int icon, RGBA color) {
80107a60:	55                   	push   %ebp
80107a61:	89 e5                	mov    %esp,%ebp
80107a63:	57                   	push   %edi
80107a64:	56                   	push   %esi
80107a65:	53                   	push   %ebx
80107a66:	83 ec 0c             	sub    $0xc,%esp
80107a69:	8b 45 14             	mov    0x14(%ebp),%eax
	int i, j;
	RGB *t;

	if (icon < 0 || icon >= ICON_NUMBER) {
80107a6c:	83 f8 04             	cmp    $0x4,%eax
80107a6f:	0f 87 b3 00 00 00    	ja     80107b28 <drawIcon+0xc8>
80107a75:	69 f0 10 0e 00 00    	imul   $0xe10,%eax,%esi
80107a7b:	8b 5d 0c             	mov    0xc(%ebp),%ebx
80107a7e:	8b 7d 10             	mov    0x10(%ebp),%edi
80107a81:	69 c0 84 03 00 00    	imul   $0x384,%eax,%eax
80107a87:	8d 14 9d 00 00 00 00 	lea    0x0(,%ebx,4),%edx
80107a8e:	29 d6                	sub    %edx,%esi
80107a90:	29 d8                	sub    %ebx,%eax
80107a92:	8d 5b 1e             	lea    0x1e(%ebx),%ebx
80107a95:	8d 14 85 10 0e 00 00 	lea    0xe10(,%eax,4),%edx
80107a9c:	eb 0c                	jmp    80107aaa <drawIcon+0x4a>
80107a9e:	66 90                	xchg   %ax,%ax
		return -1;
	}

	for (i = 0; i < ICON_SIZE; i++) {
80107aa0:	83 c6 78             	add    $0x78,%esi
80107aa3:	83 c7 01             	add    $0x1,%edi
80107aa6:	39 f2                	cmp    %esi,%edx
80107aa8:	74 71                	je     80107b1b <drawIcon+0xbb>
		if (y + i >= SCREEN_HEIGHT || y + i < 0)
80107aaa:	0f b7 05 d4 9c 13 80 	movzwl 0x80139cd4,%eax
80107ab1:	39 c7                	cmp    %eax,%edi
80107ab3:	73 eb                	jae    80107aa0 <drawIcon+0x40>
80107ab5:	89 55 e8             	mov    %edx,-0x18(%ebp)
80107ab8:	8b 45 0c             	mov    0xc(%ebp),%eax
80107abb:	89 7d ec             	mov    %edi,-0x14(%ebp)
80107abe:	89 5d f0             	mov    %ebx,-0x10(%ebp)
80107ac1:	8d b4 26 00 00 00 00 	lea    0x0(%esi,%eiz,1),%esi
			continue;

		for (j = 0; j < ICON_SIZE; j++) {
			if (x + j >= SCREEN_WIDTH || x + j < 0)
80107ac8:	0f b7 0d d6 9c 13 80 	movzwl 0x80139cd6,%ecx
80107acf:	39 c8                	cmp    %ecx,%eax
80107ad1:	73 2e                	jae    80107b01 <drawIcon+0xa1>
				continue;

			unsigned int raw_color =
80107ad3:	8b 94 86 80 22 11 80 	mov    -0x7feedd80(%esi,%eax,4),%edx
				icons_data[icon][i * ICON_SIZE + j];

			if (raw_color == 0xFF000000 ||
80107ada:	81 fa 00 00 00 ff    	cmp    $0xff000000,%edx
80107ae0:	74 1f                	je     80107b01 <drawIcon+0xa1>
80107ae2:	85 d2                	test   %edx,%edx
80107ae4:	74 1b                	je     80107b01 <drawIcon+0xa1>
			    raw_color == 0x00000000 ||
			    raw_color == ICON_TRANSPARENT) {
				continue;
			}

			t = buf + (y + i) * SCREEN_WIDTH + (x + j);
80107ae6:	8b 5d ec             	mov    -0x14(%ebp),%ebx

			RGBA pixel_color;
			pixel_color.R = (raw_color >> 16) & 0xFF;
80107ae9:	89 d7                	mov    %edx,%edi
80107aeb:	c1 ef 10             	shr    $0x10,%edi
			t = buf + (y + i) * SCREEN_WIDTH + (x + j);
80107aee:	0f af cb             	imul   %ebx,%ecx
			pixel_color.R = (raw_color >> 16) & 0xFF;
80107af1:	89 fb                	mov    %edi,%ebx
			t = buf + (y + i) * SCREEN_WIDTH + (x + j);
80107af3:	01 c1                	add    %eax,%ecx
80107af5:	8d 0c 49             	lea    (%ecx,%ecx,2),%ecx
80107af8:	03 4d 08             	add    0x8(%ebp),%ecx
			pixel_color.R = (raw_color >> 16) & 0xFF;
80107afb:	88 59 02             	mov    %bl,0x2(%ecx)
		color->B = origin.B;
80107afe:	66 89 11             	mov    %dx,(%ecx)
		for (j = 0; j < ICON_SIZE; j++) {
80107b01:	8b 5d f0             	mov    -0x10(%ebp),%ebx
80107b04:	83 c0 01             	add    $0x1,%eax
80107b07:	39 d8                	cmp    %ebx,%eax
80107b09:	75 bd                	jne    80107ac8 <drawIcon+0x68>
80107b0b:	8b 7d ec             	mov    -0x14(%ebp),%edi
	for (i = 0; i < ICON_SIZE; i++) {
80107b0e:	8b 55 e8             	mov    -0x18(%ebp),%edx
80107b11:	83 c6 78             	add    $0x78,%esi
80107b14:	83 c7 01             	add    $0x1,%edi
80107b17:	39 f2                	cmp    %esi,%edx
80107b19:	75 8f                	jne    80107aaa <drawIcon+0x4a>
			pixel_color.A = 255;

			drawPointAlpha(t, pixel_color);
		}
	}
	return ICON_SIZE;
80107b1b:	b8 1e 00 00 00       	mov    $0x1e,%eax
}
80107b20:	83 c4 0c             	add    $0xc,%esp
80107b23:	5b                   	pop    %ebx
80107b24:	5e                   	pop    %esi
80107b25:	5f                   	pop    %edi
80107b26:	5d                   	pop    %ebp
80107b27:	c3                   	ret
		return -1;
80107b28:	b8 ff ff ff ff       	mov    $0xffffffff,%eax
80107b2d:	eb f1                	jmp    80107b20 <drawIcon+0xc0>
80107b2f:	90                   	nop

80107b30 <drawString>:

void drawString(RGB *buf, int x, int y, char *str, RGBA color) {
80107b30:	55                   	push   %ebp
80107b31:	89 e5                	mov    %esp,%ebp
80107b33:	57                   	push   %edi
80107b34:	56                   	push   %esi
80107b35:	53                   	push   %ebx
80107b36:	83 ec 0c             	sub    $0xc,%esp
80107b39:	8b 75 14             	mov    0x14(%ebp),%esi
80107b3c:	8b 7d 18             	mov    0x18(%ebp),%edi
	int offset_x = 0;
	while (*str != '\0') {
80107b3f:	0f be 06             	movsbl (%esi),%eax
80107b42:	84 c0                	test   %al,%al
80107b44:	74 2f                	je     80107b75 <drawString+0x45>
	int offset_x = 0;
80107b46:	31 db                	xor    %ebx,%ebx
80107b48:	2e 8d b4 26 00 00 00 	lea    %cs:0x0(%esi,%eiz,1),%esi
80107b4f:	00 
		offset_x += drawCharacter(buf, x + offset_x, y, *str, color);
80107b50:	83 ec 0c             	sub    $0xc,%esp
		str++;
80107b53:	83 c6 01             	add    $0x1,%esi
		offset_x += drawCharacter(buf, x + offset_x, y, *str, color);
80107b56:	57                   	push   %edi
80107b57:	50                   	push   %eax
80107b58:	ff 75 10             	push   0x10(%ebp)
80107b5b:	8b 45 0c             	mov    0xc(%ebp),%eax
80107b5e:	01 d8                	add    %ebx,%eax
80107b60:	50                   	push   %eax
80107b61:	ff 75 08             	push   0x8(%ebp)
80107b64:	e8 07 fe ff ff       	call   80107970 <drawCharacter>
	while (*str != '\0') {
80107b69:	83 c4 20             	add    $0x20,%esp
		offset_x += drawCharacter(buf, x + offset_x, y, *str, color);
80107b6c:	01 c3                	add    %eax,%ebx
	while (*str != '\0') {
80107b6e:	0f be 06             	movsbl (%esi),%eax
80107b71:	84 c0                	test   %al,%al
80107b73:	75 db                	jne    80107b50 <drawString+0x20>
	}
}
80107b75:	8d 65 f4             	lea    -0xc(%ebp),%esp
80107b78:	5b                   	pop    %ebx
80107b79:	5e                   	pop    %esi
80107b7a:	5f                   	pop    %edi
80107b7b:	5d                   	pop    %ebp
80107b7c:	c3                   	ret
80107b7d:	8d 76 00             	lea    0x0(%esi),%esi

80107b80 <drawStringWithMaxWidth>:

void drawStringWithMaxWidth(RGB *buf, int x, int y, int width, char *str,
			    RGBA color) {
80107b80:	55                   	push   %ebp
80107b81:	89 e5                	mov    %esp,%ebp
80107b83:	57                   	push   %edi
80107b84:	56                   	push   %esi
80107b85:	53                   	push   %ebx
80107b86:	83 ec 0c             	sub    $0xc,%esp
80107b89:	8b 75 18             	mov    0x18(%ebp),%esi
80107b8c:	8b 5d 14             	mov    0x14(%ebp),%ebx
	int offset_x = 0;
	while (*str != '\0' && offset_x + CHARACTER_WIDTH <= width) {
80107b8f:	0f be 06             	movsbl (%esi),%eax
80107b92:	84 c0                	test   %al,%al
80107b94:	74 40                	je     80107bd6 <drawStringWithMaxWidth+0x56>
80107b96:	83 fb 09             	cmp    $0x9,%ebx
80107b99:	7e 3b                	jle    80107bd6 <drawStringWithMaxWidth+0x56>
	int offset_x = 0;
80107b9b:	89 de                	mov    %ebx,%esi
80107b9d:	31 ff                	xor    %edi,%edi
80107b9f:	8b 5d 18             	mov    0x18(%ebp),%ebx
80107ba2:	eb 0b                	jmp    80107baf <drawStringWithMaxWidth+0x2f>
80107ba4:	8d 74 26 00          	lea    0x0(%esi,%eiz,1),%esi
	while (*str != '\0' && offset_x + CHARACTER_WIDTH <= width) {
80107ba8:	8d 4f 09             	lea    0x9(%edi),%ecx
80107bab:	39 f1                	cmp    %esi,%ecx
80107bad:	7d 27                	jge    80107bd6 <drawStringWithMaxWidth+0x56>
		offset_x += drawCharacter(buf, x + offset_x, y, *str, color);
80107baf:	83 ec 0c             	sub    $0xc,%esp
80107bb2:	ff 75 1c             	push   0x1c(%ebp)
		str++;
80107bb5:	83 c3 01             	add    $0x1,%ebx
		offset_x += drawCharacter(buf, x + offset_x, y, *str, color);
80107bb8:	50                   	push   %eax
80107bb9:	ff 75 10             	push   0x10(%ebp)
80107bbc:	8b 45 0c             	mov    0xc(%ebp),%eax
80107bbf:	01 f8                	add    %edi,%eax
80107bc1:	50                   	push   %eax
80107bc2:	ff 75 08             	push   0x8(%ebp)
80107bc5:	e8 a6 fd ff ff       	call   80107970 <drawCharacter>
	while (*str != '\0' && offset_x + CHARACTER_WIDTH <= width) {
80107bca:	83 c4 20             	add    $0x20,%esp
		offset_x += drawCharacter(buf, x + offset_x, y, *str, color);
80107bcd:	01 c7                	add    %eax,%edi
	while (*str != '\0' && offset_x + CHARACTER_WIDTH <= width) {
80107bcf:	0f be 03             	movsbl (%ebx),%eax
80107bd2:	84 c0                	test   %al,%al
80107bd4:	75 d2                	jne    80107ba8 <drawStringWithMaxWidth+0x28>
	}
}
80107bd6:	8d 65 f4             	lea    -0xc(%ebp),%esp
80107bd9:	5b                   	pop    %ebx
80107bda:	5e                   	pop    %esi
80107bdb:	5f                   	pop    %edi
80107bdc:	5d                   	pop    %ebp
80107bdd:	c3                   	ret
80107bde:	66 90                	xchg   %ax,%ax

80107be0 <drawImage>:

void drawImage(RGB *buf, RGBA *img, int x, int y, int width, int height,
	       int max_x, int max_y) {
80107be0:	55                   	push   %ebp
80107be1:	89 e5                	mov    %esp,%ebp
80107be3:	57                   	push   %edi
80107be4:	56                   	push   %esi
80107be5:	53                   	push   %ebx
80107be6:	83 ec 20             	sub    $0x20,%esp
80107be9:	8b 45 1c             	mov    0x1c(%ebp),%eax
80107bec:	8b 55 14             	mov    0x14(%ebp),%edx
	int i, j;
	RGB *t;
	RGBA *o;
	for (i = 0; i < height; i++) {
80107bef:	85 c0                	test   %eax,%eax
80107bf1:	0f 8e 39 01 00 00    	jle    80107d30 <drawImage+0x150>
		if (y + i >= max_y)
80107bf7:	3b 55 24             	cmp    0x24(%ebp),%edx
80107bfa:	0f 8d 30 01 00 00    	jge    80107d30 <drawImage+0x150>
80107c00:	8b 75 18             	mov    0x18(%ebp),%esi
80107c03:	89 d7                	mov    %edx,%edi
80107c05:	8b 5d 0c             	mov    0xc(%ebp),%ebx
80107c08:	89 55 ec             	mov    %edx,-0x14(%ebp)
80107c0b:	8d 7c 07 ff          	lea    -0x1(%edi,%eax,1),%edi
80107c0f:	8d 14 b5 00 00 00 00 	lea    0x0(,%esi,4),%edx
80107c16:	89 7d dc             	mov    %edi,-0x24(%ebp)
80107c19:	89 d6                	mov    %edx,%esi
80107c1b:	0f af d0             	imul   %eax,%edx
80107c1e:	f7 de                	neg    %esi
80107c20:	89 75 d8             	mov    %esi,-0x28(%ebp)
80107c23:	01 d3                	add    %edx,%ebx
80107c25:	8d 76 00             	lea    0x0(%esi),%esi
			break;
		if (y + i < 0)
80107c28:	8b 55 ec             	mov    -0x14(%ebp),%edx
80107c2b:	85 d2                	test   %edx,%edx
80107c2d:	0f 88 e0 00 00 00    	js     80107d13 <drawImage+0x133>
			continue;
		for (j = 0; j < width; j++) {
80107c33:	8b 45 18             	mov    0x18(%ebp),%eax
80107c36:	85 c0                	test   %eax,%eax
80107c38:	0f 8e d5 00 00 00    	jle    80107d13 <drawImage+0x133>
			if (x + j >= max_x)
80107c3e:	8b 45 20             	mov    0x20(%ebp),%eax
80107c41:	39 45 10             	cmp    %eax,0x10(%ebp)
80107c44:	0f 8d c9 00 00 00    	jge    80107d13 <drawImage+0x133>
80107c4a:	2b 45 10             	sub    0x10(%ebp),%eax
80107c4d:	89 5d d4             	mov    %ebx,-0x2c(%ebp)
80107c50:	89 de                	mov    %ebx,%esi
		for (j = 0; j < width; j++) {
80107c52:	31 ff                	xor    %edi,%edi
80107c54:	89 45 e8             	mov    %eax,-0x18(%ebp)
80107c57:	eb 70                	jmp    80107cc9 <drawImage+0xe9>
80107c59:	8d b4 26 00 00 00 00 	lea    0x0(%esi,%eiz,1),%esi
	if (origin.A == 0) {
80107c60:	84 db                	test   %bl,%bl
80107c62:	74 53                	je     80107cb7 <drawImage+0xd7>
	inv_alpha = 255 - alpha;
80107c64:	b8 ff 00 00 00       	mov    $0xff,%eax
80107c69:	89 5d e0             	mov    %ebx,-0x20(%ebp)
80107c6c:	29 d8                	sub    %ebx,%eax
	color->R = (color->R * inv_alpha + origin.R * alpha) >> 8;
80107c6e:	8b 5d f0             	mov    -0x10(%ebp),%ebx
80107c71:	89 45 e4             	mov    %eax,-0x1c(%ebp)
80107c74:	0f b6 5b 02          	movzbl 0x2(%ebx),%ebx
80107c78:	0f af d8             	imul   %eax,%ebx
80107c7b:	8b 45 e0             	mov    -0x20(%ebp),%eax
80107c7e:	0f af c8             	imul   %eax,%ecx
80107c81:	01 cb                	add    %ecx,%ebx
80107c83:	8b 4d f0             	mov    -0x10(%ebp),%ecx
80107c86:	88 79 02             	mov    %bh,0x2(%ecx)
	color->G = (color->G * inv_alpha + origin.G * alpha) >> 8;
80107c89:	0f b6 49 01          	movzbl 0x1(%ecx),%ecx
80107c8d:	8b 5d e4             	mov    -0x1c(%ebp),%ebx
80107c90:	0f af cb             	imul   %ebx,%ecx
80107c93:	0f b6 de             	movzbl %dh,%ebx
	color->B = (color->B * inv_alpha + origin.B * alpha) >> 8;
80107c96:	0f b6 d2             	movzbl %dl,%edx
	color->G = (color->G * inv_alpha + origin.G * alpha) >> 8;
80107c99:	0f af d8             	imul   %eax,%ebx
	color->B = (color->B * inv_alpha + origin.B * alpha) >> 8;
80107c9c:	0f af d0             	imul   %eax,%edx
80107c9f:	8b 45 f0             	mov    -0x10(%ebp),%eax
	color->G = (color->G * inv_alpha + origin.G * alpha) >> 8;
80107ca2:	01 d9                	add    %ebx,%ecx
80107ca4:	8b 5d f0             	mov    -0x10(%ebp),%ebx
80107ca7:	88 6b 01             	mov    %ch,0x1(%ebx)
	color->B = (color->B * inv_alpha + origin.B * alpha) >> 8;
80107caa:	0f b6 0b             	movzbl (%ebx),%ecx
80107cad:	8b 5d e4             	mov    -0x1c(%ebp),%ebx
80107cb0:	0f af cb             	imul   %ebx,%ecx
80107cb3:	01 d1                	add    %edx,%ecx
80107cb5:	88 28                	mov    %ch,(%eax)
		for (j = 0; j < width; j++) {
80107cb7:	83 c7 01             	add    $0x1,%edi
80107cba:	39 7d 18             	cmp    %edi,0x18(%ebp)
80107cbd:	74 51                	je     80107d10 <drawImage+0x130>
			if (x + j >= max_x)
80107cbf:	8b 45 e8             	mov    -0x18(%ebp),%eax
80107cc2:	83 c6 04             	add    $0x4,%esi
80107cc5:	39 c7                	cmp    %eax,%edi
80107cc7:	74 47                	je     80107d10 <drawImage+0x130>
				break;
			if (x + j < 0)
80107cc9:	89 f8                	mov    %edi,%eax
80107ccb:	03 45 10             	add    0x10(%ebp),%eax
80107cce:	78 e7                	js     80107cb7 <drawImage+0xd7>
				continue;

			t = buf + (y + i) * SCREEN_WIDTH + x + j;
80107cd0:	8b 55 ec             	mov    -0x14(%ebp),%edx
80107cd3:	0f b7 05 d6 9c 13 80 	movzwl 0x80139cd6,%eax
80107cda:	0f b6 1e             	movzbl (%esi),%ebx
80107cdd:	0f b6 4e 03          	movzbl 0x3(%esi),%ecx
80107ce1:	0f af c2             	imul   %edx,%eax
80107ce4:	03 45 10             	add    0x10(%ebp),%eax
80107ce7:	0f b7 56 01          	movzwl 0x1(%esi),%edx
80107ceb:	01 f8                	add    %edi,%eax
80107ced:	8d 04 40             	lea    (%eax,%eax,2),%eax
80107cf0:	03 45 08             	add    0x8(%ebp),%eax
80107cf3:	89 45 f0             	mov    %eax,-0x10(%ebp)
	if (origin.A == 255) {
80107cf6:	80 fb ff             	cmp    $0xff,%bl
80107cf9:	0f 85 61 ff ff ff    	jne    80107c60 <drawImage+0x80>
		color->R = origin.R;
80107cff:	88 48 02             	mov    %cl,0x2(%eax)
		for (j = 0; j < width; j++) {
80107d02:	83 c7 01             	add    $0x1,%edi
		color->B = origin.B;
80107d05:	66 89 10             	mov    %dx,(%eax)
		for (j = 0; j < width; j++) {
80107d08:	39 7d 18             	cmp    %edi,0x18(%ebp)
80107d0b:	75 b2                	jne    80107cbf <drawImage+0xdf>
80107d0d:	8d 76 00             	lea    0x0(%esi),%esi
80107d10:	8b 5d d4             	mov    -0x2c(%ebp),%ebx
	for (i = 0; i < height; i++) {
80107d13:	8b 75 ec             	mov    -0x14(%ebp),%esi
80107d16:	39 75 dc             	cmp    %esi,-0x24(%ebp)
80107d19:	74 15                	je     80107d30 <drawImage+0x150>
		if (y + i >= max_y)
80107d1b:	8b 75 d8             	mov    -0x28(%ebp),%esi
80107d1e:	83 45 ec 01          	addl   $0x1,-0x14(%ebp)
80107d22:	8b 45 ec             	mov    -0x14(%ebp),%eax
80107d25:	01 f3                	add    %esi,%ebx
80107d27:	39 45 24             	cmp    %eax,0x24(%ebp)
80107d2a:	0f 85 f8 fe ff ff    	jne    80107c28 <drawImage+0x48>
			o = img + (height - i) * width + j;
			drawPointAlpha(t, *o);
		}
	}
}
80107d30:	83 c4 20             	add    $0x20,%esp
80107d33:	5b                   	pop    %ebx
80107d34:	5e                   	pop    %esi
80107d35:	5f                   	pop    %edi
80107d36:	5d                   	pop    %ebp
80107d37:	c3                   	ret
80107d38:	2e 8d b4 26 00 00 00 	lea    %cs:0x0(%esi,%eiz,1),%esi
80107d3f:	00 

80107d40 <draw24Image>:

void draw24Image(RGB *buf, RGB *img, int x, int y, int width, int height,
		 int max_x, int max_y) {
80107d40:	55                   	push   %ebp
80107d41:	89 e5                	mov    %esp,%ebp
80107d43:	57                   	push   %edi
80107d44:	56                   	push   %esi
80107d45:	53                   	push   %ebx
80107d46:	83 ec 1c             	sub    $0x1c,%esp
80107d49:	8b 45 18             	mov    0x18(%ebp),%eax
	int i;
	RGB *t;
	RGB *o;
	int max_line = (max_x - x) < width ? (max_x - x) : width;
80107d4c:	8b 55 20             	mov    0x20(%ebp),%edx
		 int max_x, int max_y) {
80107d4f:	8b 7d 1c             	mov    0x1c(%ebp),%edi
	int max_line = (max_x - x) < width ? (max_x - x) : width;
80107d52:	2b 55 10             	sub    0x10(%ebp),%edx
80107d55:	39 c2                	cmp    %eax,%edx
		 int max_x, int max_y) {
80107d57:	8b 4d 14             	mov    0x14(%ebp),%ecx
	int max_line = (max_x - x) < width ? (max_x - x) : width;
80107d5a:	0f 4f d0             	cmovg  %eax,%edx
	for (i = 0; i < height; i++) {
80107d5d:	85 ff                	test   %edi,%edi
80107d5f:	7e 67                	jle    80107dc8 <draw24Image+0x88>
		if (y + i >= max_y)
80107d61:	3b 4d 24             	cmp    0x24(%ebp),%ecx
80107d64:	7d 62                	jge    80107dc8 <draw24Image+0x88>
80107d66:	8d 1c 40             	lea    (%eax,%eax,2),%ebx
80107d69:	89 ce                	mov    %ecx,%esi
		if (y + i < 0)
			continue;

		t = buf + (y + i) * SCREEN_WIDTH + x;
		o = img + (height - i) * width;
		memmove(t, o, max_line * 3);
80107d6b:	8d 14 52             	lea    (%edx,%edx,2),%edx
80107d6e:	0f af c7             	imul   %edi,%eax
80107d71:	f7 db                	neg    %ebx
80107d73:	8d 7c 3e ff          	lea    -0x1(%esi,%edi,1),%edi
80107d77:	89 55 e0             	mov    %edx,-0x20(%ebp)
80107d7a:	89 5d e4             	mov    %ebx,-0x1c(%ebp)
80107d7d:	89 f3                	mov    %esi,%ebx
80107d7f:	8d 0c 40             	lea    (%eax,%eax,2),%ecx
80107d82:	03 4d 0c             	add    0xc(%ebp),%ecx
80107d85:	89 ce                	mov    %ecx,%esi
80107d87:	eb 14                	jmp    80107d9d <draw24Image+0x5d>
80107d89:	8d b4 26 00 00 00 00 	lea    0x0(%esi,%eiz,1),%esi
		if (y + i >= max_y)
80107d90:	8b 45 e4             	mov    -0x1c(%ebp),%eax
80107d93:	83 c3 01             	add    $0x1,%ebx
80107d96:	01 c6                	add    %eax,%esi
80107d98:	3b 5d 24             	cmp    0x24(%ebp),%ebx
80107d9b:	74 2b                	je     80107dc8 <draw24Image+0x88>
		if (y + i < 0)
80107d9d:	85 db                	test   %ebx,%ebx
80107d9f:	78 23                	js     80107dc4 <draw24Image+0x84>
		memmove(t, o, max_line * 3);
80107da1:	83 ec 04             	sub    $0x4,%esp
80107da4:	ff 75 e0             	push   -0x20(%ebp)
80107da7:	56                   	push   %esi
		t = buf + (y + i) * SCREEN_WIDTH + x;
80107da8:	0f b7 05 d6 9c 13 80 	movzwl 0x80139cd6,%eax
80107daf:	0f af c3             	imul   %ebx,%eax
80107db2:	03 45 10             	add    0x10(%ebp),%eax
80107db5:	8d 04 40             	lea    (%eax,%eax,2),%eax
80107db8:	03 45 08             	add    0x8(%ebp),%eax
		memmove(t, o, max_line * 3);
80107dbb:	50                   	push   %eax
80107dbc:	e8 3f d9 ff ff       	call   80105700 <memmove>
80107dc1:	83 c4 10             	add    $0x10,%esp
	for (i = 0; i < height; i++) {
80107dc4:	39 fb                	cmp    %edi,%ebx
80107dc6:	75 c8                	jne    80107d90 <draw24Image+0x50>
	}
}
80107dc8:	8d 65 f4             	lea    -0xc(%ebp),%esp
80107dcb:	5b                   	pop    %ebx
80107dcc:	5e                   	pop    %esi
80107dcd:	5f                   	pop    %edi
80107dce:	5d                   	pop    %ebp
80107dcf:	c3                   	ret

80107dd0 <draw24ImagePart>:

void draw24ImagePart(RGB *buf, RGB *img, int x, int y, int width, int height,
		     int subx, int suby, int subw, int subh) {
80107dd0:	55                   	push   %ebp
80107dd1:	89 e5                	mov    %esp,%ebp
80107dd3:	57                   	push   %edi
80107dd4:	56                   	push   %esi
80107dd5:	53                   	push   %ebx
80107dd6:	83 ec 1c             	sub    $0x1c,%esp
80107dd9:	8b 5d 10             	mov    0x10(%ebp),%ebx
	if (x >= SCREEN_WIDTH || y >= SCREEN_HEIGHT)
80107ddc:	0f b7 0d d6 9c 13 80 	movzwl 0x80139cd6,%ecx
		     int subx, int suby, int subw, int subh) {
80107de3:	8b 55 28             	mov    0x28(%ebp),%edx
	if (x >= SCREEN_WIDTH || y >= SCREEN_HEIGHT)
80107de6:	39 d9                	cmp    %ebx,%ecx
80107de8:	0f 8e aa 00 00 00    	jle    80107e98 <draw24ImagePart+0xc8>
80107dee:	0f b7 05 d4 9c 13 80 	movzwl 0x80139cd4,%eax
80107df5:	3b 45 14             	cmp    0x14(%ebp),%eax
80107df8:	0f 8e 9a 00 00 00    	jle    80107e98 <draw24ImagePart+0xc8>
		return;

	int minj = x < 0 ? -x : 0;
80107dfe:	89 d8                	mov    %ebx,%eax
80107e00:	31 f6                	xor    %esi,%esi
	int maxj = x + subw > SCREEN_WIDTH ? SCREEN_WIDTH - x : subw;
80107e02:	8d 3c 13             	lea    (%ebx,%edx,1),%edi
	int minj = x < 0 ? -x : 0;
80107e05:	f7 d8                	neg    %eax
80107e07:	85 db                	test   %ebx,%ebx
80107e09:	0f 49 c6             	cmovns %esi,%eax
	int maxj = x + subw > SCREEN_WIDTH ? SCREEN_WIDTH - x : subw;
80107e0c:	89 ce                	mov    %ecx,%esi
80107e0e:	29 de                	sub    %ebx,%esi
80107e10:	39 f9                	cmp    %edi,%ecx
80107e12:	0f 4c d6             	cmovl  %esi,%edx
	if (minj >= maxj)
80107e15:	39 d0                	cmp    %edx,%eax
80107e17:	7d 7f                	jge    80107e98 <draw24ImagePart+0xc8>
		return;

	int i;
	RGB *t;
	RGB *o;
	for (i = 0; i < subh; i++) {
80107e19:	8b 4d 2c             	mov    0x2c(%ebp),%ecx
80107e1c:	85 c9                	test   %ecx,%ecx
80107e1e:	7e 78                	jle    80107e98 <draw24ImagePart+0xc8>
		if (y + i >= SCREEN_HEIGHT)
			break;

		t = buf + (y + i) * SCREEN_WIDTH + minj + x;
		o = img + (i + suby) * width + subx + minj;
		memmove(t, o, (maxj - minj) * 3);
80107e20:	29 c2                	sub    %eax,%edx
80107e22:	8b 4d 24             	mov    0x24(%ebp),%ecx
80107e25:	8b 75 14             	mov    0x14(%ebp),%esi
		t = buf + (y + i) * SCREEN_WIDTH + minj + x;
80107e28:	01 c3                	add    %eax,%ebx
		memmove(t, o, (maxj - minj) * 3);
80107e2a:	8d 3c 52             	lea    (%edx,%edx,2),%edi
		t = buf + (y + i) * SCREEN_WIDTH + minj + x;
80107e2d:	89 5d dc             	mov    %ebx,-0x24(%ebp)
		memmove(t, o, (maxj - minj) * 3);
80107e30:	89 7d e0             	mov    %edi,-0x20(%ebp)
80107e33:	8b 7d 18             	mov    0x18(%ebp),%edi
		t = buf + (y + i) * SCREEN_WIDTH + minj + x;
80107e36:	89 f3                	mov    %esi,%ebx
80107e38:	0f af cf             	imul   %edi,%ecx
80107e3b:	03 4d 20             	add    0x20(%ebp),%ecx
80107e3e:	8d 14 7f             	lea    (%edi,%edi,2),%edx
80107e41:	01 c1                	add    %eax,%ecx
80107e43:	8d 0c 49             	lea    (%ecx,%ecx,2),%ecx
80107e46:	03 4d 0c             	add    0xc(%ebp),%ecx
80107e49:	89 cf                	mov    %ecx,%edi
80107e4b:	8b 4d 2c             	mov    0x2c(%ebp),%ecx
80107e4e:	01 f1                	add    %esi,%ecx
80107e50:	89 d6                	mov    %edx,%esi
80107e52:	89 4d e4             	mov    %ecx,-0x1c(%ebp)
80107e55:	8d 76 00             	lea    0x0(%esi),%esi
		if (y + i < 0)
80107e58:	85 db                	test   %ebx,%ebx
80107e5a:	78 30                	js     80107e8c <draw24ImagePart+0xbc>
		if (y + i >= SCREEN_HEIGHT)
80107e5c:	0f b7 05 d4 9c 13 80 	movzwl 0x80139cd4,%eax
80107e63:	39 c3                	cmp    %eax,%ebx
80107e65:	7d 31                	jge    80107e98 <draw24ImagePart+0xc8>
		memmove(t, o, (maxj - minj) * 3);
80107e67:	83 ec 04             	sub    $0x4,%esp
80107e6a:	ff 75 e0             	push   -0x20(%ebp)
80107e6d:	57                   	push   %edi
		t = buf + (y + i) * SCREEN_WIDTH + minj + x;
80107e6e:	0f b7 05 d6 9c 13 80 	movzwl 0x80139cd6,%eax
80107e75:	8b 55 dc             	mov    -0x24(%ebp),%edx
80107e78:	0f af c3             	imul   %ebx,%eax
80107e7b:	01 d0                	add    %edx,%eax
80107e7d:	8d 04 40             	lea    (%eax,%eax,2),%eax
80107e80:	03 45 08             	add    0x8(%ebp),%eax
		memmove(t, o, (maxj - minj) * 3);
80107e83:	50                   	push   %eax
80107e84:	e8 77 d8 ff ff       	call   80105700 <memmove>
80107e89:	83 c4 10             	add    $0x10,%esp
	for (i = 0; i < subh; i++) {
80107e8c:	8b 45 e4             	mov    -0x1c(%ebp),%eax
80107e8f:	83 c3 01             	add    $0x1,%ebx
80107e92:	01 f7                	add    %esi,%edi
80107e94:	39 c3                	cmp    %eax,%ebx
80107e96:	75 c0                	jne    80107e58 <draw24ImagePart+0x88>
	}
}
80107e98:	8d 65 f4             	lea    -0xc(%ebp),%esp
80107e9b:	5b                   	pop    %ebx
80107e9c:	5e                   	pop    %esi
80107e9d:	5f                   	pop    %edi
80107e9e:	5d                   	pop    %ebp
80107e9f:	c3                   	ret

80107ea0 <drawRectBound>:

void drawRectBound(RGB *buf, int x, int y, int width, int height, RGBA fill,
		   int max_x, int max_y) {
80107ea0:	55                   	push   %ebp
80107ea1:	89 e5                	mov    %esp,%ebp
80107ea3:	57                   	push   %edi
80107ea4:	56                   	push   %esi
80107ea5:	53                   	push   %ebx
80107ea6:	83 ec 1c             	sub    $0x1c,%esp
80107ea9:	8b 5d 0c             	mov    0xc(%ebp),%ebx
80107eac:	8b 7d 10             	mov    0x10(%ebp),%edi
	int i, j;
	RGB *t;

	if (x >= max_x || y >= max_y || x + width <= 0 || y + height <= 0)
80107eaf:	3b 5d 20             	cmp    0x20(%ebp),%ebx
80107eb2:	0f 8d bc 00 00 00    	jge    80107f74 <drawRectBound+0xd4>
80107eb8:	3b 7d 24             	cmp    0x24(%ebp),%edi
80107ebb:	0f 8d b3 00 00 00    	jge    80107f74 <drawRectBound+0xd4>
80107ec1:	8b 75 14             	mov    0x14(%ebp),%esi
80107ec4:	01 de                	add    %ebx,%esi
80107ec6:	85 f6                	test   %esi,%esi
80107ec8:	0f 8e a6 00 00 00    	jle    80107f74 <drawRectBound+0xd4>
80107ece:	8b 45 18             	mov    0x18(%ebp),%eax
80107ed1:	01 f8                	add    %edi,%eax
80107ed3:	89 45 f0             	mov    %eax,-0x10(%ebp)
80107ed6:	85 c0                	test   %eax,%eax
80107ed8:	0f 8e 96 00 00 00    	jle    80107f74 <drawRectBound+0xd4>
		return;

	int start_x = x < 0 ? 0 : x;
80107ede:	8b 55 1c             	mov    0x1c(%ebp),%edx
80107ee1:	31 c9                	xor    %ecx,%ecx
80107ee3:	0f b6 45 1c          	movzbl 0x1c(%ebp),%eax
80107ee7:	c1 ea 08             	shr    $0x8,%edx
80107eea:	89 55 e8             	mov    %edx,-0x18(%ebp)
80107eed:	66 89 55 e4          	mov    %dx,-0x1c(%ebp)
80107ef1:	8b 55 1c             	mov    0x1c(%ebp),%edx
80107ef4:	c1 ea 18             	shr    $0x18,%edx
80107ef7:	85 db                	test   %ebx,%ebx
80107ef9:	0f 48 d9             	cmovs  %ecx,%ebx
80107efc:	89 55 ec             	mov    %edx,-0x14(%ebp)
80107eff:	89 5d d8             	mov    %ebx,-0x28(%ebp)
	int start_y = y < 0 ? 0 : y;
80107f02:	31 db                	xor    %ebx,%ebx
80107f04:	85 ff                	test   %edi,%edi
80107f06:	0f 48 fb             	cmovs  %ebx,%edi
	int end_x = (x + width > max_x) ? max_x : x + width;
	int end_y = (y + height > max_y) ? max_y : y + height;
80107f09:	8b 5d f0             	mov    -0x10(%ebp),%ebx
	int end_x = (x + width > max_x) ? max_x : x + width;
80107f0c:	3b 75 20             	cmp    0x20(%ebp),%esi
80107f0f:	0f 4f 75 20          	cmovg  0x20(%ebp),%esi
	int end_y = (y + height > max_y) ? max_y : y + height;
80107f13:	3b 5d 24             	cmp    0x24(%ebp),%ebx
80107f16:	0f 4f 5d 24          	cmovg  0x24(%ebp),%ebx
80107f1a:	89 5d dc             	mov    %ebx,-0x24(%ebp)

	if (fill.A == 255) {
80107f1d:	3c ff                	cmp    $0xff,%al
80107f1f:	0f 84 bb 00 00 00    	je     80107fe0 <drawRectBound+0x140>
			}
		}
		return;
	}

	for (i = start_y; i < end_y; i++) {
80107f25:	39 df                	cmp    %ebx,%edi
80107f27:	7d 4b                	jge    80107f74 <drawRectBound+0xd4>
	color->R = (color->R * inv_alpha + origin.R * alpha) >> 8;
80107f29:	8b 4d ec             	mov    -0x14(%ebp),%ecx
	alpha = origin.A;
80107f2c:	0f b6 d0             	movzbl %al,%edx
	color->G = (color->G * inv_alpha + origin.G * alpha) >> 8;
80107f2f:	8b 5d e8             	mov    -0x18(%ebp),%ebx
	color->R = (color->R * inv_alpha + origin.R * alpha) >> 8;
80107f32:	0f af ca             	imul   %edx,%ecx
80107f35:	89 4d ec             	mov    %ecx,-0x14(%ebp)
	color->G = (color->G * inv_alpha + origin.G * alpha) >> 8;
80107f38:	0f b6 cf             	movzbl %bh,%ecx
80107f3b:	0f af ca             	imul   %edx,%ecx
80107f3e:	89 4d e8             	mov    %ecx,-0x18(%ebp)
	color->B = (color->B * inv_alpha + origin.B * alpha) >> 8;
80107f41:	0f b6 cb             	movzbl %bl,%ecx
	inv_alpha = 255 - alpha;
80107f44:	bb ff 00 00 00       	mov    $0xff,%ebx
	color->B = (color->B * inv_alpha + origin.B * alpha) >> 8;
80107f49:	0f af ca             	imul   %edx,%ecx
	inv_alpha = 255 - alpha;
80107f4c:	29 d3                	sub    %edx,%ebx
	color->B = (color->B * inv_alpha + origin.B * alpha) >> 8;
80107f4e:	89 4d e4             	mov    %ecx,-0x1c(%ebp)
80107f51:	8d b4 26 00 00 00 00 	lea    0x0(%esi,%eiz,1),%esi
		for (j = start_x; j < end_x; j++) {
80107f58:	8b 4d d8             	mov    -0x28(%ebp),%ecx
80107f5b:	89 ca                	mov    %ecx,%edx
80107f5d:	39 f1                	cmp    %esi,%ecx
80107f5f:	7d 0b                	jge    80107f6c <drawRectBound+0xcc>
	if (origin.A == 0) {
80107f61:	84 c0                	test   %al,%al
80107f63:	75 1b                	jne    80107f80 <drawRectBound+0xe0>
		for (j = start_x; j < end_x; j++) {
80107f65:	83 c2 01             	add    $0x1,%edx
80107f68:	39 d6                	cmp    %edx,%esi
80107f6a:	75 f9                	jne    80107f65 <drawRectBound+0xc5>
	for (i = start_y; i < end_y; i++) {
80107f6c:	83 c7 01             	add    $0x1,%edi
80107f6f:	39 7d dc             	cmp    %edi,-0x24(%ebp)
80107f72:	75 e4                	jne    80107f58 <drawRectBound+0xb8>
			t = buf + i * SCREEN_WIDTH + j;
			drawPointAlpha(t, fill);
		}
	}
}
80107f74:	83 c4 1c             	add    $0x1c,%esp
80107f77:	5b                   	pop    %ebx
80107f78:	5e                   	pop    %esi
80107f79:	5f                   	pop    %edi
80107f7a:	5d                   	pop    %ebp
80107f7b:	c3                   	ret
80107f7c:	8d 74 26 00          	lea    0x0(%esi,%eiz,1),%esi
80107f80:	89 75 f0             	mov    %esi,-0x10(%ebp)
80107f83:	88 45 e3             	mov    %al,-0x1d(%ebp)
			t = buf + i * SCREEN_WIDTH + j;
80107f86:	0f b7 05 d6 9c 13 80 	movzwl 0x80139cd6,%eax
	color->R = (color->R * inv_alpha + origin.R * alpha) >> 8;
80107f8d:	8b 75 ec             	mov    -0x14(%ebp),%esi
			t = buf + i * SCREEN_WIDTH + j;
80107f90:	0f af c7             	imul   %edi,%eax
80107f93:	01 d0                	add    %edx,%eax
		for (j = start_x; j < end_x; j++) {
80107f95:	83 c2 01             	add    $0x1,%edx
			t = buf + i * SCREEN_WIDTH + j;
80107f98:	8d 04 40             	lea    (%eax,%eax,2),%eax
80107f9b:	03 45 08             	add    0x8(%ebp),%eax
	color->R = (color->R * inv_alpha + origin.R * alpha) >> 8;
80107f9e:	0f b6 48 02          	movzbl 0x2(%eax),%ecx
80107fa2:	0f af cb             	imul   %ebx,%ecx
80107fa5:	01 f1                	add    %esi,%ecx
	color->G = (color->G * inv_alpha + origin.G * alpha) >> 8;
80107fa7:	8b 75 e8             	mov    -0x18(%ebp),%esi
	color->R = (color->R * inv_alpha + origin.R * alpha) >> 8;
80107faa:	88 68 02             	mov    %ch,0x2(%eax)
	color->G = (color->G * inv_alpha + origin.G * alpha) >> 8;
80107fad:	0f b6 48 01          	movzbl 0x1(%eax),%ecx
80107fb1:	0f af cb             	imul   %ebx,%ecx
80107fb4:	01 f1                	add    %esi,%ecx
	color->B = (color->B * inv_alpha + origin.B * alpha) >> 8;
80107fb6:	8b 75 e4             	mov    -0x1c(%ebp),%esi
	color->G = (color->G * inv_alpha + origin.G * alpha) >> 8;
80107fb9:	88 68 01             	mov    %ch,0x1(%eax)
	color->B = (color->B * inv_alpha + origin.B * alpha) >> 8;
80107fbc:	0f b6 08             	movzbl (%eax),%ecx
80107fbf:	0f af cb             	imul   %ebx,%ecx
80107fc2:	01 f1                	add    %esi,%ecx
80107fc4:	88 28                	mov    %ch,(%eax)
		for (j = start_x; j < end_x; j++) {
80107fc6:	39 55 f0             	cmp    %edx,-0x10(%ebp)
80107fc9:	75 bb                	jne    80107f86 <drawRectBound+0xe6>
80107fcb:	8b 75 f0             	mov    -0x10(%ebp),%esi
80107fce:	0f b6 45 e3          	movzbl -0x1d(%ebp),%eax
	for (i = start_y; i < end_y; i++) {
80107fd2:	83 c7 01             	add    $0x1,%edi
80107fd5:	39 7d dc             	cmp    %edi,-0x24(%ebp)
80107fd8:	0f 85 7a ff ff ff    	jne    80107f58 <drawRectBound+0xb8>
80107fde:	eb 94                	jmp    80107f74 <drawRectBound+0xd4>
		for (i = start_y; i < end_y; i++) {
80107fe0:	8b 45 dc             	mov    -0x24(%ebp),%eax
80107fe3:	39 c7                	cmp    %eax,%edi
80107fe5:	7d 8d                	jge    80107f74 <drawRectBound+0xd4>
80107fe7:	8b 5d d8             	mov    -0x28(%ebp),%ebx
80107fea:	89 f0                	mov    %esi,%eax
80107fec:	0f b7 4d e4          	movzwl -0x1c(%ebp),%ecx
80107ff0:	88 55 f0             	mov    %dl,-0x10(%ebp)
80107ff3:	89 75 e8             	mov    %esi,-0x18(%ebp)
80107ff6:	29 d8                	sub    %ebx,%eax
80107ff8:	89 de                	mov    %ebx,%esi
80107ffa:	8d 04 40             	lea    (%eax,%eax,2),%eax
80107ffd:	89 45 ec             	mov    %eax,-0x14(%ebp)
			t = buf + i * SCREEN_WIDTH + start_x;
80108000:	0f b7 05 d6 9c 13 80 	movzwl 0x80139cd6,%eax
80108007:	8b 5d ec             	mov    -0x14(%ebp),%ebx
			for (j = start_x; j < end_x; j++) {
8010800a:	8b 55 e8             	mov    -0x18(%ebp),%edx
			t = buf + i * SCREEN_WIDTH + start_x;
8010800d:	0f af c7             	imul   %edi,%eax
80108010:	01 f0                	add    %esi,%eax
80108012:	8d 04 40             	lea    (%eax,%eax,2),%eax
80108015:	03 45 08             	add    0x8(%ebp),%eax
			for (j = start_x; j < end_x; j++) {
80108018:	01 c3                	add    %eax,%ebx
8010801a:	39 d6                	cmp    %edx,%esi
8010801c:	7d 1b                	jge    80108039 <drawRectBound+0x199>
8010801e:	0f b6 55 f0          	movzbl -0x10(%ebp),%edx
80108022:	8d b6 00 00 00 00    	lea    0x0(%esi),%esi
				*t++ = solid_color;
80108028:	83 c0 03             	add    $0x3,%eax
8010802b:	66 89 48 fd          	mov    %cx,-0x3(%eax)
8010802f:	88 50 ff             	mov    %dl,-0x1(%eax)
			for (j = start_x; j < end_x; j++) {
80108032:	39 d8                	cmp    %ebx,%eax
80108034:	75 f2                	jne    80108028 <drawRectBound+0x188>
80108036:	88 55 f0             	mov    %dl,-0x10(%ebp)
		for (i = start_y; i < end_y; i++) {
80108039:	83 c7 01             	add    $0x1,%edi
8010803c:	39 7d dc             	cmp    %edi,-0x24(%ebp)
8010803f:	75 bf                	jne    80108000 <drawRectBound+0x160>
80108041:	e9 2e ff ff ff       	jmp    80107f74 <drawRectBound+0xd4>
80108046:	2e 8d b4 26 00 00 00 	lea    %cs:0x0(%esi,%eiz,1),%esi
8010804d:	00 
8010804e:	66 90                	xchg   %ax,%ax

80108050 <drawRectBorder>:

void drawRectBorder(RGB *buf, RGB color, int x, int y, int width, int height) {
80108050:	55                   	push   %ebp
80108051:	89 e5                	mov    %esp,%ebp
80108053:	57                   	push   %edi
80108054:	56                   	push   %esi
80108055:	53                   	push   %ebx
80108056:	83 ec 10             	sub    $0x10,%esp
	if (x >= SCREEN_WIDTH || x + width < 0 || y >= SCREEN_HEIGHT ||
80108059:	0f b7 05 d6 9c 13 80 	movzwl 0x80139cd6,%eax
80108060:	3b 45 10             	cmp    0x10(%ebp),%eax
80108063:	0f 8e 1e 01 00 00    	jle    80108187 <drawRectBorder+0x137>
80108069:	8b 75 10             	mov    0x10(%ebp),%esi
8010806c:	03 75 18             	add    0x18(%ebp),%esi
8010806f:	89 75 f0             	mov    %esi,-0x10(%ebp)
80108072:	0f 88 0f 01 00 00    	js     80108187 <drawRectBorder+0x137>
80108078:	0f b7 1d d4 9c 13 80 	movzwl 0x80139cd4,%ebx
8010807f:	3b 5d 14             	cmp    0x14(%ebp),%ebx
80108082:	0f 8e ff 00 00 00    	jle    80108187 <drawRectBorder+0x137>
80108088:	8b 55 18             	mov    0x18(%ebp),%edx
	    y + height < 0 || width < 0 || height < 0)
8010808b:	8b 7d 14             	mov    0x14(%ebp),%edi
8010808e:	03 7d 1c             	add    0x1c(%ebp),%edi
	if (x >= SCREEN_WIDTH || x + width < 0 || y >= SCREEN_HEIGHT ||
80108091:	09 fa                	or     %edi,%edx
80108093:	0b 55 1c             	or     0x1c(%ebp),%edx
	    y + height < 0 || width < 0 || height < 0)
80108096:	89 fe                	mov    %edi,%esi
	if (x >= SCREEN_WIDTH || x + width < 0 || y >= SCREEN_HEIGHT ||
80108098:	0f 88 e9 00 00 00    	js     80108187 <drawRectBorder+0x137>
		return;

	int i;
	RGB *t = buf + y * SCREEN_WIDTH + x;
8010809e:	8b 55 14             	mov    0x14(%ebp),%edx
801080a1:	8b 4d 10             	mov    0x10(%ebp),%ecx
801080a4:	8b 7d 08             	mov    0x8(%ebp),%edi
801080a7:	0f af d0             	imul   %eax,%edx
801080aa:	01 ca                	add    %ecx,%edx
801080ac:	8d 14 52             	lea    (%edx,%edx,2),%edx
801080af:	01 d7                	add    %edx,%edi

	if (y > 0) {
801080b1:	8b 55 14             	mov    0x14(%ebp),%edx
	RGB *t = buf + y * SCREEN_WIDTH + x;
801080b4:	89 7d ec             	mov    %edi,-0x14(%ebp)
	if (y > 0) {
801080b7:	85 d2                	test   %edx,%edx
801080b9:	0f 8e d1 00 00 00    	jle    80108190 <drawRectBorder+0x140>
		for (i = 0; i < width; i++) {
801080bf:	8b 55 18             	mov    0x18(%ebp),%edx
801080c2:	85 d2                	test   %edx,%edx
801080c4:	7e 40                	jle    80108106 <drawRectBorder+0xb6>
801080c6:	89 4d e4             	mov    %ecx,-0x1c(%ebp)
801080c9:	89 ca                	mov    %ecx,%edx
801080cb:	89 5d e8             	mov    %ebx,-0x18(%ebp)
801080ce:	8b 5d f0             	mov    -0x10(%ebp),%ebx
801080d1:	8d b4 26 00 00 00 00 	lea    0x0(%esi,%eiz,1),%esi
			if (x + i > 0 && x + i < SCREEN_WIDTH)
801080d8:	39 d0                	cmp    %edx,%eax
801080da:	7e 12                	jle    801080ee <drawRectBorder+0x9e>
801080dc:	85 d2                	test   %edx,%edx
801080de:	7e 0e                	jle    801080ee <drawRectBorder+0x9e>
				*(t + i) = color;
801080e0:	0f b7 4d 0c          	movzwl 0xc(%ebp),%ecx
801080e4:	66 89 0f             	mov    %cx,(%edi)
801080e7:	0f b6 4d 0e          	movzbl 0xe(%ebp),%ecx
801080eb:	88 4f 02             	mov    %cl,0x2(%edi)
		for (i = 0; i < width; i++) {
801080ee:	83 c2 01             	add    $0x1,%edx
801080f1:	83 c7 03             	add    $0x3,%edi
801080f4:	39 da                	cmp    %ebx,%edx
801080f6:	75 e0                	jne    801080d8 <drawRectBorder+0x88>
801080f8:	8b 5d e8             	mov    -0x18(%ebp),%ebx
801080fb:	8b 4d e4             	mov    -0x1c(%ebp),%ecx
		}
	}
	if (y + height < SCREEN_HEIGHT) {
801080fe:	39 f3                	cmp    %esi,%ebx
80108100:	0f 8f ba 00 00 00    	jg     801081c0 <drawRectBorder+0x170>
		for (i = 0; i < width; i++) {
			if (y > 0 && x + i > 0 && x + i < SCREEN_WIDTH)
				*(o + i) = color;
		}
	}
	if (x > 0) {
80108106:	8b 7d 10             	mov    0x10(%ebp),%edi
80108109:	85 ff                	test   %edi,%edi
8010810b:	0f 8e 9f 00 00 00    	jle    801081b0 <drawRectBorder+0x160>
		for (i = 0; i < height; i++) {
80108111:	8b 4d 1c             	mov    0x1c(%ebp),%ecx
80108114:	85 c9                	test   %ecx,%ecx
80108116:	7e 6f                	jle    80108187 <drawRectBorder+0x137>
80108118:	8b 55 14             	mov    0x14(%ebp),%edx
8010811b:	8b 4d ec             	mov    -0x14(%ebp),%ecx
8010811e:	89 45 e8             	mov    %eax,-0x18(%ebp)
80108121:	8d 3c 40             	lea    (%eax,%eax,2),%edi
80108124:	8d 74 26 00          	lea    0x0(%esi,%eiz,1),%esi
			if (y + i > 0 && y + i < SCREEN_HEIGHT)
80108128:	39 d3                	cmp    %edx,%ebx
8010812a:	7e 12                	jle    8010813e <drawRectBorder+0xee>
8010812c:	85 d2                	test   %edx,%edx
8010812e:	7e 0e                	jle    8010813e <drawRectBorder+0xee>
				*(t + i * SCREEN_WIDTH) = color;
80108130:	0f b7 45 0c          	movzwl 0xc(%ebp),%eax
80108134:	66 89 01             	mov    %ax,(%ecx)
80108137:	0f b6 45 0e          	movzbl 0xe(%ebp),%eax
8010813b:	88 41 02             	mov    %al,0x2(%ecx)
		for (i = 0; i < height; i++) {
8010813e:	83 c2 01             	add    $0x1,%edx
80108141:	01 f9                	add    %edi,%ecx
80108143:	39 f2                	cmp    %esi,%edx
80108145:	75 e1                	jne    80108128 <drawRectBorder+0xd8>
80108147:	8b 45 e8             	mov    -0x18(%ebp),%eax
		}
	}
	if (x + width < SCREEN_WIDTH) {
8010814a:	8b 4d f0             	mov    -0x10(%ebp),%ecx
8010814d:	39 c8                	cmp    %ecx,%eax
8010814f:	7e 36                	jle    80108187 <drawRectBorder+0x137>
80108151:	8b 4d 18             	mov    0x18(%ebp),%ecx
80108154:	8b 55 14             	mov    0x14(%ebp),%edx
80108157:	8d 04 40             	lea    (%eax,%eax,2),%eax
8010815a:	8d 3c 49             	lea    (%ecx,%ecx,2),%edi
8010815d:	8b 4d ec             	mov    -0x14(%ebp),%ecx
80108160:	01 f9                	add    %edi,%ecx
80108162:	89 cf                	mov    %ecx,%edi
80108164:	8d 74 26 00          	lea    0x0(%esi,%eiz,1),%esi
		RGB *o = t + width;
		for (i = 0; i < height; i++) {
			if (y + i > 0 && y + i < SCREEN_HEIGHT)
80108168:	39 d3                	cmp    %edx,%ebx
8010816a:	7e 12                	jle    8010817e <drawRectBorder+0x12e>
8010816c:	85 d2                	test   %edx,%edx
8010816e:	7e 0e                	jle    8010817e <drawRectBorder+0x12e>
				*(o + i * SCREEN_WIDTH) = color;
80108170:	0f b7 4d 0c          	movzwl 0xc(%ebp),%ecx
80108174:	66 89 0f             	mov    %cx,(%edi)
80108177:	0f b6 4d 0e          	movzbl 0xe(%ebp),%ecx
8010817b:	88 4f 02             	mov    %cl,0x2(%edi)
		for (i = 0; i < height; i++) {
8010817e:	83 c2 01             	add    $0x1,%edx
80108181:	01 c7                	add    %eax,%edi
80108183:	39 f2                	cmp    %esi,%edx
80108185:	75 e1                	jne    80108168 <drawRectBorder+0x118>
		}
	}
}
80108187:	83 c4 10             	add    $0x10,%esp
8010818a:	5b                   	pop    %ebx
8010818b:	5e                   	pop    %esi
8010818c:	5f                   	pop    %edi
8010818d:	5d                   	pop    %ebp
8010818e:	c3                   	ret
8010818f:	90                   	nop
	if (y + height < SCREEN_HEIGHT) {
80108190:	39 f3                	cmp    %esi,%ebx
80108192:	0f 8e 6e ff ff ff    	jle    80108106 <drawRectBorder+0xb6>
		RGB *o = t + height * SCREEN_WIDTH;
80108198:	8b 55 1c             	mov    0x1c(%ebp),%edx
		for (i = 0; i < width; i++) {
8010819b:	8b 7d 18             	mov    0x18(%ebp),%edi
		RGB *o = t + height * SCREEN_WIDTH;
8010819e:	0f af d0             	imul   %eax,%edx
		for (i = 0; i < width; i++) {
801081a1:	85 ff                	test   %edi,%edi
801081a3:	7f 21                	jg     801081c6 <drawRectBorder+0x176>
801081a5:	e9 5c ff ff ff       	jmp    80108106 <drawRectBorder+0xb6>
801081aa:	8d b6 00 00 00 00    	lea    0x0(%esi),%esi
	if (x + width < SCREEN_WIDTH) {
801081b0:	8b 4d f0             	mov    -0x10(%ebp),%ecx
801081b3:	39 c8                	cmp    %ecx,%eax
801081b5:	7e d0                	jle    80108187 <drawRectBorder+0x137>
		for (i = 0; i < height; i++) {
801081b7:	8b 55 1c             	mov    0x1c(%ebp),%edx
801081ba:	85 d2                	test   %edx,%edx
801081bc:	7f 93                	jg     80108151 <drawRectBorder+0x101>
801081be:	eb c7                	jmp    80108187 <drawRectBorder+0x137>
		RGB *o = t + height * SCREEN_WIDTH;
801081c0:	8b 55 1c             	mov    0x1c(%ebp),%edx
801081c3:	0f af d0             	imul   %eax,%edx
		for (i = 0; i < width; i++) {
801081c6:	8b 7d ec             	mov    -0x14(%ebp),%edi
801081c9:	8d 14 52             	lea    (%edx,%edx,2),%edx
801081cc:	89 45 e8             	mov    %eax,-0x18(%ebp)
801081cf:	8b 45 14             	mov    0x14(%ebp),%eax
801081d2:	01 fa                	add    %edi,%edx
801081d4:	8b 7d f0             	mov    -0x10(%ebp),%edi
			if (y > 0 && x + i > 0 && x + i < SCREEN_WIDTH)
801081d7:	85 c0                	test   %eax,%eax
801081d9:	7f 12                	jg     801081ed <drawRectBorder+0x19d>
		for (i = 0; i < width; i++) {
801081db:	83 c1 01             	add    $0x1,%ecx
801081de:	83 c2 03             	add    $0x3,%edx
801081e1:	39 f9                	cmp    %edi,%ecx
801081e3:	75 f2                	jne    801081d7 <drawRectBorder+0x187>
801081e5:	8b 45 e8             	mov    -0x18(%ebp),%eax
801081e8:	e9 19 ff ff ff       	jmp    80108106 <drawRectBorder+0xb6>
801081ed:	89 5d e4             	mov    %ebx,-0x1c(%ebp)
801081f0:	8b 45 e8             	mov    -0x18(%ebp),%eax
801081f3:	2e 8d 74 26 00       	lea    %cs:0x0(%esi,%eiz,1),%esi
			if (y > 0 && x + i > 0 && x + i < SCREEN_WIDTH)
801081f8:	39 c8                	cmp    %ecx,%eax
801081fa:	7e 12                	jle    8010820e <drawRectBorder+0x1be>
801081fc:	85 c9                	test   %ecx,%ecx
801081fe:	7e 0e                	jle    8010820e <drawRectBorder+0x1be>
				*(o + i) = color;
80108200:	0f b7 7d 0c          	movzwl 0xc(%ebp),%edi
80108204:	0f b6 5d 0e          	movzbl 0xe(%ebp),%ebx
80108208:	66 89 3a             	mov    %di,(%edx)
8010820b:	88 5a 02             	mov    %bl,0x2(%edx)
		for (i = 0; i < width; i++) {
8010820e:	8b 5d f0             	mov    -0x10(%ebp),%ebx
80108211:	83 c1 01             	add    $0x1,%ecx
80108214:	83 c2 03             	add    $0x3,%edx
80108217:	39 d9                	cmp    %ebx,%ecx
80108219:	75 dd                	jne    801081f8 <drawRectBorder+0x1a8>
8010821b:	8b 5d e4             	mov    -0x1c(%ebp),%ebx
8010821e:	e9 e3 fe ff ff       	jmp    80108106 <drawRectBorder+0xb6>
80108223:	2e 8d b4 26 00 00 00 	lea    %cs:0x0(%esi,%eiz,1),%esi
8010822a:	00 
8010822b:	2e 8d 74 26 00       	lea    %cs:0x0(%esi,%eiz,1),%esi

80108230 <drawRect>:

void drawRect(RGB *buf, int x, int y, int width, int height, RGBA fill) {
80108230:	55                   	push   %ebp
	drawRectBound(buf, x, y, width, height, fill, SCREEN_WIDTH,
80108231:	0f b7 05 d4 9c 13 80 	movzwl 0x80139cd4,%eax
void drawRect(RGB *buf, int x, int y, int width, int height, RGBA fill) {
80108238:	89 e5                	mov    %esp,%ebp
	drawRectBound(buf, x, y, width, height, fill, SCREEN_WIDTH,
8010823a:	50                   	push   %eax
8010823b:	0f b7 05 d6 9c 13 80 	movzwl 0x80139cd6,%eax
80108242:	50                   	push   %eax
80108243:	ff 75 1c             	push   0x1c(%ebp)
80108246:	ff 75 18             	push   0x18(%ebp)
80108249:	ff 75 14             	push   0x14(%ebp)
8010824c:	ff 75 10             	push   0x10(%ebp)
8010824f:	ff 75 0c             	push   0xc(%ebp)
80108252:	ff 75 08             	push   0x8(%ebp)
80108255:	e8 46 fc ff ff       	call   80107ea0 <drawRectBound>
		      SCREEN_HEIGHT);
}
8010825a:	83 c4 20             	add    $0x20,%esp
8010825d:	c9                   	leave
8010825e:	c3                   	ret
8010825f:	90                   	nop

80108260 <drawRectByCoord>:

void drawRectByCoord(RGB *buf, int xmin, int ymin, int xmax, int ymax,
		     RGBA fill) {
80108260:	55                   	push   %ebp
	drawRectBound(buf, x, y, width, height, fill, SCREEN_WIDTH,
80108261:	0f b7 05 d4 9c 13 80 	movzwl 0x80139cd4,%eax
		     RGBA fill) {
80108268:	89 e5                	mov    %esp,%ebp
	drawRectBound(buf, x, y, width, height, fill, SCREEN_WIDTH,
8010826a:	50                   	push   %eax
8010826b:	0f b7 05 d6 9c 13 80 	movzwl 0x80139cd6,%eax
		     RGBA fill) {
80108272:	8b 4d 10             	mov    0x10(%ebp),%ecx
80108275:	8b 55 0c             	mov    0xc(%ebp),%edx
	drawRectBound(buf, x, y, width, height, fill, SCREEN_WIDTH,
80108278:	50                   	push   %eax
	drawRect(buf, xmin, ymin, xmax - xmin, ymax - ymin, fill);
80108279:	8b 45 18             	mov    0x18(%ebp),%eax
	drawRectBound(buf, x, y, width, height, fill, SCREEN_WIDTH,
8010827c:	ff 75 1c             	push   0x1c(%ebp)
	drawRect(buf, xmin, ymin, xmax - xmin, ymax - ymin, fill);
8010827f:	29 c8                	sub    %ecx,%eax
	drawRectBound(buf, x, y, width, height, fill, SCREEN_WIDTH,
80108281:	50                   	push   %eax
	drawRect(buf, xmin, ymin, xmax - xmin, ymax - ymin, fill);
80108282:	8b 45 14             	mov    0x14(%ebp),%eax
80108285:	29 d0                	sub    %edx,%eax
	drawRectBound(buf, x, y, width, height, fill, SCREEN_WIDTH,
80108287:	50                   	push   %eax
80108288:	51                   	push   %ecx
80108289:	52                   	push   %edx
8010828a:	ff 75 08             	push   0x8(%ebp)
8010828d:	e8 0e fc ff ff       	call   80107ea0 <drawRectBound>
}
80108292:	83 c4 20             	add    $0x20,%esp
80108295:	c9                   	leave
80108296:	c3                   	ret
80108297:	2e 8d b4 26 00 00 00 	lea    %cs:0x0(%esi,%eiz,1),%esi
8010829e:	00 
8010829f:	90                   	nop

801082a0 <clearRect>:

void clearRect(RGB *buf, RGB *temp_buf, int x, int y, int width, int height) {
801082a0:	55                   	push   %ebp
801082a1:	89 e5                	mov    %esp,%ebp
801082a3:	57                   	push   %edi
801082a4:	56                   	push   %esi
801082a5:	53                   	push   %ebx
801082a6:	83 ec 1c             	sub    $0x1c,%esp
801082a9:	8b 75 10             	mov    0x10(%ebp),%esi
	if (x >= SCREEN_WIDTH || y >= SCREEN_HEIGHT || x + width <= 0 ||
801082ac:	0f b7 05 d6 9c 13 80 	movzwl 0x80139cd6,%eax
void clearRect(RGB *buf, RGB *temp_buf, int x, int y, int width, int height) {
801082b3:	8b 5d 14             	mov    0x14(%ebp),%ebx
	if (x >= SCREEN_WIDTH || y >= SCREEN_HEIGHT || x + width <= 0 ||
801082b6:	39 f0                	cmp    %esi,%eax
801082b8:	7e 7b                	jle    80108335 <clearRect+0x95>
801082ba:	0f b7 3d d4 9c 13 80 	movzwl 0x80139cd4,%edi
801082c1:	39 df                	cmp    %ebx,%edi
801082c3:	7e 70                	jle    80108335 <clearRect+0x95>
801082c5:	8b 4d 18             	mov    0x18(%ebp),%ecx
801082c8:	01 f1                	add    %esi,%ecx
801082ca:	85 c9                	test   %ecx,%ecx
801082cc:	7e 67                	jle    80108335 <clearRect+0x95>
	    y + height <= 0)
801082ce:	8b 55 1c             	mov    0x1c(%ebp),%edx
801082d1:	01 da                	add    %ebx,%edx
	if (x >= SCREEN_WIDTH || y >= SCREEN_HEIGHT || x + width <= 0 ||
801082d3:	85 d2                	test   %edx,%edx
801082d5:	7e 5e                	jle    80108335 <clearRect+0x95>
		return;

	int start_y = y < 0 ? 0 : y;
	int end_y = (y + height > SCREEN_HEIGHT) ? SCREEN_HEIGHT : y + height;
	int start_x = x < 0 ? 0 : x;
	int copy_width = (x + width > SCREEN_WIDTH) ? SCREEN_WIDTH - x : width;
801082d7:	39 c8                	cmp    %ecx,%eax
801082d9:	7c 65                	jl     80108340 <clearRect+0xa0>
	if (start_x < 0) {
		copy_width += start_x;
		start_x = 0;
	}

	if (copy_width <= 0)
801082db:	8b 4d 18             	mov    0x18(%ebp),%ecx
801082de:	85 c9                	test   %ecx,%ecx
801082e0:	7e 53                	jle    80108335 <clearRect+0x95>
	int start_y = y < 0 ? 0 : y;
801082e2:	31 c9                	xor    %ecx,%ecx
801082e4:	85 db                	test   %ebx,%ebx
801082e6:	0f 48 d9             	cmovs  %ecx,%ebx
	int end_y = (y + height > SCREEN_HEIGHT) ? SCREEN_HEIGHT : y + height;
801082e9:	39 d7                	cmp    %edx,%edi
801082eb:	0f 4e d7             	cmovle %edi,%edx
		return;

	RGB *t;
	RGB *o;
	int bytes_to_copy = copy_width * 3;
801082ee:	8b 7d 18             	mov    0x18(%ebp),%edi
801082f1:	8d 3c 7f             	lea    (%edi,%edi,2),%edi

	for (int i = start_y; i < end_y; i++) {
801082f4:	39 d3                	cmp    %edx,%ebx
801082f6:	7d 3d                	jge    80108335 <clearRect+0x95>
	int start_x = x < 0 ? 0 : x;
801082f8:	85 f6                	test   %esi,%esi
801082fa:	89 55 e4             	mov    %edx,-0x1c(%ebp)
801082fd:	0f 48 f1             	cmovs  %ecx,%esi
80108300:	eb 0d                	jmp    8010830f <clearRect+0x6f>
80108302:	8d b6 00 00 00 00    	lea    0x0(%esi),%esi
80108308:	0f b7 05 d6 9c 13 80 	movzwl 0x80139cd6,%eax
		t = buf + i * SCREEN_WIDTH + start_x;
8010830f:	0f af c3             	imul   %ebx,%eax
		o = temp_buf + i * SCREEN_WIDTH + start_x;
		memmove(t, o, bytes_to_copy);
80108312:	83 ec 04             	sub    $0x4,%esp
	for (int i = start_y; i < end_y; i++) {
80108315:	83 c3 01             	add    $0x1,%ebx
		memmove(t, o, bytes_to_copy);
80108318:	57                   	push   %edi
		o = temp_buf + i * SCREEN_WIDTH + start_x;
80108319:	8b 4d 0c             	mov    0xc(%ebp),%ecx
		t = buf + i * SCREEN_WIDTH + start_x;
8010831c:	01 f0                	add    %esi,%eax
8010831e:	8d 04 40             	lea    (%eax,%eax,2),%eax
		o = temp_buf + i * SCREEN_WIDTH + start_x;
80108321:	01 c1                	add    %eax,%ecx
		memmove(t, o, bytes_to_copy);
80108323:	51                   	push   %ecx
		t = buf + i * SCREEN_WIDTH + start_x;
80108324:	03 45 08             	add    0x8(%ebp),%eax
		memmove(t, o, bytes_to_copy);
80108327:	50                   	push   %eax
80108328:	e8 d3 d3 ff ff       	call   80105700 <memmove>
	for (int i = start_y; i < end_y; i++) {
8010832d:	83 c4 10             	add    $0x10,%esp
80108330:	39 5d e4             	cmp    %ebx,-0x1c(%ebp)
80108333:	75 d3                	jne    80108308 <clearRect+0x68>
	}
}
80108335:	8d 65 f4             	lea    -0xc(%ebp),%esp
80108338:	5b                   	pop    %ebx
80108339:	5e                   	pop    %esi
8010833a:	5f                   	pop    %edi
8010833b:	5d                   	pop    %ebp
8010833c:	c3                   	ret
8010833d:	8d 76 00             	lea    0x0(%esi),%esi
	int copy_width = (x + width > SCREEN_WIDTH) ? SCREEN_WIDTH - x : width;
80108340:	89 c1                	mov    %eax,%ecx
80108342:	29 f1                	sub    %esi,%ecx
80108344:	89 4d 18             	mov    %ecx,0x18(%ebp)
	if (copy_width <= 0)
80108347:	eb 99                	jmp    801082e2 <clearRect+0x42>
80108349:	8d b4 26 00 00 00 00 	lea    0x0(%esi,%eiz,1),%esi

80108350 <clearRectByCoord>:

void clearRectByCoord(RGB *buf, RGB *temp_buf, int xmin, int ymin, int xmax,
		      int ymax) {
80108350:	55                   	push   %ebp
80108351:	89 e5                	mov    %esp,%ebp
	clearRect(buf, temp_buf, xmin, ymin, xmax - xmin, ymax - ymin);
80108353:	8b 45 1c             	mov    0x1c(%ebp),%eax
80108356:	2b 45 14             	sub    0x14(%ebp),%eax
80108359:	89 45 1c             	mov    %eax,0x1c(%ebp)
8010835c:	8b 45 18             	mov    0x18(%ebp),%eax
8010835f:	2b 45 10             	sub    0x10(%ebp),%eax
80108362:	89 45 18             	mov    %eax,0x18(%ebp)
}
80108365:	5d                   	pop    %ebp
	clearRect(buf, temp_buf, xmin, ymin, xmax - xmin, ymax - ymin);
80108366:	e9 35 ff ff ff       	jmp    801082a0 <clearRect>
8010836b:	2e 8d 74 26 00       	lea    %cs:0x0(%esi,%eiz,1),%esi

80108370 <drawMouse>:

void drawMouse(RGB *buf, int mode, int x, int y) {
80108370:	55                   	push   %ebp
80108371:	89 e5                	mov    %esp,%ebp
80108373:	57                   	push   %edi
80108374:	56                   	push   %esi
80108375:	53                   	push   %ebx
80108376:	83 ec 0c             	sub    $0xc,%esp
80108379:	69 4d 0c 0e 01 00 00 	imul   $0x10e,0xc(%ebp),%ecx
80108380:	8b 5d 10             	mov    0x10(%ebp),%ebx
	int i, j;
	RGB *t;
	for (i = 0; i < MOUSE_HEIGHT; i++) {
80108383:	8b 7d 14             	mov    0x14(%ebp),%edi
80108386:	8d b1 0e 01 00 00    	lea    0x10e(%ecx),%esi
8010838c:	8d 74 26 00          	lea    0x0(%esi,%eiz,1),%esi
		if (y + i >= SCREEN_HEIGHT)
80108390:	0f b7 05 d4 9c 13 80 	movzwl 0x80139cd4,%eax
80108397:	39 c7                	cmp    %eax,%edi
80108399:	0f 8d 7c 00 00 00    	jge    8010841b <drawMouse+0xab>
			break;
		if (y + i < 0)
8010839f:	85 ff                	test   %edi,%edi
801083a1:	78 6a                	js     8010840d <drawMouse+0x9d>
			continue;
		for (j = 0; j < MOUSE_WIDTH; j++) {
801083a3:	89 7d ec             	mov    %edi,-0x14(%ebp)
801083a6:	31 c0                	xor    %eax,%eax
801083a8:	89 4d f0             	mov    %ecx,-0x10(%ebp)
801083ab:	89 75 e8             	mov    %esi,-0x18(%ebp)
801083ae:	66 90                	xchg   %ax,%ax
			if (x + j >= SCREEN_WIDTH)
801083b0:	0f b7 15 d6 9c 13 80 	movzwl 0x80139cd6,%edx
801083b7:	8d 34 03             	lea    (%ebx,%eax,1),%esi
801083ba:	39 f2                	cmp    %esi,%edx
801083bc:	7e 46                	jle    80108404 <drawMouse+0x94>
				break;
			if (x + j < 0)
801083be:	85 f6                	test   %esi,%esi
801083c0:	78 3a                	js     801083fc <drawMouse+0x8c>
				continue;

			uchar temp = mouse_pointer[mode][i][j];
801083c2:	8b 7d f0             	mov    -0x10(%ebp),%edi
			if (temp) {
801083c5:	0f b6 8c 07 60 20 11 	movzbl -0x7feedfa0(%edi,%eax,1),%ecx
801083cc:	80 
801083cd:	84 c9                	test   %cl,%cl
801083cf:	74 2b                	je     801083fc <drawMouse+0x8c>
				t = buf + (y + i) * SCREEN_WIDTH + x + j;
801083d1:	8b 7d ec             	mov    -0x14(%ebp),%edi
				drawPoint(t, mouse_color[temp - 1]);
801083d4:	0f b6 f1             	movzbl %cl,%esi
801083d7:	8d 74 76 fd          	lea    -0x3(%esi,%esi,2),%esi
				t = buf + (y + i) * SCREEN_WIDTH + x + j;
801083db:	0f af d7             	imul   %edi,%edx
801083de:	0f b6 8e da 9c 13 80 	movzbl -0x7fec6326(%esi),%ecx
801083e5:	0f b7 be d8 9c 13 80 	movzwl -0x7fec6328(%esi),%edi
801083ec:	01 da                	add    %ebx,%edx
801083ee:	01 c2                	add    %eax,%edx
801083f0:	8d 14 52             	lea    (%edx,%edx,2),%edx
801083f3:	03 55 08             	add    0x8(%ebp),%edx
				drawPoint(t, mouse_color[temp - 1]);
801083f6:	88 4a 02             	mov    %cl,0x2(%edx)
	color->B = origin.B;
801083f9:	66 89 3a             	mov    %di,(%edx)
		for (j = 0; j < MOUSE_WIDTH; j++) {
801083fc:	83 c0 01             	add    $0x1,%eax
801083ff:	83 f8 0f             	cmp    $0xf,%eax
80108402:	75 ac                	jne    801083b0 <drawMouse+0x40>
80108404:	8b 7d ec             	mov    -0x14(%ebp),%edi
80108407:	8b 4d f0             	mov    -0x10(%ebp),%ecx
8010840a:	8b 75 e8             	mov    -0x18(%ebp),%esi
	for (i = 0; i < MOUSE_HEIGHT; i++) {
8010840d:	83 c1 0f             	add    $0xf,%ecx
80108410:	83 c7 01             	add    $0x1,%edi
80108413:	39 f1                	cmp    %esi,%ecx
80108415:	0f 85 75 ff ff ff    	jne    80108390 <drawMouse+0x20>
			}
		}
	}
}
8010841b:	83 c4 0c             	add    $0xc,%esp
8010841e:	5b                   	pop    %ebx
8010841f:	5e                   	pop    %esi
80108420:	5f                   	pop    %edi
80108421:	5d                   	pop    %ebp
80108422:	c3                   	ret
80108423:	2e 8d b4 26 00 00 00 	lea    %cs:0x0(%esi,%eiz,1),%esi
8010842a:	00 
8010842b:	2e 8d 74 26 00       	lea    %cs:0x0(%esi,%eiz,1),%esi

80108430 <clearMouse>:

void clearMouse(RGB *buf, RGB *temp_buf, int x, int y) {
80108430:	55                   	push   %ebp
80108431:	89 e5                	mov    %esp,%ebp
80108433:	83 ec 10             	sub    $0x10,%esp
	clearRect(buf, temp_buf, x, y, MOUSE_WIDTH, MOUSE_HEIGHT);
80108436:	6a 12                	push   $0x12
80108438:	6a 0f                	push   $0xf
8010843a:	ff 75 14             	push   0x14(%ebp)
8010843d:	ff 75 10             	push   0x10(%ebp)
80108440:	ff 75 0c             	push   0xc(%ebp)
80108443:	ff 75 08             	push   0x8(%ebp)
80108446:	e8 55 fe ff ff       	call   801082a0 <clearRect>
8010844b:	83 c4 20             	add    $0x20,%esp
8010844e:	c9                   	leave
8010844f:	c3                   	ret

80108450 <genMouseMessage.part.0>:
	msg.msg_type = M_MOUSE_UP;
	msg.params[0] = btns;
	handleMessage(&msg);
}

void genMouseMessage() {
80108450:	55                   	push   %ebp
80108451:	89 e5                	mov    %esp,%ebp
80108453:	53                   	push   %ebx
80108454:	83 ec 64             	sub    $0x64,%esp
	if (packet.x_overflow || packet.y_overflow)
		return;
	int x = packet.x_sgn ? (0xffffff00 | (packet.x_mov & 0xff))
80108457:	a1 08 9d 13 80       	mov    0x80139d08,%eax
			     : (packet.x_mov & 0xff);
8010845c:	8b 1d 00 9d 13 80    	mov    0x80139d00,%ebx
80108462:	0f b6 d0             	movzbl %al,%edx
80108465:	85 db                	test   %ebx,%ebx
80108467:	74 07                	je     80108470 <genMouseMessage.part.0+0x20>
80108469:	0d 00 ff ff ff       	or     $0xffffff00,%eax
8010846e:	89 c2                	mov    %eax,%edx
		      y = 0;
	      }*/
	packet.x_mov = x;
	packet.y_mov = y;

	int btns = packet.l_btn | (packet.r_btn << 1) | (packet.m_btn << 2);
80108470:	8b 0d 14 9d 13 80    	mov    0x80139d14,%ecx
	int y = packet.y_sgn ? (0xffffff00 | (packet.y_mov & 0xff))
80108476:	a1 0c 9d 13 80       	mov    0x80139d0c,%eax
	int btns = packet.l_btn | (packet.r_btn << 1) | (packet.m_btn << 2);
8010847b:	8d 1c 09             	lea    (%ecx,%ecx,1),%ebx
8010847e:	8b 0d 18 9d 13 80    	mov    0x80139d18,%ecx
80108484:	c1 e1 02             	shl    $0x2,%ecx
80108487:	09 cb                	or     %ecx,%ebx
			     : (packet.y_mov & 0xff);
80108489:	8b 0d 04 9d 13 80    	mov    0x80139d04,%ecx
	int btns = packet.l_btn | (packet.r_btn << 1) | (packet.m_btn << 2);
8010848f:	0b 1d 10 9d 13 80    	or     0x80139d10,%ebx
			     : (packet.y_mov & 0xff);
80108495:	85 c9                	test   %ecx,%ecx
80108497:	74 57                	je     801084f0 <genMouseMessage.part.0+0xa0>
80108499:	0d 00 ff ff ff       	or     $0xffffff00,%eax
	packet.x_mov = x;
8010849e:	89 15 08 9d 13 80    	mov    %edx,0x80139d08
	packet.y_mov = y;
801084a4:	a3 0c 9d 13 80       	mov    %eax,0x80139d0c
	message msg;
	if (packet.x_mov || packet.y_mov) {
		msg.msg_type = M_MOUSE_MOVE;
801084a9:	c7 45 a0 03 00 00 00 	movl   $0x3,-0x60(%ebp)
		msg.params[0] = packet.x_mov;
801084b0:	89 55 a4             	mov    %edx,-0x5c(%ebp)
		msg.params[1] = packet.y_mov;
801084b3:	89 45 a8             	mov    %eax,-0x58(%ebp)
		msg.params[2] = btns;
801084b6:	89 5d ac             	mov    %ebx,-0x54(%ebp)
		lastdowntick = lastclicktick = -1000;
801084b9:	c7 05 e0 9c 13 80 18 	movl   $0xfffffc18,0x80139ce0
801084c0:	fc ff ff 
801084c3:	c7 05 e4 9c 13 80 18 	movl   $0xfffffc18,0x80139ce4
801084ca:	fc ff ff 
		if (btns != lastbtn)
801084cd:	39 1d e8 9c 13 80    	cmp    %ebx,0x80139ce8
801084d3:	75 7b                	jne    80108550 <genMouseMessage.part.0+0x100>
			lastclicktick = packet.tick;
	} else {
		genMouseUpMessage(btns);
	}
	lastbtn = btns;
	handleMessage(&msg);
801084d5:	83 ec 0c             	sub    $0xc,%esp
801084d8:	8d 45 a0             	lea    -0x60(%ebp),%eax
	lastbtn = btns;
801084db:	89 1d e8 9c 13 80    	mov    %ebx,0x80139ce8
	handleMessage(&msg);
801084e1:	50                   	push   %eax
801084e2:	e8 79 06 00 00       	call   80108b60 <handleMessage>
}
801084e7:	8b 5d fc             	mov    -0x4(%ebp),%ebx
801084ea:	83 c4 10             	add    $0x10,%esp
801084ed:	c9                   	leave
801084ee:	c3                   	ret
801084ef:	90                   	nop
			     : (packet.y_mov & 0xff);
801084f0:	0f b6 c0             	movzbl %al,%eax
	packet.x_mov = x;
801084f3:	89 15 08 9d 13 80    	mov    %edx,0x80139d08
	if (packet.x_mov || packet.y_mov) {
801084f9:	89 c1                	mov    %eax,%ecx
	packet.y_mov = y;
801084fb:	a3 0c 9d 13 80       	mov    %eax,0x80139d0c
	if (packet.x_mov || packet.y_mov) {
80108500:	09 d1                	or     %edx,%ecx
80108502:	75 a5                	jne    801084a9 <genMouseMessage.part.0+0x59>
		lastdowntick = packet.tick;
80108504:	a1 24 9d 13 80       	mov    0x80139d24,%eax
	} else if (btns) {
80108509:	85 db                	test   %ebx,%ebx
8010850b:	75 63                	jne    80108570 <genMouseMessage.part.0+0x120>
	} else if (packet.tick - lastdowntick < 30) {
8010850d:	89 c2                	mov    %eax,%edx
8010850f:	2b 15 e4 9c 13 80    	sub    0x80139ce4,%edx
80108515:	83 fa 1d             	cmp    $0x1d,%edx
80108518:	77 7e                	ja     80108598 <genMouseMessage.part.0+0x148>
		if (lastbtn & 1) {
8010851a:	8b 0d e8 9c 13 80    	mov    0x80139ce8,%ecx
80108520:	ba 07 00 00 00       	mov    $0x7,%edx
80108525:	83 e1 01             	and    $0x1,%ecx
80108528:	29 ca                	sub    %ecx,%edx
8010852a:	89 55 a0             	mov    %edx,-0x60(%ebp)
		if (packet.tick - lastclicktick < 60) {
8010852d:	89 c2                	mov    %eax,%edx
8010852f:	2b 15 e0 9c 13 80    	sub    0x80139ce0,%edx
80108535:	83 fa 3b             	cmp    $0x3b,%edx
80108538:	77 4e                	ja     80108588 <genMouseMessage.part.0+0x138>
			msg.msg_type = M_MOUSE_DBCLICK;
8010853a:	c7 45 a0 08 00 00 00 	movl   $0x8,-0x60(%ebp)
			lastclicktick = -1000;
80108541:	c7 05 e0 9c 13 80 18 	movl   $0xfffffc18,0x80139ce0
80108548:	fc ff ff 
8010854b:	eb 88                	jmp    801084d5 <genMouseMessage.part.0+0x85>
8010854d:	8d 76 00             	lea    0x0(%esi),%esi
	msg.msg_type = M_MOUSE_UP;
80108550:	c7 45 cc 05 00 00 00 	movl   $0x5,-0x34(%ebp)
	msg.params[0] = btns;
80108557:	89 5d d0             	mov    %ebx,-0x30(%ebp)
	handleMessage(&msg);
8010855a:	83 ec 0c             	sub    $0xc,%esp
8010855d:	8d 45 cc             	lea    -0x34(%ebp),%eax
80108560:	50                   	push   %eax
80108561:	e8 fa 05 00 00       	call   80108b60 <handleMessage>
}
80108566:	83 c4 10             	add    $0x10,%esp
80108569:	e9 67 ff ff ff       	jmp    801084d5 <genMouseMessage.part.0+0x85>
8010856e:	66 90                	xchg   %ax,%ax
		msg.msg_type = M_MOUSE_DOWN;
80108570:	c7 45 a0 04 00 00 00 	movl   $0x4,-0x60(%ebp)
		msg.params[0] = btns;
80108577:	89 5d a4             	mov    %ebx,-0x5c(%ebp)
		lastdowntick = packet.tick;
8010857a:	a3 e4 9c 13 80       	mov    %eax,0x80139ce4
8010857f:	e9 51 ff ff ff       	jmp    801084d5 <genMouseMessage.part.0+0x85>
80108584:	8d 74 26 00          	lea    0x0(%esi,%eiz,1),%esi
			lastclicktick = packet.tick;
80108588:	a3 e0 9c 13 80       	mov    %eax,0x80139ce0
8010858d:	e9 43 ff ff ff       	jmp    801084d5 <genMouseMessage.part.0+0x85>
80108592:	8d b6 00 00 00 00    	lea    0x0(%esi),%esi
	msg.msg_type = M_MOUSE_UP;
80108598:	c7 45 cc 05 00 00 00 	movl   $0x5,-0x34(%ebp)
	msg.params[0] = btns;
8010859f:	c7 45 d0 00 00 00 00 	movl   $0x0,-0x30(%ebp)
801085a6:	eb b2                	jmp    8010855a <genMouseMessage.part.0+0x10a>
801085a8:	2e 8d b4 26 00 00 00 	lea    %cs:0x0(%esi,%eiz,1),%esi
801085af:	00 

801085b0 <mouse_wait>:
void mouse_wait(uchar type) {
801085b0:	55                   	push   %ebp
801085b1:	b9 a0 86 01 00       	mov    $0x186a0,%ecx
	asm volatile("in %1,%0" : "=a"(data) : "d"(port));
801085b6:	ba 64 00 00 00       	mov    $0x64,%edx
801085bb:	89 e5                	mov    %esp,%ebp
	if (type == 0) {
801085bd:	80 7d 08 00          	cmpb   $0x0,0x8(%ebp)
801085c1:	75 15                	jne    801085d8 <mouse_wait+0x28>
801085c3:	2e 8d 74 26 00       	lea    %cs:0x0(%esi,%eiz,1),%esi
		while (--time_out) {
801085c8:	83 e9 01             	sub    $0x1,%ecx
801085cb:	74 05                	je     801085d2 <mouse_wait+0x22>
801085cd:	ec                   	in     (%dx),%al
			if ((inb(0x64) & 1) == 1)
801085ce:	a8 01                	test   $0x1,%al
801085d0:	74 f6                	je     801085c8 <mouse_wait+0x18>
}
801085d2:	5d                   	pop    %ebp
801085d3:	c3                   	ret
801085d4:	8d 74 26 00          	lea    0x0(%esi,%eiz,1),%esi
		while (--time_out) {
801085d8:	83 e9 01             	sub    $0x1,%ecx
801085db:	74 f5                	je     801085d2 <mouse_wait+0x22>
801085dd:	ec                   	in     (%dx),%al
			if ((inb(0x64) & 2) == 0)
801085de:	a8 02                	test   $0x2,%al
801085e0:	75 f6                	jne    801085d8 <mouse_wait+0x28>
}
801085e2:	5d                   	pop    %ebp
801085e3:	c3                   	ret
801085e4:	2e 8d b4 26 00 00 00 	lea    %cs:0x0(%esi,%eiz,1),%esi
801085eb:	00 
801085ec:	8d 74 26 00          	lea    0x0(%esi,%eiz,1),%esi

801085f0 <mouse_write>:
void mouse_write(uchar word) {
801085f0:	55                   	push   %ebp
801085f1:	b9 a0 86 01 00       	mov    $0x186a0,%ecx
801085f6:	ba 64 00 00 00       	mov    $0x64,%edx
801085fb:	89 e5                	mov    %esp,%ebp
801085fd:	53                   	push   %ebx
801085fe:	0f b6 5d 08          	movzbl 0x8(%ebp),%ebx
80108602:	8d b6 00 00 00 00    	lea    0x0(%esi),%esi
		while (--time_out) {
80108608:	83 e9 01             	sub    $0x1,%ecx
8010860b:	74 05                	je     80108612 <mouse_write+0x22>
8010860d:	ec                   	in     (%dx),%al
			if ((inb(0x64) & 2) == 0)
8010860e:	a8 02                	test   $0x2,%al
80108610:	75 f6                	jne    80108608 <mouse_write+0x18>
	asm volatile("out %0,%1" : : "a"(data), "d"(port));
80108612:	b8 d4 ff ff ff       	mov    $0xffffffd4,%eax
80108617:	ba 64 00 00 00       	mov    $0x64,%edx
8010861c:	ee                   	out    %al,(%dx)
8010861d:	b9 a0 86 01 00       	mov    $0x186a0,%ecx
80108622:	8d b6 00 00 00 00    	lea    0x0(%esi),%esi
		while (--time_out) {
80108628:	83 e9 01             	sub    $0x1,%ecx
8010862b:	74 05                	je     80108632 <mouse_write+0x42>
	asm volatile("in %1,%0" : "=a"(data) : "d"(port));
8010862d:	ec                   	in     (%dx),%al
			if ((inb(0x64) & 2) == 0)
8010862e:	a8 02                	test   $0x2,%al
80108630:	75 f6                	jne    80108628 <mouse_write+0x38>
	asm volatile("out %0,%1" : : "a"(data), "d"(port));
80108632:	ba 60 00 00 00       	mov    $0x60,%edx
80108637:	89 d8                	mov    %ebx,%eax
80108639:	ee                   	out    %al,(%dx)
}
8010863a:	8b 5d fc             	mov    -0x4(%ebp),%ebx
8010863d:	c9                   	leave
8010863e:	c3                   	ret
8010863f:	90                   	nop

80108640 <mouse_read>:
uint mouse_read() {
80108640:	b9 a0 86 01 00       	mov    $0x186a0,%ecx
	asm volatile("in %1,%0" : "=a"(data) : "d"(port));
80108645:	ba 64 00 00 00       	mov    $0x64,%edx
8010864a:	8d b6 00 00 00 00    	lea    0x0(%esi),%esi
		while (--time_out) {
80108650:	83 e9 01             	sub    $0x1,%ecx
80108653:	74 05                	je     8010865a <mouse_read+0x1a>
80108655:	ec                   	in     (%dx),%al
			if ((inb(0x64) & 1) == 1)
80108656:	a8 01                	test   $0x1,%al
80108658:	74 f6                	je     80108650 <mouse_read+0x10>
8010865a:	ba 60 00 00 00       	mov    $0x60,%edx
8010865f:	ec                   	in     (%dx),%al
	return inb(0x60);
80108660:	0f b6 c0             	movzbl %al,%eax
}
80108663:	c3                   	ret
80108664:	2e 8d b4 26 00 00 00 	lea    %cs:0x0(%esi,%eiz,1),%esi
8010866b:	00 
8010866c:	8d 74 26 00          	lea    0x0(%esi,%eiz,1),%esi

80108670 <mouseinit>:
void mouseinit(void) {
80108670:	55                   	push   %ebp
80108671:	b9 a0 86 01 00       	mov    $0x186a0,%ecx
80108676:	ba 64 00 00 00       	mov    $0x64,%edx
8010867b:	89 e5                	mov    %esp,%ebp
8010867d:	53                   	push   %ebx
8010867e:	83 ec 04             	sub    $0x4,%esp
80108681:	8d b4 26 00 00 00 00 	lea    0x0(%esi,%eiz,1),%esi
		while (--time_out) {
80108688:	83 e9 01             	sub    $0x1,%ecx
8010868b:	74 05                	je     80108692 <mouseinit+0x22>
8010868d:	ec                   	in     (%dx),%al
			if ((inb(0x64) & 2) == 0)
8010868e:	a8 02                	test   $0x2,%al
80108690:	75 f6                	jne    80108688 <mouseinit+0x18>
	asm volatile("out %0,%1" : : "a"(data), "d"(port));
80108692:	b8 a8 ff ff ff       	mov    $0xffffffa8,%eax
80108697:	ba 64 00 00 00       	mov    $0x64,%edx
8010869c:	ee                   	out    %al,(%dx)
8010869d:	b9 a0 86 01 00       	mov    $0x186a0,%ecx
801086a2:	8d b6 00 00 00 00    	lea    0x0(%esi),%esi
		while (--time_out) {
801086a8:	83 e9 01             	sub    $0x1,%ecx
801086ab:	74 05                	je     801086b2 <mouseinit+0x42>
	asm volatile("in %1,%0" : "=a"(data) : "d"(port));
801086ad:	ec                   	in     (%dx),%al
			if ((inb(0x64) & 2) == 0)
801086ae:	a8 02                	test   $0x2,%al
801086b0:	75 f6                	jne    801086a8 <mouseinit+0x38>
	asm volatile("out %0,%1" : : "a"(data), "d"(port));
801086b2:	b8 20 00 00 00       	mov    $0x20,%eax
801086b7:	ba 64 00 00 00       	mov    $0x64,%edx
801086bc:	ee                   	out    %al,(%dx)
801086bd:	b9 a0 86 01 00       	mov    $0x186a0,%ecx
801086c2:	8d b6 00 00 00 00    	lea    0x0(%esi),%esi
		while (--time_out) {
801086c8:	83 e9 01             	sub    $0x1,%ecx
801086cb:	74 05                	je     801086d2 <mouseinit+0x62>
	asm volatile("in %1,%0" : "=a"(data) : "d"(port));
801086cd:	ec                   	in     (%dx),%al
			if ((inb(0x64) & 1) == 1)
801086ce:	a8 01                	test   $0x1,%al
801086d0:	74 f6                	je     801086c8 <mouseinit+0x58>
801086d2:	ba 60 00 00 00       	mov    $0x60,%edx
801086d7:	ec                   	in     (%dx),%al
	statustemp = (inb(0x60) | 2);
801086d8:	83 c8 02             	or     $0x2,%eax
801086db:	b9 a0 86 01 00       	mov    $0x186a0,%ecx
801086e0:	ba 64 00 00 00       	mov    $0x64,%edx
801086e5:	89 c3                	mov    %eax,%ebx
void mouse_wait(uchar type) {
801086e7:	2e 8d b4 26 00 00 00 	lea    %cs:0x0(%esi,%eiz,1),%esi
801086ee:	00 
801086ef:	90                   	nop
		while (--time_out) {
801086f0:	83 e9 01             	sub    $0x1,%ecx
801086f3:	74 05                	je     801086fa <mouseinit+0x8a>
801086f5:	ec                   	in     (%dx),%al
			if ((inb(0x64) & 1) == 1)
801086f6:	a8 01                	test   $0x1,%al
801086f8:	74 f6                	je     801086f0 <mouseinit+0x80>
	asm volatile("out %0,%1" : : "a"(data), "d"(port));
801086fa:	b8 60 00 00 00       	mov    $0x60,%eax
801086ff:	ba 64 00 00 00       	mov    $0x64,%edx
80108704:	ee                   	out    %al,(%dx)
80108705:	b9 a0 86 01 00       	mov    $0x186a0,%ecx
8010870a:	8d b6 00 00 00 00    	lea    0x0(%esi),%esi
		while (--time_out) {
80108710:	83 e9 01             	sub    $0x1,%ecx
80108713:	74 05                	je     8010871a <mouseinit+0xaa>
	asm volatile("in %1,%0" : "=a"(data) : "d"(port));
80108715:	ec                   	in     (%dx),%al
			if ((inb(0x64) & 2) == 0)
80108716:	a8 02                	test   $0x2,%al
80108718:	75 f6                	jne    80108710 <mouseinit+0xa0>
	asm volatile("out %0,%1" : : "a"(data), "d"(port));
8010871a:	ba 60 00 00 00       	mov    $0x60,%edx
8010871f:	89 d8                	mov    %ebx,%eax
80108721:	ee                   	out    %al,(%dx)
80108722:	b9 a0 86 01 00       	mov    $0x186a0,%ecx
	asm volatile("in %1,%0" : "=a"(data) : "d"(port));
80108727:	ba 64 00 00 00       	mov    $0x64,%edx
8010872c:	8d 74 26 00          	lea    0x0(%esi,%eiz,1),%esi
		while (--time_out) {
80108730:	83 e9 01             	sub    $0x1,%ecx
80108733:	74 05                	je     8010873a <mouseinit+0xca>
80108735:	ec                   	in     (%dx),%al
			if ((inb(0x64) & 2) == 0)
80108736:	a8 02                	test   $0x2,%al
80108738:	75 f6                	jne    80108730 <mouseinit+0xc0>
	asm volatile("out %0,%1" : : "a"(data), "d"(port));
8010873a:	b8 d4 ff ff ff       	mov    $0xffffffd4,%eax
8010873f:	ba 64 00 00 00       	mov    $0x64,%edx
80108744:	ee                   	out    %al,(%dx)
80108745:	b9 a0 86 01 00       	mov    $0x186a0,%ecx
8010874a:	8d b6 00 00 00 00    	lea    0x0(%esi),%esi
		while (--time_out) {
80108750:	83 e9 01             	sub    $0x1,%ecx
80108753:	74 05                	je     8010875a <mouseinit+0xea>
	asm volatile("in %1,%0" : "=a"(data) : "d"(port));
80108755:	ec                   	in     (%dx),%al
			if ((inb(0x64) & 2) == 0)
80108756:	a8 02                	test   $0x2,%al
80108758:	75 f6                	jne    80108750 <mouseinit+0xe0>
	asm volatile("out %0,%1" : : "a"(data), "d"(port));
8010875a:	b8 f6 ff ff ff       	mov    $0xfffffff6,%eax
8010875f:	ba 60 00 00 00       	mov    $0x60,%edx
80108764:	ee                   	out    %al,(%dx)
80108765:	b9 a0 86 01 00       	mov    $0x186a0,%ecx
	asm volatile("in %1,%0" : "=a"(data) : "d"(port));
8010876a:	ba 64 00 00 00       	mov    $0x64,%edx
8010876f:	90                   	nop
		while (--time_out) {
80108770:	83 e9 01             	sub    $0x1,%ecx
80108773:	74 05                	je     8010877a <mouseinit+0x10a>
80108775:	ec                   	in     (%dx),%al
			if ((inb(0x64) & 1) == 1)
80108776:	a8 01                	test   $0x1,%al
80108778:	74 f6                	je     80108770 <mouseinit+0x100>
8010877a:	ba 60 00 00 00       	mov    $0x60,%edx
8010877f:	ec                   	in     (%dx),%al
80108780:	b9 a0 86 01 00       	mov    $0x186a0,%ecx
80108785:	ba 64 00 00 00       	mov    $0x64,%edx
8010878a:	8d b6 00 00 00 00    	lea    0x0(%esi),%esi
		while (--time_out) {
80108790:	83 e9 01             	sub    $0x1,%ecx
80108793:	74 05                	je     8010879a <mouseinit+0x12a>
80108795:	ec                   	in     (%dx),%al
			if ((inb(0x64) & 2) == 0)
80108796:	a8 02                	test   $0x2,%al
80108798:	75 f6                	jne    80108790 <mouseinit+0x120>
	asm volatile("out %0,%1" : : "a"(data), "d"(port));
8010879a:	b8 d4 ff ff ff       	mov    $0xffffffd4,%eax
8010879f:	ba 64 00 00 00       	mov    $0x64,%edx
801087a4:	ee                   	out    %al,(%dx)
801087a5:	b9 a0 86 01 00       	mov    $0x186a0,%ecx
801087aa:	8d b6 00 00 00 00    	lea    0x0(%esi),%esi
		while (--time_out) {
801087b0:	83 e9 01             	sub    $0x1,%ecx
801087b3:	74 05                	je     801087ba <mouseinit+0x14a>
	asm volatile("in %1,%0" : "=a"(data) : "d"(port));
801087b5:	ec                   	in     (%dx),%al
			if ((inb(0x64) & 2) == 0)
801087b6:	a8 02                	test   $0x2,%al
801087b8:	75 f6                	jne    801087b0 <mouseinit+0x140>
	asm volatile("out %0,%1" : : "a"(data), "d"(port));
801087ba:	b8 f3 ff ff ff       	mov    $0xfffffff3,%eax
801087bf:	ba 60 00 00 00       	mov    $0x60,%edx
801087c4:	ee                   	out    %al,(%dx)
801087c5:	b9 a0 86 01 00       	mov    $0x186a0,%ecx
	asm volatile("in %1,%0" : "=a"(data) : "d"(port));
801087ca:	ba 64 00 00 00       	mov    $0x64,%edx
801087cf:	90                   	nop
		while (--time_out) {
801087d0:	83 e9 01             	sub    $0x1,%ecx
801087d3:	74 05                	je     801087da <mouseinit+0x16a>
801087d5:	ec                   	in     (%dx),%al
			if ((inb(0x64) & 1) == 1)
801087d6:	a8 01                	test   $0x1,%al
801087d8:	74 f6                	je     801087d0 <mouseinit+0x160>
801087da:	ba 60 00 00 00       	mov    $0x60,%edx
801087df:	ec                   	in     (%dx),%al
801087e0:	b9 a0 86 01 00       	mov    $0x186a0,%ecx
801087e5:	ba 64 00 00 00       	mov    $0x64,%edx
801087ea:	8d b6 00 00 00 00    	lea    0x0(%esi),%esi
		while (--time_out) {
801087f0:	83 e9 01             	sub    $0x1,%ecx
801087f3:	74 05                	je     801087fa <mouseinit+0x18a>
801087f5:	ec                   	in     (%dx),%al
			if ((inb(0x64) & 2) == 0)
801087f6:	a8 02                	test   $0x2,%al
801087f8:	75 f6                	jne    801087f0 <mouseinit+0x180>
	asm volatile("out %0,%1" : : "a"(data), "d"(port));
801087fa:	b8 d4 ff ff ff       	mov    $0xffffffd4,%eax
801087ff:	ba 64 00 00 00       	mov    $0x64,%edx
80108804:	ee                   	out    %al,(%dx)
80108805:	b9 a0 86 01 00       	mov    $0x186a0,%ecx
8010880a:	8d b6 00 00 00 00    	lea    0x0(%esi),%esi
		while (--time_out) {
80108810:	83 e9 01             	sub    $0x1,%ecx
80108813:	74 05                	je     8010881a <mouseinit+0x1aa>
	asm volatile("in %1,%0" : "=a"(data) : "d"(port));
80108815:	ec                   	in     (%dx),%al
			if ((inb(0x64) & 2) == 0)
80108816:	a8 02                	test   $0x2,%al
80108818:	75 f6                	jne    80108810 <mouseinit+0x1a0>
	asm volatile("out %0,%1" : : "a"(data), "d"(port));
8010881a:	b8 0a 00 00 00       	mov    $0xa,%eax
8010881f:	ba 60 00 00 00       	mov    $0x60,%edx
80108824:	ee                   	out    %al,(%dx)
80108825:	b9 a0 86 01 00       	mov    $0x186a0,%ecx
	asm volatile("in %1,%0" : "=a"(data) : "d"(port));
8010882a:	ba 64 00 00 00       	mov    $0x64,%edx
8010882f:	90                   	nop
		while (--time_out) {
80108830:	83 e9 01             	sub    $0x1,%ecx
80108833:	74 05                	je     8010883a <mouseinit+0x1ca>
80108835:	ec                   	in     (%dx),%al
			if ((inb(0x64) & 1) == 1)
80108836:	a8 01                	test   $0x1,%al
80108838:	74 f6                	je     80108830 <mouseinit+0x1c0>
8010883a:	ba 60 00 00 00       	mov    $0x60,%edx
8010883f:	ec                   	in     (%dx),%al
80108840:	b9 a0 86 01 00       	mov    $0x186a0,%ecx
80108845:	ba 64 00 00 00       	mov    $0x64,%edx
8010884a:	8d b6 00 00 00 00    	lea    0x0(%esi),%esi
		while (--time_out) {
80108850:	83 e9 01             	sub    $0x1,%ecx
80108853:	74 05                	je     8010885a <mouseinit+0x1ea>
80108855:	ec                   	in     (%dx),%al
			if ((inb(0x64) & 2) == 0)
80108856:	a8 02                	test   $0x2,%al
80108858:	75 f6                	jne    80108850 <mouseinit+0x1e0>
	asm volatile("out %0,%1" : : "a"(data), "d"(port));
8010885a:	b8 d4 ff ff ff       	mov    $0xffffffd4,%eax
8010885f:	ba 64 00 00 00       	mov    $0x64,%edx
80108864:	ee                   	out    %al,(%dx)
80108865:	b9 a0 86 01 00       	mov    $0x186a0,%ecx
8010886a:	8d b6 00 00 00 00    	lea    0x0(%esi),%esi
		while (--time_out) {
80108870:	83 e9 01             	sub    $0x1,%ecx
80108873:	74 05                	je     8010887a <mouseinit+0x20a>
	asm volatile("in %1,%0" : "=a"(data) : "d"(port));
80108875:	ec                   	in     (%dx),%al
			if ((inb(0x64) & 2) == 0)
80108876:	a8 02                	test   $0x2,%al
80108878:	75 f6                	jne    80108870 <mouseinit+0x200>
	asm volatile("out %0,%1" : : "a"(data), "d"(port));
8010887a:	b8 f4 ff ff ff       	mov    $0xfffffff4,%eax
8010887f:	ba 60 00 00 00       	mov    $0x60,%edx
80108884:	ee                   	out    %al,(%dx)
80108885:	b9 a0 86 01 00       	mov    $0x186a0,%ecx
	asm volatile("in %1,%0" : "=a"(data) : "d"(port));
8010888a:	ba 64 00 00 00       	mov    $0x64,%edx
8010888f:	90                   	nop
		while (--time_out) {
80108890:	83 e9 01             	sub    $0x1,%ecx
80108893:	74 05                	je     8010889a <mouseinit+0x22a>
80108895:	ec                   	in     (%dx),%al
			if ((inb(0x64) & 1) == 1)
80108896:	a8 01                	test   $0x1,%al
80108898:	74 f6                	je     80108890 <mouseinit+0x220>
8010889a:	ba 60 00 00 00       	mov    $0x60,%edx
8010889f:	ec                   	in     (%dx),%al
	initlock(&mouselock, "mouse");
801088a0:	83 ec 08             	sub    $0x8,%esp
801088a3:	68 7c b7 10 80       	push   $0x8010b77c
801088a8:	68 40 9d 13 80       	push   $0x80139d40
801088ad:	e8 ce ca ff ff       	call   80105380 <initlock>
	ioapicenable(IRQ_MOUSE, 0);
801088b2:	58                   	pop    %eax
801088b3:	5a                   	pop    %edx
801088b4:	6a 00                	push   $0x0
801088b6:	6a 0c                	push   $0xc
801088b8:	e8 b3 aa ff ff       	call   80103370 <ioapicenable>
}
801088bd:	8b 5d fc             	mov    -0x4(%ebp),%ebx
801088c0:	83 c4 10             	add    $0x10,%esp
	count = 0;
801088c3:	c7 05 f0 9c 13 80 00 	movl   $0x0,0x80139cf0
801088ca:	00 00 00 
	lastclicktick = lastdowntick = -1000;
801088cd:	c7 05 e4 9c 13 80 18 	movl   $0xfffffc18,0x80139ce4
801088d4:	fc ff ff 
801088d7:	c7 05 e0 9c 13 80 18 	movl   $0xfffffc18,0x80139ce0
801088de:	fc ff ff 
}
801088e1:	c9                   	leave
801088e2:	c3                   	ret
801088e3:	2e 8d b4 26 00 00 00 	lea    %cs:0x0(%esi,%eiz,1),%esi
801088ea:	00 
801088eb:	2e 8d 74 26 00       	lea    %cs:0x0(%esi,%eiz,1),%esi

801088f0 <genMouseUpMessage>:
void genMouseUpMessage(int btns) {
801088f0:	55                   	push   %ebp
801088f1:	89 e5                	mov    %esp,%ebp
801088f3:	83 ec 44             	sub    $0x44,%esp
	msg.params[0] = btns;
801088f6:	8b 45 08             	mov    0x8(%ebp),%eax
	msg.msg_type = M_MOUSE_UP;
801088f9:	c7 45 cc 05 00 00 00 	movl   $0x5,-0x34(%ebp)
	msg.params[0] = btns;
80108900:	89 45 d0             	mov    %eax,-0x30(%ebp)
	handleMessage(&msg);
80108903:	8d 45 cc             	lea    -0x34(%ebp),%eax
80108906:	50                   	push   %eax
80108907:	e8 54 02 00 00       	call   80108b60 <handleMessage>
}
8010890c:	83 c4 10             	add    $0x10,%esp
8010890f:	c9                   	leave
80108910:	c3                   	ret
80108911:	2e 8d b4 26 00 00 00 	lea    %cs:0x0(%esi,%eiz,1),%esi
80108918:	00 
80108919:	8d b4 26 00 00 00 00 	lea    0x0(%esi,%eiz,1),%esi

80108920 <genMouseMessage>:
	if (packet.x_overflow || packet.y_overflow)
80108920:	a1 1c 9d 13 80       	mov    0x80139d1c,%eax
80108925:	0b 05 20 9d 13 80    	or     0x80139d20,%eax
8010892b:	75 0b                	jne    80108938 <genMouseMessage+0x18>
8010892d:	e9 1e fb ff ff       	jmp    80108450 <genMouseMessage.part.0>
80108932:	8d b6 00 00 00 00    	lea    0x0(%esi),%esi
}
80108938:	c3                   	ret
80108939:	8d b4 26 00 00 00 00 	lea    0x0(%esi,%eiz,1),%esi

80108940 <mouseintr>:

void mouseintr(uint tick) {
80108940:	55                   	push   %ebp
80108941:	89 e5                	mov    %esp,%ebp
80108943:	57                   	push   %edi
80108944:	56                   	push   %esi
80108945:	53                   	push   %ebx
80108946:	83 ec 28             	sub    $0x28,%esp
80108949:	8b 45 08             	mov    0x8(%ebp),%eax
8010894c:	89 45 e4             	mov    %eax,-0x1c(%ebp)
	acquire(&mouselock);
8010894f:	68 40 9d 13 80       	push   $0x80139d40
80108954:	e8 17 cc ff ff       	call   80105570 <acquire>
80108959:	ba 64 00 00 00       	mov    $0x64,%edx
8010895e:	ec                   	in     (%dx),%al
	return data;
8010895f:	be 60 00 00 00       	mov    $0x60,%esi
	int state;
	while (((state = inb(0x64)) & 1) == 1) {
80108964:	83 c4 10             	add    $0x10,%esp
80108967:	bb 64 00 00 00       	mov    $0x64,%ebx
8010896c:	a8 01                	test   $0x1,%al
8010896e:	75 41                	jne    801089b1 <mouseintr+0x71>
80108970:	e9 93 01 00 00       	jmp    80108b08 <mouseintr+0x1c8>
80108975:	8d 76 00             	lea    0x0(%esi),%esi
		int data = inb(0x60);
		count++;

		if (recovery == 0 && (data & 255) == 0)
80108978:	85 c9                	test   %ecx,%ecx
8010897a:	0f 85 90 00 00 00    	jne    80108a10 <mouseintr+0xd0>
			recovery = 1;
		else if (recovery == 1 && (data & 255) == 0)
			recovery = 2;
80108980:	c7 05 ec 9c 13 80 01 	movl   $0x1,0x80139cec
80108987:	00 00 00 
		else if ((data & 255) == 12)
			recovery = 0;
		else
			recovery = -1;

		switch (count) {
8010898a:	83 fa 02             	cmp    $0x2,%edx
8010898d:	0f 84 9d 01 00 00    	je     80108b30 <mouseintr+0x1f0>
80108993:	83 fa 03             	cmp    $0x3,%edx
80108996:	0f 84 34 01 00 00    	je     80108ad0 <mouseintr+0x190>
		case 3:
			packet.y_mov = data;
			packet.tick = tick;
			break;
		default:
			count = 0;
8010899c:	c7 05 f0 9c 13 80 00 	movl   $0x0,0x80139cf0
801089a3:	00 00 00 
	asm volatile("in %1,%0" : "=a"(data) : "d"(port));
801089a6:	89 da                	mov    %ebx,%edx
801089a8:	ec                   	in     (%dx),%al
	while (((state = inb(0x64)) & 1) == 1) {
801089a9:	a8 01                	test   $0x1,%al
801089ab:	0f 84 57 01 00 00    	je     80108b08 <mouseintr+0x1c8>
801089b1:	89 f2                	mov    %esi,%edx
801089b3:	ec                   	in     (%dx),%al
		count++;
801089b4:	8b 3d f0 9c 13 80    	mov    0x80139cf0,%edi
		int data = inb(0x60);
801089ba:	0f b6 c8             	movzbl %al,%ecx
		count++;
801089bd:	8d 57 01             	lea    0x1(%edi),%edx
		if (recovery == 0 && (data & 255) == 0)
801089c0:	8b 3d ec 9c 13 80    	mov    0x80139cec,%edi
		count++;
801089c6:	89 15 f0 9c 13 80    	mov    %edx,0x80139cf0
		if (recovery == 0 && (data & 255) == 0)
801089cc:	85 ff                	test   %edi,%edi
801089ce:	74 a8                	je     80108978 <mouseintr+0x38>
		else if (recovery == 1 && (data & 255) == 0)
801089d0:	85 c9                	test   %ecx,%ecx
801089d2:	75 3c                	jne    80108a10 <mouseintr+0xd0>
801089d4:	83 ff 01             	cmp    $0x1,%edi
801089d7:	75 37                	jne    80108a10 <mouseintr+0xd0>
		switch (count) {
801089d9:	83 fa 02             	cmp    $0x2,%edx
801089dc:	0f 84 6e 01 00 00    	je     80108b50 <mouseintr+0x210>
801089e2:	83 fa 03             	cmp    $0x3,%edx
801089e5:	75 12                	jne    801089f9 <mouseintr+0xb9>
			packet.y_mov = data;
801089e7:	c7 05 0c 9d 13 80 00 	movl   $0x0,0x80139d0c
801089ee:	00 00 00 
			packet.tick = tick;
801089f1:	8b 45 e4             	mov    -0x1c(%ebp),%eax
801089f4:	a3 24 9d 13 80       	mov    %eax,0x80139d24
			break;
		}

		if (recovery == 2) {
			count = 0;
801089f9:	c7 05 f0 9c 13 80 00 	movl   $0x0,0x80139cf0
80108a00:	00 00 00 
			recovery = -1;
80108a03:	c7 05 ec 9c 13 80 ff 	movl   $0xffffffff,0x80139cec
80108a0a:	ff ff ff 
80108a0d:	eb 97                	jmp    801089a6 <mouseintr+0x66>
80108a0f:	90                   	nop
		else if ((data & 255) == 12)
80108a10:	83 f9 0c             	cmp    $0xc,%ecx
80108a13:	0f 84 8f 00 00 00    	je     80108aa8 <mouseintr+0x168>
			recovery = -1;
80108a19:	c7 05 ec 9c 13 80 ff 	movl   $0xffffffff,0x80139cec
80108a20:	ff ff ff 
		switch (count) {
80108a23:	83 fa 02             	cmp    $0x2,%edx
80108a26:	0f 84 f4 00 00 00    	je     80108b20 <mouseintr+0x1e0>
80108a2c:	83 fa 03             	cmp    $0x3,%edx
80108a2f:	0f 84 9b 00 00 00    	je     80108ad0 <mouseintr+0x190>
80108a35:	83 fa 01             	cmp    $0x1,%edx
80108a38:	0f 85 5e ff ff ff    	jne    8010899c <mouseintr+0x5c>
			if (data & 0x08) {
80108a3e:	a8 08                	test   $0x8,%al
80108a40:	0f 84 56 ff ff ff    	je     8010899c <mouseintr+0x5c>
				packet.y_overflow = (data >> 7) & 0x1;
80108a46:	89 ca                	mov    %ecx,%edx
				packet.l_btn = (data >> 0) & 0x1;
80108a48:	83 e0 01             	and    $0x1,%eax
				packet.y_overflow = (data >> 7) & 0x1;
80108a4b:	c1 fa 07             	sar    $0x7,%edx
				packet.l_btn = (data >> 0) & 0x1;
80108a4e:	a3 10 9d 13 80       	mov    %eax,0x80139d10
				packet.y_overflow = (data >> 7) & 0x1;
80108a53:	89 15 20 9d 13 80    	mov    %edx,0x80139d20
				packet.x_overflow = (data >> 6) & 0x1;
80108a59:	89 ca                	mov    %ecx,%edx
80108a5b:	c1 fa 06             	sar    $0x6,%edx
80108a5e:	83 e2 01             	and    $0x1,%edx
80108a61:	89 15 1c 9d 13 80    	mov    %edx,0x80139d1c
				packet.y_sgn = (data >> 5) & 0x1;
80108a67:	89 ca                	mov    %ecx,%edx
80108a69:	c1 fa 05             	sar    $0x5,%edx
80108a6c:	83 e2 01             	and    $0x1,%edx
80108a6f:	89 15 04 9d 13 80    	mov    %edx,0x80139d04
				packet.x_sgn = (data >> 4) & 0x1;
80108a75:	89 ca                	mov    %ecx,%edx
80108a77:	c1 fa 04             	sar    $0x4,%edx
80108a7a:	83 e2 01             	and    $0x1,%edx
80108a7d:	89 15 00 9d 13 80    	mov    %edx,0x80139d00
				packet.m_btn = (data >> 2) & 0x1;
80108a83:	89 ca                	mov    %ecx,%edx
				packet.r_btn = (data >> 1) & 0x1;
80108a85:	d1 f9                	sar    $1,%ecx
				packet.m_btn = (data >> 2) & 0x1;
80108a87:	c1 fa 02             	sar    $0x2,%edx
				packet.r_btn = (data >> 1) & 0x1;
80108a8a:	83 e1 01             	and    $0x1,%ecx
				packet.m_btn = (data >> 2) & 0x1;
80108a8d:	83 e2 01             	and    $0x1,%edx
				packet.r_btn = (data >> 1) & 0x1;
80108a90:	89 0d 14 9d 13 80    	mov    %ecx,0x80139d14
				packet.m_btn = (data >> 2) & 0x1;
80108a96:	89 15 18 9d 13 80    	mov    %edx,0x80139d18
		if (recovery == 2) {
80108a9c:	e9 05 ff ff ff       	jmp    801089a6 <mouseintr+0x66>
80108aa1:	8d b4 26 00 00 00 00 	lea    0x0(%esi,%eiz,1),%esi
			recovery = 0;
80108aa8:	c7 05 ec 9c 13 80 00 	movl   $0x0,0x80139cec
80108aaf:	00 00 00 
		switch (count) {
80108ab2:	83 fa 02             	cmp    $0x2,%edx
80108ab5:	0f 84 85 00 00 00    	je     80108b40 <mouseintr+0x200>
80108abb:	83 fa 03             	cmp    $0x3,%edx
80108abe:	74 10                	je     80108ad0 <mouseintr+0x190>
80108ac0:	83 fa 01             	cmp    $0x1,%edx
80108ac3:	74 81                	je     80108a46 <mouseintr+0x106>
80108ac5:	e9 d2 fe ff ff       	jmp    8010899c <mouseintr+0x5c>
80108aca:	8d b6 00 00 00 00    	lea    0x0(%esi),%esi
			packet.tick = tick;
80108ad0:	8b 45 e4             	mov    -0x1c(%ebp),%eax
			packet.y_mov = data;
80108ad3:	89 0d 0c 9d 13 80    	mov    %ecx,0x80139d0c
		} else if (count == 3) {
			count = 0;
80108ad9:	c7 05 f0 9c 13 80 00 	movl   $0x0,0x80139cf0
80108ae0:	00 00 00 
			packet.tick = tick;
80108ae3:	a3 24 9d 13 80       	mov    %eax,0x80139d24
	if (packet.x_overflow || packet.y_overflow)
80108ae8:	a1 1c 9d 13 80       	mov    0x80139d1c,%eax
80108aed:	0b 05 20 9d 13 80    	or     0x80139d20,%eax
80108af3:	0f 85 ad fe ff ff    	jne    801089a6 <mouseintr+0x66>
80108af9:	e8 52 f9 ff ff       	call   80108450 <genMouseMessage.part.0>
80108afe:	e9 a3 fe ff ff       	jmp    801089a6 <mouseintr+0x66>
80108b03:	2e 8d 74 26 00       	lea    %cs:0x0(%esi,%eiz,1),%esi
			genMouseMessage();
		}
	}

	release(&mouselock);
80108b08:	c7 45 08 40 9d 13 80 	movl   $0x80139d40,0x8(%ebp)
}
80108b0f:	8d 65 f4             	lea    -0xc(%ebp),%esp
80108b12:	5b                   	pop    %ebx
80108b13:	5e                   	pop    %esi
80108b14:	5f                   	pop    %edi
80108b15:	5d                   	pop    %ebp
	release(&mouselock);
80108b16:	e9 f5 c9 ff ff       	jmp    80105510 <release>
80108b1b:	2e 8d 74 26 00       	lea    %cs:0x0(%esi,%eiz,1),%esi
			packet.x_mov = data;
80108b20:	89 0d 08 9d 13 80    	mov    %ecx,0x80139d08
		if (recovery == 2) {
80108b26:	e9 7b fe ff ff       	jmp    801089a6 <mouseintr+0x66>
80108b2b:	2e 8d 74 26 00       	lea    %cs:0x0(%esi,%eiz,1),%esi
			packet.x_mov = data;
80108b30:	c7 05 08 9d 13 80 00 	movl   $0x0,0x80139d08
80108b37:	00 00 00 
		if (recovery == 2) {
80108b3a:	e9 67 fe ff ff       	jmp    801089a6 <mouseintr+0x66>
80108b3f:	90                   	nop
			packet.x_mov = data;
80108b40:	c7 05 08 9d 13 80 0c 	movl   $0xc,0x80139d08
80108b47:	00 00 00 
		if (recovery == 2) {
80108b4a:	e9 57 fe ff ff       	jmp    801089a6 <mouseintr+0x66>
80108b4f:	90                   	nop
			packet.x_mov = data;
80108b50:	c7 05 08 9d 13 80 00 	movl   $0x0,0x80139d08
80108b57:	00 00 00 
		if (recovery == 2) {
80108b5a:	e9 9a fe ff ff       	jmp    801089f9 <mouseintr+0xb9>
80108b5f:	90                   	nop

80108b60 <handleMessage>:
#include "msg.h"
#include "defs.h"
#include "types.h"

int handleMessage(message *msg) {
80108b60:	55                   	push   %ebp
80108b61:	89 e5                	mov    %esp,%ebp
80108b63:	83 ec 14             	sub    $0x14,%esp
	else if (msg->msg_type == M_MOUSE_UP)
	{
		cprintf("MOUSE UP: btn=%x\n", msg->params[0]);
	}
	*/
	wmHandleMessage(msg);
80108b66:	ff 75 08             	push   0x8(%ebp)
80108b69:	e8 62 0a 00 00       	call   801095d0 <wmHandleMessage>

	return 0;
80108b6e:	31 c0                	xor    %eax,%eax
80108b70:	c9                   	leave
80108b71:	c3                   	ret
80108b72:	66 90                	xchg   %ax,%ax
80108b74:	66 90                	xchg   %ax,%ax
80108b76:	66 90                	xchg   %ax,%ax
80108b78:	66 90                	xchg   %ax,%ax
80108b7a:	66 90                	xchg   %ax,%ax
80108b7c:	66 90                	xchg   %ax,%ax
80108b7e:	66 90                	xchg   %ax,%ax

80108b80 <focusWindow.part.0>:
		cprintf("next Window at %d\n", windowlist[p].next);
		cprintf("\n");
	}
}

void focusWindow(int winId) {
80108b80:	89 c2                	mov    %eax,%edx
	if (winId == -1 || winId == windowlisttail)
		return;
	if (winId == windowlisthead) {
		int newhead = windowlist[winId].next;
80108b82:	c1 e0 03             	shl    $0x3,%eax
void focusWindow(int winId) {
80108b85:	55                   	push   %ebp
		int newhead = windowlist[winId].next;
80108b86:	8d 0c 10             	lea    (%eax,%edx,1),%ecx
80108b89:	c1 e1 08             	shl    $0x8,%ecx
80108b8c:	81 c1 20 a7 13 80    	add    $0x8013a720,%ecx
void focusWindow(int winId) {
80108b92:	89 e5                	mov    %esp,%ebp
80108b94:	56                   	push   %esi
80108b95:	53                   	push   %ebx
		int newhead = windowlist[winId].next;
80108b96:	8b 99 f8 08 00 00    	mov    0x8f8(%ecx),%ebx
	if (winId == windowlisthead) {
80108b9c:	39 15 00 a7 13 80    	cmp    %edx,0x8013a700
80108ba2:	74 5c                	je     80108c00 <focusWindow.part.0+0x80>
		windowlist[newhead].prev = -1;
		windowlisthead = newhead;
	} else {
		int prevWin = windowlist[winId].prev;
80108ba4:	8b b1 fc 08 00 00    	mov    0x8fc(%ecx),%esi
		int nextWin = windowlist[winId].next;
		windowlist[prevWin].next = nextWin;
80108baa:	8d 0c f6             	lea    (%esi,%esi,8),%ecx
80108bad:	c1 e1 08             	shl    $0x8,%ecx
80108bb0:	89 99 18 b0 13 80    	mov    %ebx,-0x7fec4fe8(%ecx)
		windowlist[nextWin].prev = prevWin;
80108bb6:	8d 0c db             	lea    (%ebx,%ebx,8),%ecx
80108bb9:	c1 e1 08             	shl    $0x8,%ecx
80108bbc:	89 b1 1c b0 13 80    	mov    %esi,-0x7fec4fe4(%ecx)
	windowlist[idx].prev = windowlisttail;
80108bc2:	8b 0d fc a6 13 80    	mov    0x8013a6fc,%ecx
80108bc8:	01 d0                	add    %edx,%eax
80108bca:	c1 e0 08             	shl    $0x8,%eax
80108bcd:	89 88 1c b0 13 80    	mov    %ecx,-0x7fec4fe4(%eax)
	windowlist[idx].next = -1;
80108bd3:	c7 80 18 b0 13 80 ff 	movl   $0xffffffff,-0x7fec4fe8(%eax)
80108bda:	ff ff ff 
	if (windowlisttail != -1)
80108bdd:	83 f9 ff             	cmp    $0xffffffff,%ecx
80108be0:	74 0c                	je     80108bee <focusWindow.part.0+0x6e>
		windowlist[windowlisttail].next = idx;
80108be2:	8d 04 c9             	lea    (%ecx,%ecx,8),%eax
80108be5:	c1 e0 08             	shl    $0x8,%eax
80108be8:	89 90 18 b0 13 80    	mov    %edx,-0x7fec4fe8(%eax)
	}
	addToWindowList(winId);
}
80108bee:	5b                   	pop    %ebx
80108bef:	5e                   	pop    %esi
	windowlisttail = idx;
80108bf0:	89 15 fc a6 13 80    	mov    %edx,0x8013a6fc
}
80108bf6:	5d                   	pop    %ebp
80108bf7:	c3                   	ret
80108bf8:	2e 8d b4 26 00 00 00 	lea    %cs:0x0(%esi,%eiz,1),%esi
80108bff:	00 
		windowlist[newhead].prev = -1;
80108c00:	8d 0c db             	lea    (%ebx,%ebx,8),%ecx
		windowlisthead = newhead;
80108c03:	89 1d 00 a7 13 80    	mov    %ebx,0x8013a700
		windowlist[newhead].prev = -1;
80108c09:	c1 e1 08             	shl    $0x8,%ecx
80108c0c:	c7 81 1c b0 13 80 ff 	movl   $0xffffffff,-0x7fec4fe4(%ecx)
80108c13:	ff ff ff 
		windowlisthead = newhead;
80108c16:	eb aa                	jmp    80108bc2 <focusWindow.part.0+0x42>
80108c18:	2e 8d b4 26 00 00 00 	lea    %cs:0x0(%esi,%eiz,1),%esi
80108c1f:	00 

80108c20 <min>:
int min(int x, int y) { return x < y ? x : y; }
80108c20:	55                   	push   %ebp
80108c21:	89 e5                	mov    %esp,%ebp
80108c23:	8b 45 0c             	mov    0xc(%ebp),%eax
80108c26:	8b 55 08             	mov    0x8(%ebp),%edx
80108c29:	5d                   	pop    %ebp
80108c2a:	39 d0                	cmp    %edx,%eax
80108c2c:	0f 4f c2             	cmovg  %edx,%eax
80108c2f:	c3                   	ret

80108c30 <max>:
int max(int x, int y) { return x > y ? x : y; }
80108c30:	55                   	push   %ebp
80108c31:	89 e5                	mov    %esp,%ebp
80108c33:	8b 45 0c             	mov    0xc(%ebp),%eax
80108c36:	8b 55 08             	mov    0x8(%ebp),%edx
80108c39:	5d                   	pop    %ebp
80108c3a:	39 d0                	cmp    %edx,%eax
80108c3c:	0f 4c c2             	cmovl  %edx,%eax
80108c3f:	c3                   	ret

80108c40 <clamp>:
int clamp(int x, int l, int r) { return min(r, max(l, x)); }
80108c40:	55                   	push   %ebp
80108c41:	89 e5                	mov    %esp,%ebp
int max(int x, int y) { return x > y ? x : y; }
80108c43:	8b 55 08             	mov    0x8(%ebp),%edx
int clamp(int x, int l, int r) { return min(r, max(l, x)); }
80108c46:	8b 45 0c             	mov    0xc(%ebp),%eax
int max(int x, int y) { return x > y ? x : y; }
80108c49:	39 d0                	cmp    %edx,%eax
80108c4b:	0f 4c c2             	cmovl  %edx,%eax
int min(int x, int y) { return x < y ? x : y; }
80108c4e:	8b 55 10             	mov    0x10(%ebp),%edx
int clamp(int x, int l, int r) { return min(r, max(l, x)); }
80108c51:	5d                   	pop    %ebp
int min(int x, int y) { return x < y ? x : y; }
80108c52:	39 d0                	cmp    %edx,%eax
80108c54:	0f 4f c2             	cmovg  %edx,%eax
int clamp(int x, int l, int r) { return min(r, max(l, x)); }
80108c57:	c3                   	ret
80108c58:	2e 8d b4 26 00 00 00 	lea    %cs:0x0(%esi,%eiz,1),%esi
80108c5f:	00 

80108c60 <isInRect>:
int isInRect(int xmin, int ymin, int xmax, int ymax, int x, int y) {
80108c60:	55                   	push   %ebp
80108c61:	89 e5                	mov    %esp,%ebp
80108c63:	8b 45 18             	mov    0x18(%ebp),%eax
80108c66:	8b 55 1c             	mov    0x1c(%ebp),%edx
	return (x >= xmin && x <= xmax && y >= ymin && y <= ymax);
80108c69:	3b 45 08             	cmp    0x8(%ebp),%eax
80108c6c:	7c 1a                	jl     80108c88 <isInRect+0x28>
80108c6e:	3b 45 10             	cmp    0x10(%ebp),%eax
80108c71:	7f 15                	jg     80108c88 <isInRect+0x28>
80108c73:	3b 55 0c             	cmp    0xc(%ebp),%edx
80108c76:	0f 9d c1             	setge  %cl
80108c79:	31 c0                	xor    %eax,%eax
80108c7b:	3b 55 14             	cmp    0x14(%ebp),%edx
}
80108c7e:	5d                   	pop    %ebp
	return (x >= xmin && x <= xmax && y >= ymin && y <= ymax);
80108c7f:	0f 9e c0             	setle  %al
80108c82:	21 c8                	and    %ecx,%eax
}
80108c84:	c3                   	ret
80108c85:	8d 76 00             	lea    0x0(%esi),%esi
	return (x >= xmin && x <= xmax && y >= ymin && y <= ymax);
80108c88:	31 c0                	xor    %eax,%eax
}
80108c8a:	5d                   	pop    %ebp
80108c8b:	c3                   	ret
80108c8c:	8d 74 26 00          	lea    0x0(%esi,%eiz,1),%esi

80108c90 <createRectByCoord>:
void createRectByCoord(win_rect *rect, int xmin, int ymin, int xmax, int ymax) {
80108c90:	55                   	push   %ebp
80108c91:	89 e5                	mov    %esp,%ebp
80108c93:	8b 45 08             	mov    0x8(%ebp),%eax
	rect->xmin = xmin;
80108c96:	8b 55 0c             	mov    0xc(%ebp),%edx
80108c99:	89 10                	mov    %edx,(%eax)
	rect->xmax = xmax;
80108c9b:	8b 55 14             	mov    0x14(%ebp),%edx
80108c9e:	89 50 04             	mov    %edx,0x4(%eax)
	rect->ymin = ymin;
80108ca1:	8b 55 10             	mov    0x10(%ebp),%edx
80108ca4:	89 50 08             	mov    %edx,0x8(%eax)
	rect->ymax = ymax;
80108ca7:	8b 55 18             	mov    0x18(%ebp),%edx
80108caa:	89 50 0c             	mov    %edx,0xc(%eax)
}
80108cad:	5d                   	pop    %ebp
80108cae:	c3                   	ret
80108caf:	90                   	nop

80108cb0 <createRectBySize>:
		      int height) {
80108cb0:	55                   	push   %ebp
80108cb1:	89 e5                	mov    %esp,%ebp
80108cb3:	8b 45 08             	mov    0x8(%ebp),%eax
80108cb6:	8b 4d 0c             	mov    0xc(%ebp),%ecx
80108cb9:	8b 55 10             	mov    0x10(%ebp),%edx
	rect->xmin = xmin;
80108cbc:	89 08                	mov    %ecx,(%eax)
	rect->xmax = xmin + width;
80108cbe:	03 4d 14             	add    0x14(%ebp),%ecx
	rect->ymin = ymin;
80108cc1:	89 50 08             	mov    %edx,0x8(%eax)
	rect->ymax = ymin + height;
80108cc4:	03 55 18             	add    0x18(%ebp),%edx
	rect->xmax = xmin + width;
80108cc7:	89 48 04             	mov    %ecx,0x4(%eax)
	rect->ymax = ymin + height;
80108cca:	89 50 0c             	mov    %edx,0xc(%eax)
}
80108ccd:	5d                   	pop    %ebp
80108cce:	c3                   	ret
80108ccf:	90                   	nop

80108cd0 <moveRect>:
void moveRect(win_rect *rect, int dx, int dy) {
80108cd0:	55                   	push   %ebp
80108cd1:	89 e5                	mov    %esp,%ebp
80108cd3:	8b 45 08             	mov    0x8(%ebp),%eax
80108cd6:	8b 4d 0c             	mov    0xc(%ebp),%ecx
80108cd9:	8b 55 10             	mov    0x10(%ebp),%edx
	rect->xmin += dx;
80108cdc:	01 08                	add    %ecx,(%eax)
	rect->xmax += dx;
80108cde:	01 48 04             	add    %ecx,0x4(%eax)
	rect->ymin += dy;
80108ce1:	01 50 08             	add    %edx,0x8(%eax)
	rect->ymax += dy;
80108ce4:	01 50 0c             	add    %edx,0xc(%eax)
}
80108ce7:	5d                   	pop    %ebp
80108ce8:	c3                   	ret
80108ce9:	8d b4 26 00 00 00 00 	lea    0x0(%esi,%eiz,1),%esi

80108cf0 <findNextAvailableWindowId>:
	for (int i = 0; i < MAX_WINDOW_CNT; i++) {
80108cf0:	ba 18 b0 13 80       	mov    $0x8013b018,%edx
80108cf5:	31 c0                	xor    %eax,%eax
80108cf7:	eb 15                	jmp    80108d0e <findNextAvailableWindowId+0x1e>
80108cf9:	8d b4 26 00 00 00 00 	lea    0x0(%esi,%eiz,1),%esi
80108d00:	83 c0 01             	add    $0x1,%eax
80108d03:	81 c2 00 09 00 00    	add    $0x900,%edx
80108d09:	83 f8 32             	cmp    $0x32,%eax
80108d0c:	74 12                	je     80108d20 <findNextAvailableWindowId+0x30>
		if (windowlist[i].prev == i && windowlist[i].next == i) {
80108d0e:	39 42 04             	cmp    %eax,0x4(%edx)
80108d11:	75 ed                	jne    80108d00 <findNextAvailableWindowId+0x10>
80108d13:	39 02                	cmp    %eax,(%edx)
80108d15:	75 e9                	jne    80108d00 <findNextAvailableWindowId+0x10>
}
80108d17:	c3                   	ret
80108d18:	2e 8d b4 26 00 00 00 	lea    %cs:0x0(%esi,%eiz,1),%esi
80108d1f:	00 
	return -1;
80108d20:	b8 ff ff ff ff       	mov    $0xffffffff,%eax
}
80108d25:	c3                   	ret
80108d26:	2e 8d b4 26 00 00 00 	lea    %cs:0x0(%esi,%eiz,1),%esi
80108d2d:	00 
80108d2e:	66 90                	xchg   %ax,%ax

80108d30 <addToWindowList>:
void addToWindowList(int idx) {
80108d30:	55                   	push   %ebp
	windowlist[idx].prev = windowlisttail;
80108d31:	8b 0d fc a6 13 80    	mov    0x8013a6fc,%ecx
void addToWindowList(int idx) {
80108d37:	89 e5                	mov    %esp,%ebp
80108d39:	8b 55 08             	mov    0x8(%ebp),%edx
	windowlist[idx].prev = windowlisttail;
80108d3c:	8d 04 d2             	lea    (%edx,%edx,8),%eax
80108d3f:	c1 e0 08             	shl    $0x8,%eax
80108d42:	89 88 1c b0 13 80    	mov    %ecx,-0x7fec4fe4(%eax)
	windowlist[idx].next = -1;
80108d48:	c7 80 18 b0 13 80 ff 	movl   $0xffffffff,-0x7fec4fe8(%eax)
80108d4f:	ff ff ff 
	if (windowlisttail != -1)
80108d52:	83 f9 ff             	cmp    $0xffffffff,%ecx
80108d55:	74 0c                	je     80108d63 <addToWindowList+0x33>
		windowlist[windowlisttail].next = idx;
80108d57:	8d 04 c9             	lea    (%ecx,%ecx,8),%eax
80108d5a:	c1 e0 08             	shl    $0x8,%eax
80108d5d:	89 90 18 b0 13 80    	mov    %edx,-0x7fec4fe8(%eax)
	windowlisttail = idx;
80108d63:	89 15 fc a6 13 80    	mov    %edx,0x8013a6fc
}
80108d69:	5d                   	pop    %ebp
80108d6a:	c3                   	ret
80108d6b:	2e 8d 74 26 00       	lea    %cs:0x0(%esi,%eiz,1),%esi

80108d70 <removeFromWindowList>:
void removeFromWindowList(int idx) {
80108d70:	55                   	push   %ebp
80108d71:	89 e5                	mov    %esp,%ebp
80108d73:	56                   	push   %esi
80108d74:	8b 55 08             	mov    0x8(%ebp),%edx
80108d77:	53                   	push   %ebx
		windowlisttail = windowlist[windowlisttail].prev;
80108d78:	8d 04 d5 00 00 00 00 	lea    0x0(,%edx,8),%eax
80108d7f:	8d 0c 10             	lea    (%eax,%edx,1),%ecx
80108d82:	c1 e1 08             	shl    $0x8,%ecx
80108d85:	8b 89 1c b0 13 80    	mov    -0x7fec4fe4(%ecx),%ecx
	if (windowlisttail == idx)
80108d8b:	39 15 fc a6 13 80    	cmp    %edx,0x8013a6fc
80108d91:	75 06                	jne    80108d99 <removeFromWindowList+0x29>
		windowlisttail = windowlist[windowlisttail].prev;
80108d93:	89 0d fc a6 13 80    	mov    %ecx,0x8013a6fc
	if (windowlist[idx].prev != -1)
80108d99:	83 f9 ff             	cmp    $0xffffffff,%ecx
80108d9c:	74 18                	je     80108db6 <removeFromWindowList+0x46>
		windowlist[windowlist[idx].prev].next = windowlist[idx].next;
80108d9e:	8d 1c 10             	lea    (%eax,%edx,1),%ebx
80108da1:	c1 e3 08             	shl    $0x8,%ebx
80108da4:	8b b3 18 b0 13 80    	mov    -0x7fec4fe8(%ebx),%esi
80108daa:	8d 1c c9             	lea    (%ecx,%ecx,8),%ebx
80108dad:	c1 e3 08             	shl    $0x8,%ebx
80108db0:	89 b3 18 b0 13 80    	mov    %esi,-0x7fec4fe8(%ebx)
	if (windowlist[idx].next != -1)
80108db6:	01 d0                	add    %edx,%eax
80108db8:	c1 e0 08             	shl    $0x8,%eax
80108dbb:	8b 80 18 b0 13 80    	mov    -0x7fec4fe8(%eax),%eax
80108dc1:	83 f8 ff             	cmp    $0xffffffff,%eax
80108dc4:	74 0c                	je     80108dd2 <removeFromWindowList+0x62>
		windowlist[windowlist[idx].next].prev = windowlist[idx].prev;
80108dc6:	8d 04 c0             	lea    (%eax,%eax,8),%eax
80108dc9:	c1 e0 08             	shl    $0x8,%eax
80108dcc:	89 88 1c b0 13 80    	mov    %ecx,-0x7fec4fe4(%eax)
}
80108dd2:	5b                   	pop    %ebx
80108dd3:	5e                   	pop    %esi
80108dd4:	5d                   	pop    %ebp
80108dd5:	c3                   	ret
80108dd6:	2e 8d b4 26 00 00 00 	lea    %cs:0x0(%esi,%eiz,1),%esi
80108ddd:	00 
80108dde:	66 90                	xchg   %ax,%ax

80108de0 <initMessageQueue>:
void initMessageQueue(msg_buf *buf) { buf->front = buf->rear = buf->cnt = 0; }
80108de0:	55                   	push   %ebp
80108de1:	89 e5                	mov    %esp,%ebp
80108de3:	8b 45 08             	mov    0x8(%ebp),%eax
80108de6:	c7 80 a0 08 00 00 00 	movl   $0x0,0x8a0(%eax)
80108ded:	00 00 00 
80108df0:	c7 80 9c 08 00 00 00 	movl   $0x0,0x89c(%eax)
80108df7:	00 00 00 
80108dfa:	c7 80 98 08 00 00 00 	movl   $0x0,0x898(%eax)
80108e01:	00 00 00 
80108e04:	5d                   	pop    %ebp
80108e05:	c3                   	ret
80108e06:	2e 8d b4 26 00 00 00 	lea    %cs:0x0(%esi,%eiz,1),%esi
80108e0d:	00 
80108e0e:	66 90                	xchg   %ax,%ax

80108e10 <dispatchMessage>:
int dispatchMessage(msg_buf *buf, message *msg) {
80108e10:	55                   	push   %ebp
80108e11:	b9 01 00 00 00       	mov    $0x1,%ecx
80108e16:	89 e5                	mov    %esp,%ebp
80108e18:	56                   	push   %esi
80108e19:	53                   	push   %ebx
80108e1a:	8b 5d 08             	mov    0x8(%ebp),%ebx
80108e1d:	8b 55 0c             	mov    0xc(%ebp),%edx
	if (buf->cnt >= MSG_BUF_SIZE)
80108e20:	8b 83 a0 08 00 00    	mov    0x8a0(%ebx),%eax
80108e26:	83 f8 31             	cmp    $0x31,%eax
80108e29:	7f 67                	jg     80108e92 <dispatchMessage+0x82>
	buf->data[buf->rear] = *msg;
80108e2b:	8b 8b 9c 08 00 00    	mov    0x89c(%ebx),%ecx
	++buf->cnt;
80108e31:	83 c0 01             	add    $0x1,%eax
80108e34:	89 83 a0 08 00 00    	mov    %eax,0x8a0(%ebx)
	buf->data[buf->rear] = *msg;
80108e3a:	8b 32                	mov    (%edx),%esi
80108e3c:	6b c1 2c             	imul   $0x2c,%ecx,%eax
80108e3f:	01 d8                	add    %ebx,%eax
80108e41:	89 30                	mov    %esi,(%eax)
80108e43:	8b 72 04             	mov    0x4(%edx),%esi
80108e46:	89 70 04             	mov    %esi,0x4(%eax)
80108e49:	8b 72 08             	mov    0x8(%edx),%esi
80108e4c:	89 70 08             	mov    %esi,0x8(%eax)
80108e4f:	8b 72 0c             	mov    0xc(%edx),%esi
80108e52:	89 70 0c             	mov    %esi,0xc(%eax)
80108e55:	8b 72 10             	mov    0x10(%edx),%esi
80108e58:	89 70 10             	mov    %esi,0x10(%eax)
80108e5b:	8b 72 14             	mov    0x14(%edx),%esi
80108e5e:	89 70 14             	mov    %esi,0x14(%eax)
80108e61:	8b 72 18             	mov    0x18(%edx),%esi
80108e64:	89 70 18             	mov    %esi,0x18(%eax)
80108e67:	8b 72 1c             	mov    0x1c(%edx),%esi
80108e6a:	89 70 1c             	mov    %esi,0x1c(%eax)
80108e6d:	8b 72 20             	mov    0x20(%edx),%esi
80108e70:	89 70 20             	mov    %esi,0x20(%eax)
80108e73:	8b 72 24             	mov    0x24(%edx),%esi
80108e76:	89 70 24             	mov    %esi,0x24(%eax)
80108e79:	8b 52 28             	mov    0x28(%edx),%edx
80108e7c:	89 50 28             	mov    %edx,0x28(%eax)
	if ((++buf->rear) >= MSG_BUF_SIZE)
80108e7f:	8d 41 01             	lea    0x1(%ecx),%eax
80108e82:	31 d2                	xor    %edx,%edx
80108e84:	83 f8 31             	cmp    $0x31,%eax
80108e87:	0f 4f c2             	cmovg  %edx,%eax
	return 0;
80108e8a:	31 c9                	xor    %ecx,%ecx
	if ((++buf->rear) >= MSG_BUF_SIZE)
80108e8c:	89 83 9c 08 00 00    	mov    %eax,0x89c(%ebx)
}
80108e92:	5b                   	pop    %ebx
80108e93:	89 c8                	mov    %ecx,%eax
80108e95:	5e                   	pop    %esi
80108e96:	5d                   	pop    %ebp
80108e97:	c3                   	ret
80108e98:	2e 8d b4 26 00 00 00 	lea    %cs:0x0(%esi,%eiz,1),%esi
80108e9f:	00 

80108ea0 <getMessage>:
int getMessage(msg_buf *buf, message *result) {
80108ea0:	55                   	push   %ebp
80108ea1:	89 e5                	mov    %esp,%ebp
80108ea3:	56                   	push   %esi
80108ea4:	53                   	push   %ebx
80108ea5:	8b 75 08             	mov    0x8(%ebp),%esi
80108ea8:	8b 5d 0c             	mov    0xc(%ebp),%ebx
	if (buf->cnt == 0)
80108eab:	8b 86 a0 08 00 00    	mov    0x8a0(%esi),%eax
80108eb1:	85 c0                	test   %eax,%eax
80108eb3:	75 13                	jne    80108ec8 <getMessage+0x28>
}
80108eb5:	8d 65 f8             	lea    -0x8(%ebp),%esp
80108eb8:	b8 01 00 00 00       	mov    $0x1,%eax
80108ebd:	5b                   	pop    %ebx
80108ebe:	5e                   	pop    %esi
80108ebf:	5d                   	pop    %ebp
80108ec0:	c3                   	ret
80108ec1:	8d b4 26 00 00 00 00 	lea    0x0(%esi,%eiz,1),%esi
	acquire(&wmlock);
80108ec8:	83 ec 0c             	sub    $0xc,%esp
80108ecb:	68 80 9d 13 80       	push   $0x80139d80
80108ed0:	e8 9b c6 ff ff       	call   80105570 <acquire>
	*result = buf->data[buf->front];
80108ed5:	6b 86 98 08 00 00 2c 	imul   $0x2c,0x898(%esi),%eax
80108edc:	01 f0                	add    %esi,%eax
80108ede:	8b 10                	mov    (%eax),%edx
80108ee0:	89 13                	mov    %edx,(%ebx)
80108ee2:	8b 50 04             	mov    0x4(%eax),%edx
80108ee5:	89 53 04             	mov    %edx,0x4(%ebx)
80108ee8:	8b 50 08             	mov    0x8(%eax),%edx
80108eeb:	89 53 08             	mov    %edx,0x8(%ebx)
80108eee:	8b 50 0c             	mov    0xc(%eax),%edx
80108ef1:	89 53 0c             	mov    %edx,0xc(%ebx)
80108ef4:	8b 50 10             	mov    0x10(%eax),%edx
80108ef7:	89 53 10             	mov    %edx,0x10(%ebx)
80108efa:	8b 50 14             	mov    0x14(%eax),%edx
80108efd:	89 53 14             	mov    %edx,0x14(%ebx)
80108f00:	8b 50 18             	mov    0x18(%eax),%edx
80108f03:	89 53 18             	mov    %edx,0x18(%ebx)
80108f06:	8b 50 1c             	mov    0x1c(%eax),%edx
80108f09:	89 53 1c             	mov    %edx,0x1c(%ebx)
80108f0c:	8b 50 20             	mov    0x20(%eax),%edx
80108f0f:	89 53 20             	mov    %edx,0x20(%ebx)
80108f12:	8b 50 24             	mov    0x24(%eax),%edx
80108f15:	89 53 24             	mov    %edx,0x24(%ebx)
80108f18:	8b 40 28             	mov    0x28(%eax),%eax
80108f1b:	89 43 28             	mov    %eax,0x28(%ebx)
	buf->front = (buf->front + 1) % MSG_BUF_SIZE;
80108f1e:	8b 86 98 08 00 00    	mov    0x898(%esi),%eax
	buf->cnt--;
80108f24:	83 ae a0 08 00 00 01 	subl   $0x1,0x8a0(%esi)
	buf->front = (buf->front + 1) % MSG_BUF_SIZE;
80108f2b:	8d 48 01             	lea    0x1(%eax),%ecx
80108f2e:	b8 1f 85 eb 51       	mov    $0x51eb851f,%eax
80108f33:	f7 e9                	imul   %ecx
80108f35:	89 c8                	mov    %ecx,%eax
80108f37:	c1 f8 1f             	sar    $0x1f,%eax
80108f3a:	c1 fa 04             	sar    $0x4,%edx
80108f3d:	29 c2                	sub    %eax,%edx
80108f3f:	6b d2 32             	imul   $0x32,%edx,%edx
80108f42:	29 d1                	sub    %edx,%ecx
80108f44:	89 8e 98 08 00 00    	mov    %ecx,0x898(%esi)
	release(&wmlock);
80108f4a:	c7 04 24 80 9d 13 80 	movl   $0x80139d80,(%esp)
80108f51:	e8 ba c5 ff ff       	call   80105510 <release>
80108f56:	83 c4 10             	add    $0x10,%esp
}
80108f59:	8d 65 f8             	lea    -0x8(%ebp),%esp
	release(&wmlock);
80108f5c:	31 c0                	xor    %eax,%eax
}
80108f5e:	5b                   	pop    %ebx
80108f5f:	5e                   	pop    %esi
80108f60:	5d                   	pop    %ebp
80108f61:	c3                   	ret
80108f62:	2e 8d b4 26 00 00 00 	lea    %cs:0x0(%esi,%eiz,1),%esi
80108f69:	00 
80108f6a:	8d b6 00 00 00 00    	lea    0x0(%esi),%esi

80108f70 <wmInit>:
void wmInit() {
80108f70:	55                   	push   %ebp
80108f71:	89 e5                	mov    %esp,%ebp
80108f73:	83 ec 08             	sub    $0x8,%esp
	wm_mouse_pos.x = SCREEN_WIDTH / 2;
80108f76:	0f b7 05 d6 9c 13 80 	movzwl 0x80139cd6,%eax
	titleBarColor = (struct RGBA){.R = 45, .G = 52, .B = 64, .A = 255};
80108f7d:	c7 05 cc 9d 13 80 ff 	movl   $0x2d3440ff,0x80139dcc
80108f84:	40 34 2d 
	dockColor = (struct RGBA){.R = 30, .G = 35, .B = 42, .A = 255};
80108f87:	c7 05 c8 9d 13 80 ff 	movl   $0x1e232aff,0x80139dc8
80108f8e:	2a 23 1e 
	closeColor.A = 255;
80108f91:	c7 05 c4 9d 13 80 ff 	movl   $0xef5350ff,0x80139dc4
80108f98:	50 53 ef 
	wm_mouse_pos.x = SCREEN_WIDTH / 2;
80108f9b:	66 d1 e8             	shr    $1,%ax
	iconColor.A = 255;
80108f9e:	c7 05 b8 9d 13 80 ff 	movl   $0xffffffff,0x80139db8
80108fa5:	ff ff ff 
	wm_mouse_pos.x = SCREEN_WIDTH / 2;
80108fa8:	0f b7 c0             	movzwl %ax,%eax
80108fab:	a3 d8 9d 13 80       	mov    %eax,0x80139dd8
	wm_mouse_pos.y = SCREEN_HEIGHT / 2;
80108fb0:	0f b7 05 d4 9c 13 80 	movzwl 0x80139cd4,%eax
	titleTextColor.A = 255;
80108fb7:	c7 05 b4 9d 13 80 ff 	movl   $0xffffffff,0x80139db4
80108fbe:	ff ff ff 
	minimizeColor.A = 255;
80108fc1:	c7 05 bc 9d 13 80 ff 	movl   $0x646c78ff,0x80139dbc
80108fc8:	78 6c 64 
	wm_mouse_pos.y = SCREEN_HEIGHT / 2;
80108fcb:	66 d1 e8             	shr    $1,%ax
	txtColor.R = txtColor.G = txtColor.B = txtColor.A = 255;
80108fce:	c7 05 c0 9d 13 80 ff 	movl   $0xffffffff,0x80139dc0
80108fd5:	ff ff ff 
	wm_mouse_pos.y = SCREEN_HEIGHT / 2;
80108fd8:	0f b7 c0             	movzwl %ax,%eax
80108fdb:	a3 dc 9d 13 80       	mov    %eax,0x80139ddc
	wm_last_mouse_pos = wm_mouse_pos;
80108fe0:	a1 d8 9d 13 80       	mov    0x80139dd8,%eax
80108fe5:	8b 15 dc 9d 13 80    	mov    0x80139ddc,%edx
	mouseShape = 0;
80108feb:	c7 05 ec 9d 13 80 00 	movl   $0x0,0x80139dec
80108ff2:	00 00 00 
	windowlisthead = -1;
80108ff5:	c7 05 00 a7 13 80 ff 	movl   $0xffffffff,0x8013a700
80108ffc:	ff ff ff 
	windowlisttail = -1;
80108fff:	c7 05 fc a6 13 80 ff 	movl   $0xffffffff,0x8013a6fc
80109006:	ff ff ff 
	wm_last_mouse_pos = wm_mouse_pos;
80109009:	a3 d0 9d 13 80       	mov    %eax,0x80139dd0
	for (i = 0; i < MAX_WINDOW_CNT; ++i) {
8010900e:	31 c0                	xor    %eax,%eax
	wm_last_mouse_pos = wm_mouse_pos;
80109010:	89 15 d4 9d 13 80    	mov    %edx,0x80139dd4
	for (i = 0; i < MAX_WINDOW_CNT; ++i) {
80109016:	ba 18 b0 13 80       	mov    $0x8013b018,%edx
8010901b:	2e 8d 74 26 00       	lea    %cs:0x0(%esi,%eiz,1),%esi
		windowlist[i].next = i;
80109020:	89 02                	mov    %eax,(%edx)
	for (i = 0; i < MAX_WINDOW_CNT; ++i) {
80109022:	81 c2 00 09 00 00    	add    $0x900,%edx
		windowlist[i].prev = i;
80109028:	89 82 04 f7 ff ff    	mov    %eax,-0x8fc(%edx)
	for (i = 0; i < MAX_WINDOW_CNT; ++i) {
8010902e:	83 c0 01             	add    $0x1,%eax
80109031:	83 f8 32             	cmp    $0x32,%eax
80109034:	75 ea                	jne    80109020 <wmInit+0xb0>
	popupwindow.caller = -1;
80109036:	c7 05 f8 a6 13 80 ff 	movl   $0xffffffff,0x8013a6f8
8010903d:	ff ff ff 
	initlock(&wmlock, "wmlock");
80109040:	83 ec 08             	sub    $0x8,%esp
80109043:	68 82 b7 10 80       	push   $0x8010b782
80109048:	68 80 9d 13 80       	push   $0x80139d80
	clickedOnTitle = clickedOnContent = clickedOnPopup = 0;
8010904d:	c7 05 e0 9d 13 80 00 	movl   $0x0,0x80139de0
80109054:	00 00 00 
80109057:	c7 05 e4 9d 13 80 00 	movl   $0x0,0x80139de4
8010905e:	00 00 00 
80109061:	c7 05 e8 9d 13 80 00 	movl   $0x0,0x80139de8
80109068:	00 00 00 
	initlock(&wmlock, "wmlock");
8010906b:	e8 10 c3 ff ff       	call   80105380 <initlock>
}
80109070:	83 c4 10             	add    $0x10,%esp
80109073:	c9                   	leave
80109074:	c3                   	ret
80109075:	2e 8d b4 26 00 00 00 	lea    %cs:0x0(%esi,%eiz,1),%esi
8010907c:	00 
8010907d:	8d 76 00             	lea    0x0(%esi),%esi

80109080 <debugPrintWindowList>:
void debugPrintWindowList() {
80109080:	55                   	push   %ebp
80109081:	89 e5                	mov    %esp,%ebp
80109083:	53                   	push   %ebx
80109084:	83 ec 10             	sub    $0x10,%esp
	cprintf("############################\n");
80109087:	68 89 b7 10 80       	push   $0x8010b789
8010908c:	e8 8f 80 ff ff       	call   80101120 <cprintf>
	cprintf("current Proc at %d\n", myproc());
80109091:	e8 5a b8 ff ff       	call   801048f0 <myproc>
80109096:	59                   	pop    %ecx
80109097:	5b                   	pop    %ebx
80109098:	50                   	push   %eax
80109099:	68 a7 b7 10 80       	push   $0x8010b7a7
8010909e:	e8 7d 80 ff ff       	call   80101120 <cprintf>
	cprintf("current Head at %d\n", windowlisthead);
801090a3:	58                   	pop    %eax
801090a4:	5a                   	pop    %edx
801090a5:	ff 35 00 a7 13 80    	push   0x8013a700
801090ab:	68 bb b7 10 80       	push   $0x8010b7bb
801090b0:	e8 6b 80 ff ff       	call   80101120 <cprintf>
	cprintf("current Tail at %d\n", windowlisttail);
801090b5:	59                   	pop    %ecx
801090b6:	5b                   	pop    %ebx
801090b7:	ff 35 fc a6 13 80    	push   0x8013a6fc
801090bd:	68 cf b7 10 80       	push   $0x8010b7cf
801090c2:	e8 59 80 ff ff       	call   80101120 <cprintf>
	cprintf("\n");
801090c7:	c7 04 24 a5 b7 10 80 	movl   $0x8010b7a5,(%esp)
801090ce:	e8 4d 80 ff ff       	call   80101120 <cprintf>
	for (p = windowlisthead; p != -1; p = windowlist[p].next) {
801090d3:	8b 1d 00 a7 13 80    	mov    0x8013a700,%ebx
801090d9:	83 c4 10             	add    $0x10,%esp
801090dc:	83 fb ff             	cmp    $0xffffffff,%ebx
801090df:	74 71                	je     80109152 <debugPrintWindowList+0xd2>
801090e1:	8d b4 26 00 00 00 00 	lea    0x0(%esi,%eiz,1),%esi
		cprintf("current Window at %d\n", p);
801090e8:	83 ec 08             	sub    $0x8,%esp
801090eb:	53                   	push   %ebx
801090ec:	68 e3 b7 10 80       	push   $0x8010b7e3
801090f1:	e8 2a 80 ff ff       	call   80101120 <cprintf>
		cprintf("current Window proc %d\n", windowlist[p].proc);
801090f6:	58                   	pop    %eax
801090f7:	8d 04 db             	lea    (%ebx,%ebx,8),%eax
801090fa:	5a                   	pop    %edx
801090fb:	c1 e0 08             	shl    $0x8,%eax
801090fe:	ff b0 20 a7 13 80    	push   -0x7fec58e0(%eax)
80109104:	8d 98 20 a7 13 80    	lea    -0x7fec58e0(%eax),%ebx
8010910a:	68 f9 b7 10 80       	push   $0x8010b7f9
8010910f:	e8 0c 80 ff ff       	call   80101120 <cprintf>
		cprintf("prev Window at %d\n", windowlist[p].prev);
80109114:	59                   	pop    %ecx
80109115:	58                   	pop    %eax
80109116:	ff b3 fc 08 00 00    	push   0x8fc(%ebx)
8010911c:	68 11 b8 10 80       	push   $0x8010b811
80109121:	e8 fa 7f ff ff       	call   80101120 <cprintf>
		cprintf("next Window at %d\n", windowlist[p].next);
80109126:	58                   	pop    %eax
80109127:	5a                   	pop    %edx
80109128:	ff b3 f8 08 00 00    	push   0x8f8(%ebx)
8010912e:	68 24 b8 10 80       	push   $0x8010b824
80109133:	e8 e8 7f ff ff       	call   80101120 <cprintf>
		cprintf("\n");
80109138:	c7 04 24 a5 b7 10 80 	movl   $0x8010b7a5,(%esp)
8010913f:	e8 dc 7f ff ff       	call   80101120 <cprintf>
	for (p = windowlisthead; p != -1; p = windowlist[p].next) {
80109144:	8b 9b f8 08 00 00    	mov    0x8f8(%ebx),%ebx
8010914a:	83 c4 10             	add    $0x10,%esp
8010914d:	83 fb ff             	cmp    $0xffffffff,%ebx
80109150:	75 96                	jne    801090e8 <debugPrintWindowList+0x68>
}
80109152:	8b 5d fc             	mov    -0x4(%ebp),%ebx
80109155:	c9                   	leave
80109156:	c3                   	ret
80109157:	2e 8d b4 26 00 00 00 	lea    %cs:0x0(%esi,%eiz,1),%esi
8010915e:	00 
8010915f:	90                   	nop

80109160 <focusWindow>:
void focusWindow(int winId) {
80109160:	55                   	push   %ebp
80109161:	89 e5                	mov    %esp,%ebp
80109163:	57                   	push   %edi
80109164:	8b 45 08             	mov    0x8(%ebp),%eax
80109167:	56                   	push   %esi
80109168:	53                   	push   %ebx
	if (winId == -1 || winId == windowlisttail)
80109169:	83 f8 ff             	cmp    $0xffffffff,%eax
8010916c:	74 74                	je     801091e2 <focusWindow+0x82>
8010916e:	8b 0d fc a6 13 80    	mov    0x8013a6fc,%ecx
80109174:	39 c1                	cmp    %eax,%ecx
80109176:	74 6a                	je     801091e2 <focusWindow+0x82>
		int newhead = windowlist[winId].next;
80109178:	8d 14 c5 00 00 00 00 	lea    0x0(,%eax,8),%edx
8010917f:	8d 1c 02             	lea    (%edx,%eax,1),%ebx
80109182:	c1 e3 08             	shl    $0x8,%ebx
80109185:	81 c3 20 a7 13 80    	add    $0x8013a720,%ebx
8010918b:	8b b3 f8 08 00 00    	mov    0x8f8(%ebx),%esi
	if (winId == windowlisthead) {
80109191:	3b 05 00 a7 13 80    	cmp    0x8013a700,%eax
80109197:	74 57                	je     801091f0 <focusWindow+0x90>
		int prevWin = windowlist[winId].prev;
80109199:	8b bb fc 08 00 00    	mov    0x8fc(%ebx),%edi
		windowlist[prevWin].next = nextWin;
8010919f:	8d 1c ff             	lea    (%edi,%edi,8),%ebx
801091a2:	c1 e3 08             	shl    $0x8,%ebx
801091a5:	89 b3 18 b0 13 80    	mov    %esi,-0x7fec4fe8(%ebx)
		windowlist[nextWin].prev = prevWin;
801091ab:	8d 1c f6             	lea    (%esi,%esi,8),%ebx
801091ae:	c1 e3 08             	shl    $0x8,%ebx
801091b1:	89 bb 1c b0 13 80    	mov    %edi,-0x7fec4fe4(%ebx)
	windowlist[idx].prev = windowlisttail;
801091b7:	01 c2                	add    %eax,%edx
801091b9:	c1 e2 08             	shl    $0x8,%edx
801091bc:	89 8a 1c b0 13 80    	mov    %ecx,-0x7fec4fe4(%edx)
	windowlist[idx].next = -1;
801091c2:	c7 82 18 b0 13 80 ff 	movl   $0xffffffff,-0x7fec4fe8(%edx)
801091c9:	ff ff ff 
	if (windowlisttail != -1)
801091cc:	83 f9 ff             	cmp    $0xffffffff,%ecx
801091cf:	74 0c                	je     801091dd <focusWindow+0x7d>
		windowlist[windowlisttail].next = idx;
801091d1:	8d 14 c9             	lea    (%ecx,%ecx,8),%edx
801091d4:	c1 e2 08             	shl    $0x8,%edx
801091d7:	89 82 18 b0 13 80    	mov    %eax,-0x7fec4fe8(%edx)
	windowlisttail = idx;
801091dd:	a3 fc a6 13 80       	mov    %eax,0x8013a6fc
}
801091e2:	5b                   	pop    %ebx
801091e3:	5e                   	pop    %esi
801091e4:	5f                   	pop    %edi
801091e5:	5d                   	pop    %ebp
801091e6:	c3                   	ret
801091e7:	2e 8d b4 26 00 00 00 	lea    %cs:0x0(%esi,%eiz,1),%esi
801091ee:	00 
801091ef:	90                   	nop
		windowlist[newhead].prev = -1;
801091f0:	8d 1c f6             	lea    (%esi,%esi,8),%ebx
		windowlisthead = newhead;
801091f3:	89 35 00 a7 13 80    	mov    %esi,0x8013a700
		windowlist[newhead].prev = -1;
801091f9:	c1 e3 08             	shl    $0x8,%ebx
801091fc:	c7 83 1c b0 13 80 ff 	movl   $0xffffffff,-0x7fec4fe4(%ebx)
80109203:	ff ff ff 
		windowlisthead = newhead;
80109206:	eb af                	jmp    801091b7 <focusWindow+0x57>
80109208:	2e 8d b4 26 00 00 00 	lea    %cs:0x0(%esi,%eiz,1),%esi
8010920f:	00 

80109210 <moveFocusWindow>:

void moveFocusWindow(int dx, int dy) {
	if (windowlist[windowlisttail].wnd.hasTitleBar) {
80109210:	a1 fc a6 13 80       	mov    0x8013a6fc,%eax
void moveFocusWindow(int dx, int dy) {
80109215:	55                   	push   %ebp
	if (windowlist[windowlisttail].wnd.hasTitleBar) {
80109216:	8d 14 c0             	lea    (%eax,%eax,8),%edx
80109219:	c1 e2 08             	shl    $0x8,%edx
void moveFocusWindow(int dx, int dy) {
8010921c:	89 e5                	mov    %esp,%ebp
	if (windowlist[windowlisttail].wnd.hasTitleBar) {
8010921e:	8b 82 14 b0 13 80    	mov    -0x7fec4fec(%edx),%eax
void moveFocusWindow(int dx, int dy) {
80109224:	8b 4d 0c             	mov    0xc(%ebp),%ecx
	if (windowlist[windowlisttail].wnd.hasTitleBar) {
80109227:	85 c0                	test   %eax,%eax
80109229:	74 15                	je     80109240 <moveFocusWindow+0x30>
8010922b:	8d 82 20 a7 13 80    	lea    -0x7fec58e0(%edx),%eax
	rect->xmin += dx;
80109231:	8b 55 08             	mov    0x8(%ebp),%edx
	rect->ymin += dy;
80109234:	01 48 0c             	add    %ecx,0xc(%eax)
	rect->xmin += dx;
80109237:	01 50 04             	add    %edx,0x4(%eax)
	rect->xmax += dx;
8010923a:	01 50 08             	add    %edx,0x8(%eax)
	rect->ymax += dy;
8010923d:	01 48 10             	add    %ecx,0x10(%eax)
		moveRect(&windowlist[windowlisttail].wnd.position, dx, dy);
	}
}
80109240:	5d                   	pop    %ebp
80109241:	c3                   	ret
80109242:	2e 8d b4 26 00 00 00 	lea    %cs:0x0(%esi,%eiz,1),%esi
80109249:	00 
8010924a:	8d b6 00 00 00 00    	lea    0x0(%esi),%esi

80109250 <getWindowCount>:

int getWindowCount() {
	int windowCount = 0;

	for (int p = windowlisthead; p != -1; p = windowlist[p].next) {
80109250:	a1 00 a7 13 80       	mov    0x8013a700,%eax
80109255:	83 f8 ff             	cmp    $0xffffffff,%eax
80109258:	74 3e                	je     80109298 <getWindowCount+0x48>
int getWindowCount() {
8010925a:	55                   	push   %ebp
	int windowCount = 0;
8010925b:	31 d2                	xor    %edx,%edx
int getWindowCount() {
8010925d:	89 e5                	mov    %esp,%ebp
8010925f:	53                   	push   %ebx
		if (p != desktopId) {
80109260:	8b 1d 7c 22 11 80    	mov    0x8011227c,%ebx
80109266:	2e 8d b4 26 00 00 00 	lea    %cs:0x0(%esi,%eiz,1),%esi
8010926d:	00 
8010926e:	66 90                	xchg   %ax,%ax
			windowCount++;
80109270:	31 c9                	xor    %ecx,%ecx
80109272:	39 c3                	cmp    %eax,%ebx
	for (int p = windowlisthead; p != -1; p = windowlist[p].next) {
80109274:	8d 04 c0             	lea    (%eax,%eax,8),%eax
			windowCount++;
80109277:	0f 95 c1             	setne  %cl
	for (int p = windowlisthead; p != -1; p = windowlist[p].next) {
8010927a:	c1 e0 08             	shl    $0x8,%eax
8010927d:	8b 80 18 b0 13 80    	mov    -0x7fec4fe8(%eax),%eax
			windowCount++;
80109283:	01 ca                	add    %ecx,%edx
	for (int p = windowlisthead; p != -1; p = windowlist[p].next) {
80109285:	83 f8 ff             	cmp    $0xffffffff,%eax
80109288:	75 e6                	jne    80109270 <getWindowCount+0x20>
		}
	}
	return windowCount;
}
8010928a:	8b 5d fc             	mov    -0x4(%ebp),%ebx
8010928d:	89 d0                	mov    %edx,%eax
8010928f:	c9                   	leave
80109290:	c3                   	ret
80109291:	8d b4 26 00 00 00 00 	lea    0x0(%esi,%eiz,1),%esi
80109298:	31 c0                	xor    %eax,%eax
8010929a:	c3                   	ret
8010929b:	2e 8d 74 26 00       	lea    %cs:0x0(%esi,%eiz,1),%esi

801092a0 <handleDesktopDockClick>:

void handleDesktopDockClick(int mouse_x, message *msg) {
801092a0:	55                   	push   %ebp
801092a1:	89 e5                	mov    %esp,%ebp
801092a3:	57                   	push   %edi
801092a4:	56                   	push   %esi
801092a5:	53                   	push   %ebx
801092a6:	83 ec 1c             	sub    $0x1c,%esp
				}
				xStart += barWidth;
			}
		}
	}
	if (mouse_x >= SCREEN_WIDTH - SHOW_DESKTOP_ICON_WIDTH) {
801092a9:	0f b7 05 d6 9c 13 80 	movzwl 0x80139cd6,%eax
	for (int p = windowlisthead; p != -1; p = windowlist[p].next) {
801092b0:	8b 3d 00 a7 13 80    	mov    0x8013a700,%edi
	if (mouse_x >= SCREEN_WIDTH - SHOW_DESKTOP_ICON_WIDTH) {
801092b6:	89 45 e4             	mov    %eax,-0x1c(%ebp)
	for (int p = windowlisthead; p != -1; p = windowlist[p].next) {
801092b9:	83 ff ff             	cmp    $0xffffffff,%edi
801092bc:	0f 84 8e 00 00 00    	je     80109350 <handleDesktopDockClick+0xb0>
		if (p != desktopId) {
801092c2:	8b 1d 7c 22 11 80    	mov    0x8011227c,%ebx
	for (int p = windowlisthead; p != -1; p = windowlist[p].next) {
801092c8:	89 f8                	mov    %edi,%eax
	int windowCount = 0;
801092ca:	31 d2                	xor    %edx,%edx
801092cc:	89 fe                	mov    %edi,%esi
801092ce:	66 90                	xchg   %ax,%ax
			windowCount++;
801092d0:	31 c9                	xor    %ecx,%ecx
801092d2:	39 d8                	cmp    %ebx,%eax
	for (int p = windowlisthead; p != -1; p = windowlist[p].next) {
801092d4:	8d 04 c0             	lea    (%eax,%eax,8),%eax
			windowCount++;
801092d7:	0f 95 c1             	setne  %cl
	for (int p = windowlisthead; p != -1; p = windowlist[p].next) {
801092da:	c1 e0 08             	shl    $0x8,%eax
801092dd:	8b 80 18 b0 13 80    	mov    -0x7fec4fe8(%eax),%eax
			windowCount++;
801092e3:	01 ca                	add    %ecx,%edx
	for (int p = windowlisthead; p != -1; p = windowlist[p].next) {
801092e5:	83 f8 ff             	cmp    $0xffffffff,%eax
801092e8:	75 e6                	jne    801092d0 <handleDesktopDockClick+0x30>
	if (windowCount > 0) {
801092ea:	89 f1                	mov    %esi,%ecx
801092ec:	85 d2                	test   %edx,%edx
801092ee:	7e 51                	jle    80109341 <handleDesktopDockClick+0xa1>
		int barWidth = min((SCREEN_WIDTH - START_ICON_WIDTH -
801092f0:	8b 45 e4             	mov    -0x1c(%ebp),%eax
					   (windowCount + 1),
801092f3:	8d 72 01             	lea    0x1(%edx),%esi
		int xStart = START_ICON_WIDTH + 5;
801092f6:	89 7d e0             	mov    %edi,-0x20(%ebp)
801092f9:	8b 7d 08             	mov    0x8(%ebp),%edi
		int barWidth = min((SCREEN_WIDTH - START_ICON_WIDTH -
801092fc:	83 e8 52             	sub    $0x52,%eax
801092ff:	99                   	cltd
80109300:	f7 fe                	idiv   %esi
int min(int x, int y) { return x < y ? x : y; }
80109302:	ba a0 00 00 00       	mov    $0xa0,%edx
80109307:	39 d0                	cmp    %edx,%eax
80109309:	0f 4f c2             	cmovg  %edx,%eax
		int xStart = START_ICON_WIDTH + 5;
8010930c:	ba 4d 00 00 00       	mov    $0x4d,%edx
80109311:	8d b4 26 00 00 00 00 	lea    0x0(%esi,%eiz,1),%esi
			if (p != desktopId) {
80109318:	39 d9                	cmp    %ebx,%ecx
8010931a:	74 11                	je     8010932d <handleDesktopDockClick+0x8d>
				if (mouse_x > xStart + 1 &&
8010931c:	8d 72 01             	lea    0x1(%edx),%esi
				    mouse_x <= xStart + barWidth - 1) {
8010931f:	01 c2                	add    %eax,%edx
				if (mouse_x > xStart + 1 &&
80109321:	39 fe                	cmp    %edi,%esi
80109323:	7d 08                	jge    8010932d <handleDesktopDockClick+0x8d>
80109325:	39 d7                	cmp    %edx,%edi
80109327:	0f 8c eb 01 00 00    	jl     80109518 <handleDesktopDockClick+0x278>
		for (p = windowlisthead; p != -1; p = windowlist[p].next) {
8010932d:	8d 0c c9             	lea    (%ecx,%ecx,8),%ecx
80109330:	c1 e1 08             	shl    $0x8,%ecx
80109333:	8b 89 18 b0 13 80    	mov    -0x7fec4fe8(%ecx),%ecx
80109339:	83 f9 ff             	cmp    $0xffffffff,%ecx
8010933c:	75 da                	jne    80109318 <handleDesktopDockClick+0x78>
8010933e:	8b 7d e0             	mov    -0x20(%ebp),%edi
	if (mouse_x >= SCREEN_WIDTH - SHOW_DESKTOP_ICON_WIDTH) {
80109341:	8b 45 e4             	mov    -0x1c(%ebp),%eax
80109344:	83 e8 0a             	sub    $0xa,%eax
80109347:	39 45 08             	cmp    %eax,0x8(%ebp)
8010934a:	7d 44                	jge    80109390 <handleDesktopDockClick+0xf0>
8010934c:	8d 74 26 00          	lea    0x0(%esi,%eiz,1),%esi
						&newmsg);
				}
			}
		}
	}
	if (mouse_x <= START_ICON_WIDTH &&
80109350:	83 7d 08 48          	cmpl   $0x48,0x8(%ebp)
80109354:	7f 0c                	jg     80109362 <handleDesktopDockClick+0xc2>
80109356:	8b 45 0c             	mov    0xc(%ebp),%eax
80109359:	83 38 06             	cmpl   $0x6,(%eax)
8010935c:	0f 84 06 01 00 00    	je     80109468 <handleDesktopDockClick+0x1c8>
			newmsg.params[1] = wm_mouse_pos.y;
			dispatchMessage(&windowlist[desktopId].wnd.msg_buf,
					&newmsg);
		}
	}
}
80109362:	8d 65 f4             	lea    -0xc(%ebp),%esp
80109365:	5b                   	pop    %ebx
80109366:	5e                   	pop    %esi
80109367:	5f                   	pop    %edi
80109368:	5d                   	pop    %ebp
80109369:	c3                   	ret
						focusWindow(p);
8010936a:	83 ec 0c             	sub    $0xc,%esp
8010936d:	51                   	push   %ecx
8010936e:	e8 ed fd ff ff       	call   80109160 <focusWindow>
	if (mouse_x >= SCREEN_WIDTH - SHOW_DESKTOP_ICON_WIDTH) {
80109373:	0f b7 05 d6 9c 13 80 	movzwl 0x80139cd6,%eax
8010937a:	83 c4 10             	add    $0x10,%esp
8010937d:	83 e8 0a             	sub    $0xa,%eax
80109380:	3b 45 08             	cmp    0x8(%ebp),%eax
80109383:	7f cb                	jg     80109350 <handleDesktopDockClick+0xb0>
		for (p = windowlisthead; p != -1; p = windowlist[p].next) {
80109385:	8b 3d 00 a7 13 80    	mov    0x8013a700,%edi
8010938b:	83 ff ff             	cmp    $0xffffffff,%edi
8010938e:	74 c0                	je     80109350 <handleDesktopDockClick+0xb0>
	if ((++buf->rear) >= MSG_BUF_SIZE)
80109390:	89 5d e4             	mov    %ebx,-0x1c(%ebp)
80109393:	eb 13                	jmp    801093a8 <handleDesktopDockClick+0x108>
80109395:	8d 76 00             	lea    0x0(%esi),%esi
		for (p = windowlisthead; p != -1; p = windowlist[p].next) {
80109398:	01 f8                	add    %edi,%eax
8010939a:	c1 e0 08             	shl    $0x8,%eax
8010939d:	8b b8 18 b0 13 80    	mov    -0x7fec4fe8(%eax),%edi
801093a3:	83 ff ff             	cmp    $0xffffffff,%edi
801093a6:	74 a8                	je     80109350 <handleDesktopDockClick+0xb0>
			if (p != desktopId) {
801093a8:	8d 04 fd 00 00 00 00 	lea    0x0(,%edi,8),%eax
801093af:	39 7d e4             	cmp    %edi,-0x1c(%ebp)
801093b2:	74 e4                	je     80109398 <handleDesktopDockClick+0xf8>
				if (windowlist[p].wnd.minimized == 0) {
801093b4:	8d 14 38             	lea    (%eax,%edi,1),%edx
801093b7:	c1 e2 08             	shl    $0x8,%edx
801093ba:	8b 8a 10 b0 13 80    	mov    -0x7fec4ff0(%edx),%ecx
801093c0:	8d 9a 20 a7 13 80    	lea    -0x7fec58e0(%edx),%ebx
801093c6:	85 c9                	test   %ecx,%ecx
801093c8:	75 ce                	jne    80109398 <handleDesktopDockClick+0xf8>
	if (buf->cnt >= MSG_BUF_SIZE)
801093ca:	8b 8a d8 af 13 80    	mov    -0x7fec5028(%edx),%ecx
801093d0:	83 f9 31             	cmp    $0x31,%ecx
801093d3:	7f c3                	jg     80109398 <handleDesktopDockClick+0xf8>
	++buf->cnt;
801093d5:	83 c1 01             	add    $0x1,%ecx
	buf->data[buf->rear] = *msg;
801093d8:	8b b2 d4 af 13 80    	mov    -0x7fec502c(%edx),%esi
	++buf->cnt;
801093de:	89 8a d8 af 13 80    	mov    %ecx,-0x7fec5028(%edx)
	buf->data[buf->rear] = *msg;
801093e4:	6b 8a d4 af 13 80 2c 	imul   $0x2c,-0x7fec502c(%edx),%ecx
801093eb:	83 c6 01             	add    $0x1,%esi
801093ee:	89 75 e0             	mov    %esi,-0x20(%ebp)
801093f1:	6b f6 2c             	imul   $0x2c,%esi,%esi
801093f4:	8d 8c 0a 20 a7 13 80 	lea    -0x7fec58e0(%edx,%ecx,1),%ecx
801093fb:	c7 41 18 65 00 00 00 	movl   $0x65,0x18(%ecx)
80109402:	c7 41 1c 00 00 00 00 	movl   $0x0,0x1c(%ecx)
80109409:	c7 41 20 00 00 00 00 	movl   $0x0,0x20(%ecx)
80109410:	c7 41 24 00 00 00 00 	movl   $0x0,0x24(%ecx)
80109417:	c7 41 28 00 00 00 00 	movl   $0x0,0x28(%ecx)
8010941e:	c7 41 2c 00 00 00 00 	movl   $0x0,0x2c(%ecx)
80109425:	c7 41 30 00 00 00 00 	movl   $0x0,0x30(%ecx)
8010942c:	c7 41 34 00 00 00 00 	movl   $0x0,0x34(%ecx)
80109433:	c7 41 3c 00 00 00 00 	movl   $0x0,0x3c(%ecx)
8010943a:	c7 41 40 00 00 00 00 	movl   $0x0,0x40(%ecx)
	if ((++buf->rear) >= MSG_BUF_SIZE)
80109441:	8b 4d e0             	mov    -0x20(%ebp),%ecx
	buf->data[buf->rear] = *msg;
80109444:	c7 84 32 2c a7 13 80 	movl   $0x0,-0x7fec58d4(%edx,%esi,1)
8010944b:	00 00 00 00 
	if ((++buf->rear) >= MSG_BUF_SIZE)
8010944f:	31 d2                	xor    %edx,%edx
80109451:	83 f9 31             	cmp    $0x31,%ecx
80109454:	0f 4e d1             	cmovle %ecx,%edx
80109457:	89 93 b4 08 00 00    	mov    %edx,0x8b4(%ebx)
8010945d:	e9 36 ff ff ff       	jmp    80109398 <handleDesktopDockClick+0xf8>
80109462:	8d b6 00 00 00 00    	lea    0x0(%esi),%esi
		if (popupwindow.caller != desktopId) {
80109468:	a1 7c 22 11 80       	mov    0x8011227c,%eax
8010946d:	39 05 f8 a6 13 80    	cmp    %eax,0x8013a6f8
80109473:	0f 84 e9 fe ff ff    	je     80109362 <handleDesktopDockClick+0xc2>
	if (buf->cnt >= MSG_BUF_SIZE)
80109479:	8d 0c c0             	lea    (%eax,%eax,8),%ecx
			newmsg.params[0] = wm_mouse_pos.x;
8010947c:	8b 3d d8 9d 13 80    	mov    0x80139dd8,%edi
			newmsg.params[1] = wm_mouse_pos.y;
80109482:	8b 35 dc 9d 13 80    	mov    0x80139ddc,%esi
	if (buf->cnt >= MSG_BUF_SIZE)
80109488:	c1 e1 08             	shl    $0x8,%ecx
8010948b:	8b 81 d8 af 13 80    	mov    -0x7fec5028(%ecx),%eax
80109491:	83 f8 31             	cmp    $0x31,%eax
80109494:	0f 8f c8 fe ff ff    	jg     80109362 <handleDesktopDockClick+0xc2>
	buf->data[buf->rear] = *msg;
8010949a:	8b 91 d4 af 13 80    	mov    -0x7fec502c(%ecx),%edx
	++buf->cnt;
801094a0:	83 c0 01             	add    $0x1,%eax
801094a3:	89 81 d8 af 13 80    	mov    %eax,-0x7fec5028(%ecx)
	buf->data[buf->rear] = *msg;
801094a9:	6b c2 2c             	imul   $0x2c,%edx,%eax
801094ac:	83 c2 01             	add    $0x1,%edx
801094af:	8d 84 01 20 a7 13 80 	lea    -0x7fec58e0(%ecx,%eax,1),%eax
801094b6:	89 70 20             	mov    %esi,0x20(%eax)
801094b9:	6b f2 2c             	imul   $0x2c,%edx,%esi
801094bc:	c7 40 18 06 00 00 00 	movl   $0x6,0x18(%eax)
801094c3:	89 78 1c             	mov    %edi,0x1c(%eax)
801094c6:	c7 40 24 00 00 00 00 	movl   $0x0,0x24(%eax)
801094cd:	c7 40 28 00 00 00 00 	movl   $0x0,0x28(%eax)
801094d4:	c7 40 2c 00 00 00 00 	movl   $0x0,0x2c(%eax)
801094db:	c7 40 30 00 00 00 00 	movl   $0x0,0x30(%eax)
801094e2:	c7 40 34 00 00 00 00 	movl   $0x0,0x34(%eax)
801094e9:	c7 40 3c 00 00 00 00 	movl   $0x0,0x3c(%eax)
801094f0:	c7 40 40 00 00 00 00 	movl   $0x0,0x40(%eax)
	if ((++buf->rear) >= MSG_BUF_SIZE)
801094f7:	31 c0                	xor    %eax,%eax
801094f9:	83 fa 31             	cmp    $0x31,%edx
	buf->data[buf->rear] = *msg;
801094fc:	c7 84 31 2c a7 13 80 	movl   $0x0,-0x7fec58d4(%ecx,%esi,1)
80109503:	00 00 00 00 
	if ((++buf->rear) >= MSG_BUF_SIZE)
80109507:	0f 4f d0             	cmovg  %eax,%edx
8010950a:	89 91 d4 af 13 80    	mov    %edx,-0x7fec502c(%ecx)
80109510:	e9 4d fe ff ff       	jmp    80109362 <handleDesktopDockClick+0xc2>
80109515:	8d 76 00             	lea    0x0(%esi),%esi
					if (windowlist[p].wnd.minimized) {
80109518:	8d 04 c9             	lea    (%ecx,%ecx,8),%eax
8010951b:	8b 7d e0             	mov    -0x20(%ebp),%edi
8010951e:	c1 e0 08             	shl    $0x8,%eax
80109521:	89 c2                	mov    %eax,%edx
80109523:	8d b0 20 a7 13 80    	lea    -0x7fec58e0(%eax),%esi
80109529:	8b 80 10 b0 13 80    	mov    -0x7fec4ff0(%eax),%eax
8010952f:	85 c0                	test   %eax,%eax
80109531:	0f 84 33 fe ff ff    	je     8010936a <handleDesktopDockClick+0xca>
	if (buf->cnt >= MSG_BUF_SIZE)
80109537:	8b 82 d8 af 13 80    	mov    -0x7fec5028(%edx),%eax
8010953d:	83 f8 31             	cmp    $0x31,%eax
80109540:	0f 8f fb fd ff ff    	jg     80109341 <handleDesktopDockClick+0xa1>
	buf->data[buf->rear] = *msg;
80109546:	8b 8a d4 af 13 80    	mov    -0x7fec502c(%edx),%ecx
	++buf->cnt;
8010954c:	83 c0 01             	add    $0x1,%eax
	buf->data[buf->rear] = *msg;
8010954f:	89 75 e0             	mov    %esi,-0x20(%ebp)
	++buf->cnt;
80109552:	89 82 d8 af 13 80    	mov    %eax,-0x7fec5028(%edx)
	buf->data[buf->rear] = *msg;
80109558:	6b c1 2c             	imul   $0x2c,%ecx,%eax
8010955b:	83 c1 01             	add    $0x1,%ecx
8010955e:	6b f1 2c             	imul   $0x2c,%ecx,%esi
80109561:	8d 84 02 20 a7 13 80 	lea    -0x7fec58e0(%edx,%eax,1),%eax
80109568:	c7 40 18 66 00 00 00 	movl   $0x66,0x18(%eax)
8010956f:	c7 40 1c 00 00 00 00 	movl   $0x0,0x1c(%eax)
80109576:	c7 40 20 00 00 00 00 	movl   $0x0,0x20(%eax)
8010957d:	c7 40 24 00 00 00 00 	movl   $0x0,0x24(%eax)
80109584:	c7 40 28 00 00 00 00 	movl   $0x0,0x28(%eax)
8010958b:	c7 40 2c 00 00 00 00 	movl   $0x0,0x2c(%eax)
80109592:	c7 40 30 00 00 00 00 	movl   $0x0,0x30(%eax)
80109599:	c7 40 34 00 00 00 00 	movl   $0x0,0x34(%eax)
801095a0:	c7 40 3c 00 00 00 00 	movl   $0x0,0x3c(%eax)
801095a7:	c7 40 40 00 00 00 00 	movl   $0x0,0x40(%eax)
	if ((++buf->rear) >= MSG_BUF_SIZE)
801095ae:	31 c0                	xor    %eax,%eax
801095b0:	83 f9 31             	cmp    $0x31,%ecx
	buf->data[buf->rear] = *msg;
801095b3:	c7 84 32 2c a7 13 80 	movl   $0x0,-0x7fec58d4(%edx,%esi,1)
801095ba:	00 00 00 00 
	if ((++buf->rear) >= MSG_BUF_SIZE)
801095be:	0f 4f c8             	cmovg  %eax,%ecx
801095c1:	8b 75 e0             	mov    -0x20(%ebp),%esi
801095c4:	89 8e b4 08 00 00    	mov    %ecx,0x8b4(%esi)
801095ca:	e9 72 fd ff ff       	jmp    80109341 <handleDesktopDockClick+0xa1>
801095cf:	90                   	nop

801095d0 <wmHandleMessage>:

void wmHandleMessage(message *msg) {
801095d0:	55                   	push   %ebp
801095d1:	89 e5                	mov    %esp,%ebp
801095d3:	57                   	push   %edi
801095d4:	56                   	push   %esi
801095d5:	53                   	push   %ebx
801095d6:	83 ec 38             	sub    $0x38,%esp
801095d9:	8b 45 08             	mov    0x8(%ebp),%eax
801095dc:	89 45 e4             	mov    %eax,-0x1c(%ebp)
801095df:	89 c7                	mov    %eax,%edi
	acquire(&wmlock);
801095e1:	68 80 9d 13 80       	push   $0x80139d80
801095e6:	e8 85 bf ff ff       	call   80105570 <acquire>

	message newmsg;
	switch (msg->msg_type) {
801095eb:	8b 07                	mov    (%edi),%eax
801095ed:	83 c4 10             	add    $0x10,%esp
801095f0:	83 f8 08             	cmp    $0x8,%eax
801095f3:	77 4a                	ja     8010963f <wmHandleMessage+0x6f>
801095f5:	ff 24 85 90 be 10 80 	jmp    *-0x7fef4170(,%eax,4)
801095fc:	8d 74 26 00          	lea    0x0(%esi,%eiz,1),%esi
					&newmsg);
				break;
			}
		}
	case M_MOUSE_UP:
		if (clickedOnPopup) {
80109600:	8b 15 e0 9d 13 80    	mov    0x80139de0,%edx
		} else if (clickedOnContent) {
80109606:	8b 0d e4 9d 13 80    	mov    0x80139de4,%ecx
		if (clickedOnPopup) {
8010960c:	85 d2                	test   %edx,%edx
8010960e:	74 0a                	je     8010961a <wmHandleMessage+0x4a>
			clickedOnPopup = 0;
80109610:	c7 05 e0 9d 13 80 00 	movl   $0x0,0x80139de0
80109617:	00 00 00 
		}
		if (clickedOnContent) {
8010961a:	85 c9                	test   %ecx,%ecx
8010961c:	0f 85 3e 06 00 00    	jne    80109c60 <wmHandleMessage+0x690>
				wm_mouse_pos.y -
				windowlist[windowlisttail].wnd.position.ymin;
			dispatchMessage(&windowlist[windowlisttail].wnd.msg_buf,
					&newmsg);
		}
		if (clickedOnTitle) {
80109622:	a1 e8 9d 13 80       	mov    0x80139de8,%eax
80109627:	85 c0                	test   %eax,%eax
80109629:	74 0a                	je     80109635 <wmHandleMessage+0x65>
			clickedOnTitle = 0;
8010962b:	c7 05 e8 9d 13 80 00 	movl   $0x0,0x80139de8
80109632:	00 00 00 
		}
		mouseShape = 0;
80109635:	c7 05 ec 9d 13 80 00 	movl   $0x0,0x80139dec
8010963c:	00 00 00 
		break;

	default:
		break;
	}
	release(&wmlock);
8010963f:	c7 45 08 80 9d 13 80 	movl   $0x80139d80,0x8(%ebp)
}
80109646:	8d 65 f4             	lea    -0xc(%ebp),%esp
80109649:	5b                   	pop    %ebx
8010964a:	5e                   	pop    %esi
8010964b:	5f                   	pop    %edi
8010964c:	5d                   	pop    %ebp
	release(&wmlock);
8010964d:	e9 be be ff ff       	jmp    80105510 <release>
80109652:	8d b6 00 00 00 00    	lea    0x0(%esi),%esi
		if (clickedOnPopup) {
80109658:	8b 1d e0 9d 13 80    	mov    0x80139de0,%ebx
		} else if (clickedOnContent) {
8010965e:	8b 0d e4 9d 13 80    	mov    0x80139de4,%ecx
		if (clickedOnPopup) {
80109664:	85 db                	test   %ebx,%ebx
80109666:	0f 85 1c 07 00 00    	jne    80109d88 <wmHandleMessage+0x7b8>
		} else if (clickedOnContent) {
8010966c:	85 c9                	test   %ecx,%ecx
8010966e:	74 b2                	je     80109622 <wmHandleMessage+0x52>
			if (windowlisttail == desktopId &&
80109670:	8b 15 fc a6 13 80    	mov    0x8013a6fc,%edx
			    wm_mouse_pos.y >= SCREEN_HEIGHT - DOCK_HEIGHT &&
80109676:	8b 0d dc 9d 13 80    	mov    0x80139ddc,%ecx
			clickedOnContent = 0;
8010967c:	c7 05 e4 9d 13 80 00 	movl   $0x0,0x80139de4
80109683:	00 00 00 
				handleDesktopDockClick(wm_mouse_pos.x, msg);
80109686:	8b 3d d8 9d 13 80    	mov    0x80139dd8,%edi
			if (windowlisttail == desktopId &&
8010968c:	3b 15 7c 22 11 80    	cmp    0x8011227c,%edx
80109692:	0f 85 78 02 00 00    	jne    80109910 <wmHandleMessage+0x340>
			    wm_mouse_pos.y >= SCREEN_HEIGHT - DOCK_HEIGHT &&
80109698:	0f b7 35 d4 9c 13 80 	movzwl 0x80139cd4,%esi
8010969f:	8d 5e dc             	lea    -0x24(%esi),%ebx
801096a2:	39 cb                	cmp    %ecx,%ebx
801096a4:	0f 8f 66 02 00 00    	jg     80109910 <wmHandleMessage+0x340>
801096aa:	39 ce                	cmp    %ecx,%esi
801096ac:	0f 8c 5e 02 00 00    	jl     80109910 <wmHandleMessage+0x340>
				handleDesktopDockClick(wm_mouse_pos.x, msg);
801096b2:	83 ec 08             	sub    $0x8,%esp
801096b5:	ff 75 e4             	push   -0x1c(%ebp)
801096b8:	57                   	push   %edi
801096b9:	e8 e2 fb ff ff       	call   801092a0 <handleDesktopDockClick>
801096be:	83 c4 10             	add    $0x10,%esp
801096c1:	e9 5c ff ff ff       	jmp    80109622 <wmHandleMessage+0x52>
801096c6:	2e 8d b4 26 00 00 00 	lea    %cs:0x0(%esi,%eiz,1),%esi
801096cd:	00 
801096ce:	66 90                	xchg   %ax,%ax
		dispatchMessage(&windowlist[windowlisttail].wnd.msg_buf, msg);
801096d0:	a1 fc a6 13 80       	mov    0x8013a6fc,%eax
	if (buf->cnt >= MSG_BUF_SIZE)
801096d5:	8d 04 c0             	lea    (%eax,%eax,8),%eax
801096d8:	c1 e0 08             	shl    $0x8,%eax
801096db:	8d 88 20 a7 13 80    	lea    -0x7fec58e0(%eax),%ecx
801096e1:	8b 91 b8 08 00 00    	mov    0x8b8(%ecx),%edx
801096e7:	83 fa 31             	cmp    $0x31,%edx
801096ea:	0f 8f 4f ff ff ff    	jg     8010963f <wmHandleMessage+0x6f>
	++buf->cnt;
801096f0:	83 c2 01             	add    $0x1,%edx
	buf->data[buf->rear] = *msg;
801096f3:	8b 75 e4             	mov    -0x1c(%ebp),%esi
	++buf->cnt;
801096f6:	89 91 b8 08 00 00    	mov    %edx,0x8b8(%ecx)
	buf->data[buf->rear] = *msg;
801096fc:	8b 91 b4 08 00 00    	mov    0x8b4(%ecx),%edx
80109702:	6b da 2c             	imul   $0x2c,%edx,%ebx
80109705:	8d 84 18 30 a7 13 80 	lea    -0x7fec58d0(%eax,%ebx,1),%eax
8010970c:	8b 1e                	mov    (%esi),%ebx
8010970e:	89 58 08             	mov    %ebx,0x8(%eax)
80109711:	8b 5e 04             	mov    0x4(%esi),%ebx
80109714:	89 58 0c             	mov    %ebx,0xc(%eax)
80109717:	8b 5e 08             	mov    0x8(%esi),%ebx
8010971a:	89 58 10             	mov    %ebx,0x10(%eax)
8010971d:	8b 5e 0c             	mov    0xc(%esi),%ebx
80109720:	89 58 14             	mov    %ebx,0x14(%eax)
80109723:	8b 5e 10             	mov    0x10(%esi),%ebx
80109726:	89 58 18             	mov    %ebx,0x18(%eax)
80109729:	8b 5e 14             	mov    0x14(%esi),%ebx
8010972c:	89 58 1c             	mov    %ebx,0x1c(%eax)
8010972f:	8b 5e 18             	mov    0x18(%esi),%ebx
80109732:	89 58 20             	mov    %ebx,0x20(%eax)
80109735:	8b 5e 1c             	mov    0x1c(%esi),%ebx
80109738:	89 58 24             	mov    %ebx,0x24(%eax)
8010973b:	8b 5e 20             	mov    0x20(%esi),%ebx
8010973e:	89 58 28             	mov    %ebx,0x28(%eax)
80109741:	8b 5e 24             	mov    0x24(%esi),%ebx
80109744:	89 58 2c             	mov    %ebx,0x2c(%eax)
80109747:	8b 5e 28             	mov    0x28(%esi),%ebx
8010974a:	89 58 30             	mov    %ebx,0x30(%eax)
	if ((++buf->rear) >= MSG_BUF_SIZE)
8010974d:	8d 42 01             	lea    0x1(%edx),%eax
80109750:	31 d2                	xor    %edx,%edx
80109752:	83 f8 31             	cmp    $0x31,%eax
80109755:	0f 4f c2             	cmovg  %edx,%eax
80109758:	89 81 b4 08 00 00    	mov    %eax,0x8b4(%ecx)
8010975e:	e9 dc fe ff ff       	jmp    8010963f <wmHandleMessage+0x6f>
80109763:	2e 8d 74 26 00       	lea    %cs:0x0(%esi,%eiz,1),%esi
				wm_mouse_pos.y +=
80109768:	a1 dc 9d 13 80       	mov    0x80139ddc,%eax
		if (popupwindow.caller != -1 &&
8010976d:	83 3d f8 a6 13 80 ff 	cmpl   $0xffffffff,0x8013a6f8
				wm_mouse_pos.x +=
80109774:	8b 3d d8 9d 13 80    	mov    0x80139dd8,%edi
				wm_mouse_pos.y +=
8010977a:	89 45 dc             	mov    %eax,-0x24(%ebp)
		if (popupwindow.caller != -1 &&
8010977d:	0f 84 3d 02 00 00    	je     801099c0 <wmHandleMessage+0x3f0>
	return (x >= xmin && x <= xmax && y >= ymin && y <= ymax);
80109783:	39 3d 08 9e 13 80    	cmp    %edi,0x80139e08
80109789:	0f 8c 31 02 00 00    	jl     801099c0 <wmHandleMessage+0x3f0>
8010978f:	39 3d 04 9e 13 80    	cmp    %edi,0x80139e04
80109795:	0f 8f 25 02 00 00    	jg     801099c0 <wmHandleMessage+0x3f0>
8010979b:	39 05 0c 9e 13 80    	cmp    %eax,0x80139e0c
801097a1:	0f 8f 19 02 00 00    	jg     801099c0 <wmHandleMessage+0x3f0>
801097a7:	39 05 10 9e 13 80    	cmp    %eax,0x80139e10
801097ad:	0f 8c 0d 02 00 00    	jl     801099c0 <wmHandleMessage+0x3f0>
			clickedOnPopup = 1;
801097b3:	c7 05 e0 9d 13 80 01 	movl   $0x1,0x80139de0
801097ba:	00 00 00 
801097bd:	e9 7d fe ff ff       	jmp    8010963f <wmHandleMessage+0x6f>
801097c2:	8d b6 00 00 00 00    	lea    0x0(%esi),%esi
		wm_last_mouse_pos = wm_mouse_pos;
801097c8:	8b 15 dc 9d 13 80    	mov    0x80139ddc,%edx
801097ce:	a1 d8 9d 13 80       	mov    0x80139dd8,%eax
		if (msg->params[0] > -SCREEN_WIDTH &&
801097d3:	8b 5d e4             	mov    -0x1c(%ebp),%ebx
				wm_mouse_pos.y +=
801097d6:	8b 0d dc 9d 13 80    	mov    0x80139ddc,%ecx
		wm_last_mouse_pos = wm_mouse_pos;
801097dc:	89 15 d4 9d 13 80    	mov    %edx,0x80139dd4
		if (msg->params[0] > -SCREEN_WIDTH &&
801097e2:	0f b7 15 d6 9c 13 80 	movzwl 0x80139cd6,%edx
		wm_last_mouse_pos = wm_mouse_pos;
801097e9:	a3 d0 9d 13 80       	mov    %eax,0x80139dd0
		if (msg->params[0] > -SCREEN_WIDTH &&
801097ee:	8b 43 04             	mov    0x4(%ebx),%eax
801097f1:	89 d7                	mov    %edx,%edi
				wm_mouse_pos.y +=
801097f3:	89 4d e4             	mov    %ecx,-0x1c(%ebp)
				wm_mouse_pos.x +=
801097f6:	8b 35 d8 9d 13 80    	mov    0x80139dd8,%esi
		if (msg->params[0] > -SCREEN_WIDTH &&
801097fc:	f7 df                	neg    %edi
			if (msg->params[1] > -SCREEN_HEIGHT &&
801097fe:	0f b7 0d d4 9c 13 80 	movzwl 0x80139cd4,%ecx
		if (msg->params[0] > -SCREEN_WIDTH &&
80109805:	39 f8                	cmp    %edi,%eax
80109807:	7e 08                	jle    80109811 <wmHandleMessage+0x241>
80109809:	39 d0                	cmp    %edx,%eax
8010980b:	0f 8c 77 06 00 00    	jl     80109e88 <wmHandleMessage+0x8b8>
80109811:	8b 7d e4             	mov    -0x1c(%ebp),%edi
80109814:	89 f0                	mov    %esi,%eax
		if (wm_mouse_pos.x > SCREEN_WIDTH)
80109816:	39 c2                	cmp    %eax,%edx
80109818:	0f 8d 12 05 00 00    	jge    80109d30 <wmHandleMessage+0x760>
			wm_mouse_pos.x = SCREEN_WIDTH;
8010981e:	89 15 d8 9d 13 80    	mov    %edx,0x80139dd8
		if (wm_mouse_pos.y > SCREEN_HEIGHT)
80109824:	39 cf                	cmp    %ecx,%edi
80109826:	0f 8f 34 06 00 00    	jg     80109e60 <wmHandleMessage+0x890>
		if (wm_mouse_pos.y < 0)
8010982c:	85 ff                	test   %edi,%edi
8010982e:	79 0a                	jns    8010983a <wmHandleMessage+0x26a>
			wm_mouse_pos.y = 0;
80109830:	c7 05 dc 9d 13 80 00 	movl   $0x0,0x80139ddc
80109837:	00 00 00 
		if (clickedOnTitle) {
8010983a:	8b 3d e8 9d 13 80    	mov    0x80139de8,%edi
80109840:	85 ff                	test   %edi,%edi
80109842:	0f 85 10 05 00 00    	jne    80109d58 <wmHandleMessage+0x788>
		} else if (clickedOnContent) {
80109848:	8b 35 e4 9d 13 80    	mov    0x80139de4,%esi
8010984e:	85 f6                	test   %esi,%esi
80109850:	0f 84 e9 fd ff ff    	je     8010963f <wmHandleMessage+0x6f>
				windowlist[windowlisttail].wnd.position.xmin;
80109856:	a1 fc a6 13 80       	mov    0x8013a6fc,%eax
				wm_mouse_pos.x -
8010985b:	8b 1d d8 9d 13 80    	mov    0x80139dd8,%ebx
				windowlist[windowlisttail].wnd.position.xmin;
80109861:	8d 0c c0             	lea    (%eax,%eax,8),%ecx
				wm_mouse_pos.y -
80109864:	a1 dc 9d 13 80       	mov    0x80139ddc,%eax
				windowlist[windowlisttail].wnd.position.xmin;
80109869:	c1 e1 08             	shl    $0x8,%ecx
8010986c:	8b b9 24 a7 13 80    	mov    -0x7fec58dc(%ecx),%edi
				windowlist[windowlisttail].wnd.position.ymin;
80109872:	8b b1 2c a7 13 80    	mov    -0x7fec58d4(%ecx),%esi
				wm_mouse_pos.y -
80109878:	89 45 e4             	mov    %eax,-0x1c(%ebp)
	if (buf->cnt >= MSG_BUF_SIZE)
8010987b:	8b 81 d8 af 13 80    	mov    -0x7fec5028(%ecx),%eax
80109881:	83 f8 31             	cmp    $0x31,%eax
80109884:	0f 8f b5 fd ff ff    	jg     8010963f <wmHandleMessage+0x6f>
	++buf->cnt;
8010988a:	83 c0 01             	add    $0x1,%eax
				wm_mouse_pos.x -
8010988d:	29 fb                	sub    %edi,%ebx
	buf->data[buf->rear] = *msg;
8010988f:	8b b9 d4 af 13 80    	mov    -0x7fec502c(%ecx),%edi
	++buf->cnt;
80109895:	89 81 d8 af 13 80    	mov    %eax,-0x7fec5028(%ecx)
	buf->data[buf->rear] = *msg;
8010989b:	6b 81 d4 af 13 80 2c 	imul   $0x2c,-0x7fec502c(%ecx),%eax
801098a2:	8d 84 01 20 a7 13 80 	lea    -0x7fec58e0(%ecx,%eax,1),%eax
				wm_mouse_pos.x -
801098a9:	89 58 1c             	mov    %ebx,0x1c(%eax)
				wm_mouse_pos.y -
801098ac:	8b 5d e4             	mov    -0x1c(%ebp),%ebx
	buf->data[buf->rear] = *msg;
801098af:	c7 40 18 03 00 00 00 	movl   $0x3,0x18(%eax)
				wm_mouse_pos.y -
801098b6:	29 f3                	sub    %esi,%ebx
	buf->data[buf->rear] = *msg;
801098b8:	c7 40 24 00 00 00 00 	movl   $0x0,0x24(%eax)
				wm_mouse_pos.y -
801098bf:	89 58 20             	mov    %ebx,0x20(%eax)
	buf->data[buf->rear] = *msg;
801098c2:	8d 5f 01             	lea    0x1(%edi),%ebx
801098c5:	6b f3 2c             	imul   $0x2c,%ebx,%esi
801098c8:	c7 40 28 00 00 00 00 	movl   $0x0,0x28(%eax)
801098cf:	c7 40 2c 00 00 00 00 	movl   $0x0,0x2c(%eax)
801098d6:	c7 40 30 00 00 00 00 	movl   $0x0,0x30(%eax)
801098dd:	c7 40 34 00 00 00 00 	movl   $0x0,0x34(%eax)
801098e4:	c7 40 3c 00 00 00 00 	movl   $0x0,0x3c(%eax)
801098eb:	c7 40 40 00 00 00 00 	movl   $0x0,0x40(%eax)
	if ((++buf->rear) >= MSG_BUF_SIZE)
801098f2:	31 c0                	xor    %eax,%eax
801098f4:	83 fb 31             	cmp    $0x31,%ebx
	buf->data[buf->rear] = *msg;
801098f7:	c7 84 31 2c a7 13 80 	movl   $0x0,-0x7fec58d4(%ecx,%esi,1)
801098fe:	00 00 00 00 
	if ((++buf->rear) >= MSG_BUF_SIZE)
80109902:	0f 4f d8             	cmovg  %eax,%ebx
80109905:	89 99 d4 af 13 80    	mov    %ebx,-0x7fec502c(%ecx)
8010990b:	e9 2f fd ff ff       	jmp    8010963f <wmHandleMessage+0x6f>
							   .wnd.position.xmin;
80109910:	8d 34 d2             	lea    (%edx,%edx,8),%esi
80109913:	c1 e6 08             	shl    $0x8,%esi
80109916:	8b 96 24 a7 13 80    	mov    -0x7fec58dc(%esi),%edx
8010991c:	89 55 e4             	mov    %edx,-0x1c(%ebp)
							   .wnd.position.ymin;
8010991f:	8b 96 2c a7 13 80    	mov    -0x7fec58d4(%esi),%edx
80109925:	89 55 e0             	mov    %edx,-0x20(%ebp)
	if (buf->cnt >= MSG_BUF_SIZE)
80109928:	8b 96 d8 af 13 80    	mov    -0x7fec5028(%esi),%edx
8010992e:	83 fa 31             	cmp    $0x31,%edx
80109931:	0f 8f 08 fd ff ff    	jg     8010963f <wmHandleMessage+0x6f>
	++buf->cnt;
80109937:	83 c2 01             	add    $0x1,%edx
8010993a:	89 96 d8 af 13 80    	mov    %edx,-0x7fec5028(%esi)
	buf->data[buf->rear] = *msg;
80109940:	6b 96 d4 af 13 80 2c 	imul   $0x2c,-0x7fec502c(%esi),%edx
80109947:	8d 94 16 20 a7 13 80 	lea    -0x7fec58e0(%esi,%edx,1),%edx
8010994e:	89 42 18             	mov    %eax,0x18(%edx)
				newmsg.params[0] = wm_mouse_pos.x -
80109951:	8b 45 e4             	mov    -0x1c(%ebp),%eax
	buf->data[buf->rear] = *msg;
80109954:	c7 42 24 00 00 00 00 	movl   $0x0,0x24(%edx)
				newmsg.params[0] = wm_mouse_pos.x -
8010995b:	29 c7                	sub    %eax,%edi
				newmsg.params[1] = wm_mouse_pos.y -
8010995d:	8b 45 e0             	mov    -0x20(%ebp),%eax
	buf->data[buf->rear] = *msg;
80109960:	c7 42 28 00 00 00 00 	movl   $0x0,0x28(%edx)
				newmsg.params[0] = wm_mouse_pos.x -
80109967:	89 7a 1c             	mov    %edi,0x1c(%edx)
				newmsg.params[1] = wm_mouse_pos.y -
8010996a:	29 c1                	sub    %eax,%ecx
	buf->data[buf->rear] = *msg;
8010996c:	8b 86 d4 af 13 80    	mov    -0x7fec502c(%esi),%eax
80109972:	c7 42 2c 00 00 00 00 	movl   $0x0,0x2c(%edx)
				newmsg.params[1] = wm_mouse_pos.y -
80109979:	89 4a 20             	mov    %ecx,0x20(%edx)
	buf->data[buf->rear] = *msg;
8010997c:	83 c0 01             	add    $0x1,%eax
8010997f:	c7 42 30 00 00 00 00 	movl   $0x0,0x30(%edx)
80109986:	6b c8 2c             	imul   $0x2c,%eax,%ecx
80109989:	c7 42 34 00 00 00 00 	movl   $0x0,0x34(%edx)
80109990:	c7 42 3c 00 00 00 00 	movl   $0x0,0x3c(%edx)
80109997:	c7 42 40 00 00 00 00 	movl   $0x0,0x40(%edx)
	if ((++buf->rear) >= MSG_BUF_SIZE)
8010999e:	31 d2                	xor    %edx,%edx
801099a0:	83 f8 31             	cmp    $0x31,%eax
	buf->data[buf->rear] = *msg;
801099a3:	c7 84 0e 2c a7 13 80 	movl   $0x0,-0x7fec58d4(%esi,%ecx,1)
801099aa:	00 00 00 00 
	if ((++buf->rear) >= MSG_BUF_SIZE)
801099ae:	0f 4f c2             	cmovg  %edx,%eax
801099b1:	89 86 d4 af 13 80    	mov    %eax,-0x7fec502c(%esi)
801099b7:	e9 83 fc ff ff       	jmp    8010963f <wmHandleMessage+0x6f>
801099bc:	8d 74 26 00          	lea    0x0(%esi,%eiz,1),%esi
	if (buf->cnt >= MSG_BUF_SIZE)
801099c0:	a1 b8 a6 13 80       	mov    0x8013a6b8,%eax
801099c5:	83 f8 31             	cmp    $0x31,%eax
801099c8:	0f 8f 8f 00 00 00    	jg     80109a5d <wmHandleMessage+0x48d>
	buf->data[buf->rear] = *msg;
801099ce:	8b 15 b4 a6 13 80    	mov    0x8013a6b4,%edx
	++buf->cnt;
801099d4:	83 c0 01             	add    $0x1,%eax
801099d7:	a3 b8 a6 13 80       	mov    %eax,0x8013a6b8
	buf->data[buf->rear] = *msg;
801099dc:	6b c2 2c             	imul   $0x2c,%edx,%eax
801099df:	c7 80 18 9e 13 80 64 	movl   $0x64,-0x7fec61e8(%eax)
801099e6:	00 00 00 
801099e9:	c7 80 1c 9e 13 80 00 	movl   $0x0,-0x7fec61e4(%eax)
801099f0:	00 00 00 
801099f3:	c7 80 20 9e 13 80 00 	movl   $0x0,-0x7fec61e0(%eax)
801099fa:	00 00 00 
801099fd:	c7 80 24 9e 13 80 00 	movl   $0x0,-0x7fec61dc(%eax)
80109a04:	00 00 00 
80109a07:	c7 80 28 9e 13 80 00 	movl   $0x0,-0x7fec61d8(%eax)
80109a0e:	00 00 00 
80109a11:	c7 80 2c 9e 13 80 00 	movl   $0x0,-0x7fec61d4(%eax)
80109a18:	00 00 00 
80109a1b:	c7 80 30 9e 13 80 00 	movl   $0x0,-0x7fec61d0(%eax)
80109a22:	00 00 00 
80109a25:	c7 80 34 9e 13 80 00 	movl   $0x0,-0x7fec61cc(%eax)
80109a2c:	00 00 00 
80109a2f:	c7 80 38 9e 13 80 00 	movl   $0x0,-0x7fec61c8(%eax)
80109a36:	00 00 00 
80109a39:	c7 80 3c 9e 13 80 00 	movl   $0x0,-0x7fec61c4(%eax)
80109a40:	00 00 00 
80109a43:	c7 80 40 9e 13 80 00 	movl   $0x0,-0x7fec61c0(%eax)
80109a4a:	00 00 00 
	if ((++buf->rear) >= MSG_BUF_SIZE)
80109a4d:	8d 42 01             	lea    0x1(%edx),%eax
80109a50:	31 d2                	xor    %edx,%edx
80109a52:	83 f8 31             	cmp    $0x31,%eax
80109a55:	0f 4f c2             	cmovg  %edx,%eax
80109a58:	a3 b4 a6 13 80       	mov    %eax,0x8013a6b4
			int p = windowlisttail;
80109a5d:	a1 fc a6 13 80       	mov    0x8013a6fc,%eax
				focusWindow(desktopId);
80109a62:	8b 35 7c 22 11 80    	mov    0x8011227c,%esi
			for (; p != -1; p = windowlist[p].prev) {
80109a68:	83 f8 ff             	cmp    $0xffffffff,%eax
80109a6b:	0f 84 de 01 00 00    	je     80109c4f <wmHandleMessage+0x67f>
80109a71:	89 7d e0             	mov    %edi,-0x20(%ebp)
80109a74:	8d 74 26 00          	lea    0x0(%esi,%eiz,1),%esi
				if (p != desktopId && win->minimized != 1 &&
80109a78:	8d 14 c5 00 00 00 00 	lea    0x0(,%eax,8),%edx
80109a7f:	39 f0                	cmp    %esi,%eax
80109a81:	0f 84 b1 01 00 00    	je     80109c38 <wmHandleMessage+0x668>
80109a87:	8d 14 c5 00 00 00 00 	lea    0x0(,%eax,8),%edx
80109a8e:	8d 0c 02             	lea    (%edx,%eax,1),%ecx
80109a91:	c1 e1 08             	shl    $0x8,%ecx
80109a94:	83 b9 10 b0 13 80 01 	cmpl   $0x1,-0x7fec4ff0(%ecx)
80109a9b:	8d 99 20 a7 13 80    	lea    -0x7fec58e0(%ecx),%ebx
80109aa1:	0f 84 91 01 00 00    	je     80109c38 <wmHandleMessage+0x668>
	return (x >= xmin && x <= xmax && y >= ymin && y <= ymax);
80109aa7:	8b 7d e0             	mov    -0x20(%ebp),%edi
80109aaa:	39 b9 24 a7 13 80    	cmp    %edi,-0x7fec58dc(%ecx)
80109ab0:	0f 8f 82 01 00 00    	jg     80109c38 <wmHandleMessage+0x668>
80109ab6:	39 b9 28 a7 13 80    	cmp    %edi,-0x7fec58d8(%ecx)
80109abc:	0f 8c 76 01 00 00    	jl     80109c38 <wmHandleMessage+0x668>
				    isInRect(win->position.xmin,
80109ac2:	8b 89 2c a7 13 80    	mov    -0x7fec58d4(%ecx),%ecx
	return (x >= xmin && x <= xmax && y >= ymin && y <= ymax);
80109ac8:	8b 7d dc             	mov    -0x24(%ebp),%edi
				    isInRect(win->position.xmin,
80109acb:	83 e9 1c             	sub    $0x1c,%ecx
	return (x >= xmin && x <= xmax && y >= ymin && y <= ymax);
80109ace:	39 f9                	cmp    %edi,%ecx
80109ad0:	0f 8f 62 01 00 00    	jg     80109c38 <wmHandleMessage+0x668>
80109ad6:	39 7b 10             	cmp    %edi,0x10(%ebx)
80109ad9:	0f 8c 59 01 00 00    	jl     80109c38 <wmHandleMessage+0x668>
					focusWindow(p);
80109adf:	83 ec 0c             	sub    $0xc,%esp
80109ae2:	8b 7d e0             	mov    -0x20(%ebp),%edi
80109ae5:	50                   	push   %eax
80109ae6:	e8 75 f6 ff ff       	call   80109160 <focusWindow>
80109aeb:	83 c4 10             	add    $0x10,%esp
			kernel_window *win = &windowlist[windowlisttail].wnd;
80109aee:	8b 35 fc a6 13 80    	mov    0x8013a6fc,%esi
			if (isInRect(win->position.xmin,
80109af4:	8d 04 f5 00 00 00 00 	lea    0x0(,%esi,8),%eax
80109afb:	89 45 e0             	mov    %eax,-0x20(%ebp)
80109afe:	01 f0                	add    %esi,%eax
80109b00:	c1 e0 08             	shl    $0x8,%eax
80109b03:	89 45 d4             	mov    %eax,-0x2c(%ebp)
80109b06:	05 20 a7 13 80       	add    $0x8013a720,%eax
80109b0b:	8b 58 0c             	mov    0xc(%eax),%ebx
80109b0e:	8b 50 08             	mov    0x8(%eax),%edx
	return (x >= xmin && x <= xmax && y >= ymin && y <= ymax);
80109b11:	39 78 04             	cmp    %edi,0x4(%eax)
80109b14:	0f 8f 25 fb ff ff    	jg     8010963f <wmHandleMessage+0x6f>
80109b1a:	39 fa                	cmp    %edi,%edx
80109b1c:	0f 8c 1d fb ff ff    	jl     8010963f <wmHandleMessage+0x6f>
80109b22:	8b 4d dc             	mov    -0x24(%ebp),%ecx
			if (isInRect(win->position.xmin,
80109b25:	89 5d d8             	mov    %ebx,-0x28(%ebp)
80109b28:	83 eb 1c             	sub    $0x1c,%ebx
	return (x >= xmin && x <= xmax && y >= ymin && y <= ymax);
80109b2b:	39 cb                	cmp    %ecx,%ebx
80109b2d:	0f 8f 3d 03 00 00    	jg     80109e70 <wmHandleMessage+0x8a0>
80109b33:	39 4d d8             	cmp    %ecx,-0x28(%ebp)
80109b36:	0f 8c 34 03 00 00    	jl     80109e70 <wmHandleMessage+0x8a0>
				if (wm_mouse_pos.x + 30 > win->position.xmax) {
80109b3c:	8d 5f 1d             	lea    0x1d(%edi),%ebx
80109b3f:	39 da                	cmp    %ebx,%edx
80109b41:	0f 8e 79 03 00 00    	jle    80109ec0 <wmHandleMessage+0x8f0>
				} else if (wm_mouse_pos.x + 60 >
80109b47:	8d 5f 3b             	lea    0x3b(%edi),%ebx
80109b4a:	39 da                	cmp    %ebx,%edx
80109b4c:	0f 8e 1a 04 00 00    	jle    80109f6c <wmHandleMessage+0x99c>
					clickedOnTitle = 1;
80109b52:	c7 05 e8 9d 13 80 01 	movl   $0x1,0x80139de8
80109b59:	00 00 00 
			if (isInRect(win->position.xmin, win->position.ymin,
80109b5c:	8b 40 10             	mov    0x10(%eax),%eax
	return (x >= xmin && x <= xmax && y >= ymin && y <= ymax);
80109b5f:	8b 5d dc             	mov    -0x24(%ebp),%ebx
80109b62:	39 5d d8             	cmp    %ebx,-0x28(%ebp)
80109b65:	0f 8f d4 fa ff ff    	jg     8010963f <wmHandleMessage+0x6f>
80109b6b:	39 d8                	cmp    %ebx,%eax
80109b6d:	0f 8c cc fa ff ff    	jl     8010963f <wmHandleMessage+0x6f>
				newmsg.msg_type = msg->msg_type;
80109b73:	8b 45 e4             	mov    -0x1c(%ebp),%eax
					popupwindow.wnd.position.ymin;
80109b76:	8b 15 0c 9e 13 80    	mov    0x80139e0c,%edx
				clickedOnContent = 1;
80109b7c:	c7 05 e4 9d 13 80 01 	movl   $0x1,0x80139de4
80109b83:	00 00 00 
				newmsg.msg_type = msg->msg_type;
80109b86:	8b 08                	mov    (%eax),%ecx
					popupwindow.wnd.position.xmin;
80109b88:	a1 04 9e 13 80       	mov    0x80139e04,%eax
					popupwindow.wnd.position.ymin;
80109b8d:	89 55 d8             	mov    %edx,-0x28(%ebp)
					popupwindow.wnd.position.xmin;
80109b90:	89 45 e4             	mov    %eax,-0x1c(%ebp)
	if (buf->cnt >= MSG_BUF_SIZE)
80109b93:	8b 45 e0             	mov    -0x20(%ebp),%eax
80109b96:	01 f0                	add    %esi,%eax
80109b98:	c1 e0 08             	shl    $0x8,%eax
80109b9b:	8b 90 d8 af 13 80    	mov    -0x7fec5028(%eax),%edx
80109ba1:	8d 98 20 a7 13 80    	lea    -0x7fec58e0(%eax),%ebx
80109ba7:	83 fa 31             	cmp    $0x31,%edx
80109baa:	0f 8f 8f fa ff ff    	jg     8010963f <wmHandleMessage+0x6f>
	buf->data[buf->rear] = *msg;
80109bb0:	8b b0 d4 af 13 80    	mov    -0x7fec502c(%eax),%esi
	++buf->cnt;
80109bb6:	83 c2 01             	add    $0x1,%edx
80109bb9:	89 90 d8 af 13 80    	mov    %edx,-0x7fec5028(%eax)
	buf->data[buf->rear] = *msg;
80109bbf:	6b d6 2c             	imul   $0x2c,%esi,%edx
80109bc2:	83 c6 01             	add    $0x1,%esi
80109bc5:	8d 94 10 20 a7 13 80 	lea    -0x7fec58e0(%eax,%edx,1),%edx
80109bcc:	89 4a 18             	mov    %ecx,0x18(%edx)
					wm_mouse_pos.x -
80109bcf:	8b 4d e4             	mov    -0x1c(%ebp),%ecx
	buf->data[buf->rear] = *msg;
80109bd2:	c7 42 24 00 00 00 00 	movl   $0x0,0x24(%edx)
					wm_mouse_pos.x -
80109bd9:	29 cf                	sub    %ecx,%edi
					wm_mouse_pos.y -
80109bdb:	8b 4d dc             	mov    -0x24(%ebp),%ecx
	buf->data[buf->rear] = *msg;
80109bde:	c7 42 28 00 00 00 00 	movl   $0x0,0x28(%edx)
					wm_mouse_pos.x -
80109be5:	89 7a 1c             	mov    %edi,0x1c(%edx)
					wm_mouse_pos.y -
80109be8:	8b 7d d8             	mov    -0x28(%ebp),%edi
	buf->data[buf->rear] = *msg;
80109beb:	c7 42 2c 00 00 00 00 	movl   $0x0,0x2c(%edx)
					wm_mouse_pos.y -
80109bf2:	29 f9                	sub    %edi,%ecx
	buf->data[buf->rear] = *msg;
80109bf4:	c7 42 30 00 00 00 00 	movl   $0x0,0x30(%edx)
					wm_mouse_pos.y -
80109bfb:	89 4a 20             	mov    %ecx,0x20(%edx)
	buf->data[buf->rear] = *msg;
80109bfe:	6b ce 2c             	imul   $0x2c,%esi,%ecx
80109c01:	c7 42 34 00 00 00 00 	movl   $0x0,0x34(%edx)
80109c08:	c7 42 3c 00 00 00 00 	movl   $0x0,0x3c(%edx)
80109c0f:	c7 84 08 2c a7 13 80 	movl   $0x0,-0x7fec58d4(%eax,%ecx,1)
80109c16:	00 00 00 00 
	if ((++buf->rear) >= MSG_BUF_SIZE)
80109c1a:	31 c0                	xor    %eax,%eax
80109c1c:	83 fe 31             	cmp    $0x31,%esi
80109c1f:	0f 4f f0             	cmovg  %eax,%esi
	buf->data[buf->rear] = *msg;
80109c22:	c7 42 40 00 00 00 00 	movl   $0x0,0x40(%edx)
	if ((++buf->rear) >= MSG_BUF_SIZE)
80109c29:	89 b3 b4 08 00 00    	mov    %esi,0x8b4(%ebx)
80109c2f:	e9 0b fa ff ff       	jmp    8010963f <wmHandleMessage+0x6f>
80109c34:	8d 74 26 00          	lea    0x0(%esi,%eiz,1),%esi
			for (; p != -1; p = windowlist[p].prev) {
80109c38:	01 c2                	add    %eax,%edx
80109c3a:	c1 e2 08             	shl    $0x8,%edx
80109c3d:	8b 82 1c b0 13 80    	mov    -0x7fec4fe4(%edx),%eax
80109c43:	83 f8 ff             	cmp    $0xffffffff,%eax
80109c46:	0f 85 2c fe ff ff    	jne    80109a78 <wmHandleMessage+0x4a8>
80109c4c:	8b 7d e0             	mov    -0x20(%ebp),%edi
				focusWindow(desktopId);
80109c4f:	83 ec 0c             	sub    $0xc,%esp
80109c52:	56                   	push   %esi
80109c53:	e8 08 f5 ff ff       	call   80109160 <focusWindow>
80109c58:	83 c4 10             	add    $0x10,%esp
80109c5b:	e9 8e fe ff ff       	jmp    80109aee <wmHandleMessage+0x51e>
			newmsg.msg_type = msg->msg_type;
80109c60:	8b 45 e4             	mov    -0x1c(%ebp),%eax
				wm_mouse_pos.x -
80109c63:	8b 1d d8 9d 13 80    	mov    0x80139dd8,%ebx
			clickedOnContent = 0;
80109c69:	c7 05 e4 9d 13 80 00 	movl   $0x0,0x80139de4
80109c70:	00 00 00 
			newmsg.msg_type = msg->msg_type;
80109c73:	8b 38                	mov    (%eax),%edi
				windowlist[windowlisttail].wnd.position.xmin;
80109c75:	a1 fc a6 13 80       	mov    0x8013a6fc,%eax
80109c7a:	8d 0c c0             	lea    (%eax,%eax,8),%ecx
				wm_mouse_pos.y -
80109c7d:	a1 dc 9d 13 80       	mov    0x80139ddc,%eax
				windowlist[windowlisttail].wnd.position.xmin;
80109c82:	c1 e1 08             	shl    $0x8,%ecx
				wm_mouse_pos.y -
80109c85:	89 45 e4             	mov    %eax,-0x1c(%ebp)
				windowlist[windowlisttail].wnd.position.ymin;
80109c88:	8b 81 2c a7 13 80    	mov    -0x7fec58d4(%ecx),%eax
				windowlist[windowlisttail].wnd.position.xmin;
80109c8e:	8b b1 24 a7 13 80    	mov    -0x7fec58dc(%ecx),%esi
				windowlist[windowlisttail].wnd.position.ymin;
80109c94:	89 45 e0             	mov    %eax,-0x20(%ebp)
	if (buf->cnt >= MSG_BUF_SIZE)
80109c97:	8b 81 d8 af 13 80    	mov    -0x7fec5028(%ecx),%eax
80109c9d:	83 f8 31             	cmp    $0x31,%eax
80109ca0:	0f 8f 7c f9 ff ff    	jg     80109622 <wmHandleMessage+0x52>
	++buf->cnt;
80109ca6:	83 c0 01             	add    $0x1,%eax
				wm_mouse_pos.x -
80109ca9:	29 f3                	sub    %esi,%ebx
	++buf->cnt;
80109cab:	89 81 d8 af 13 80    	mov    %eax,-0x7fec5028(%ecx)
	buf->data[buf->rear] = *msg;
80109cb1:	6b 81 d4 af 13 80 2c 	imul   $0x2c,-0x7fec502c(%ecx),%eax
80109cb8:	8d 84 01 20 a7 13 80 	lea    -0x7fec58e0(%ecx,%eax,1),%eax
80109cbf:	89 78 18             	mov    %edi,0x18(%eax)
				wm_mouse_pos.y -
80109cc2:	8b 7d e0             	mov    -0x20(%ebp),%edi
				wm_mouse_pos.x -
80109cc5:	89 58 1c             	mov    %ebx,0x1c(%eax)
				wm_mouse_pos.y -
80109cc8:	8b 5d e4             	mov    -0x1c(%ebp),%ebx
	buf->data[buf->rear] = *msg;
80109ccb:	c7 40 24 00 00 00 00 	movl   $0x0,0x24(%eax)
				wm_mouse_pos.y -
80109cd2:	29 fb                	sub    %edi,%ebx
	buf->data[buf->rear] = *msg;
80109cd4:	8b b9 d4 af 13 80    	mov    -0x7fec502c(%ecx),%edi
80109cda:	c7 40 28 00 00 00 00 	movl   $0x0,0x28(%eax)
				wm_mouse_pos.y -
80109ce1:	89 58 20             	mov    %ebx,0x20(%eax)
	buf->data[buf->rear] = *msg;
80109ce4:	8d 5f 01             	lea    0x1(%edi),%ebx
80109ce7:	c7 40 2c 00 00 00 00 	movl   $0x0,0x2c(%eax)
80109cee:	6b f3 2c             	imul   $0x2c,%ebx,%esi
80109cf1:	c7 40 30 00 00 00 00 	movl   $0x0,0x30(%eax)
80109cf8:	c7 40 34 00 00 00 00 	movl   $0x0,0x34(%eax)
80109cff:	c7 40 3c 00 00 00 00 	movl   $0x0,0x3c(%eax)
80109d06:	c7 40 40 00 00 00 00 	movl   $0x0,0x40(%eax)
	if ((++buf->rear) >= MSG_BUF_SIZE)
80109d0d:	31 c0                	xor    %eax,%eax
80109d0f:	83 fb 31             	cmp    $0x31,%ebx
	buf->data[buf->rear] = *msg;
80109d12:	c7 84 31 2c a7 13 80 	movl   $0x0,-0x7fec58d4(%ecx,%esi,1)
80109d19:	00 00 00 00 
	if ((++buf->rear) >= MSG_BUF_SIZE)
80109d1d:	0f 4f d8             	cmovg  %eax,%ebx
80109d20:	89 99 d4 af 13 80    	mov    %ebx,-0x7fec502c(%ecx)
80109d26:	e9 f7 f8 ff ff       	jmp    80109622 <wmHandleMessage+0x52>
80109d2b:	2e 8d 74 26 00       	lea    %cs:0x0(%esi,%eiz,1),%esi
		if (wm_mouse_pos.y > SCREEN_HEIGHT)
80109d30:	39 cf                	cmp    %ecx,%edi
80109d32:	0f 8e 08 01 00 00    	jle    80109e40 <wmHandleMessage+0x870>
			wm_mouse_pos.y = SCREEN_HEIGHT;
80109d38:	89 0d dc 9d 13 80    	mov    %ecx,0x80139ddc
		if (wm_mouse_pos.x < 0)
80109d3e:	85 c0                	test   %eax,%eax
80109d40:	0f 89 f4 fa ff ff    	jns    8010983a <wmHandleMessage+0x26a>
			wm_mouse_pos.x = 0;
80109d46:	c7 05 d8 9d 13 80 00 	movl   $0x0,0x80139dd8
80109d4d:	00 00 00 
		if (wm_mouse_pos.y < 0)
80109d50:	e9 e5 fa ff ff       	jmp    8010983a <wmHandleMessage+0x26a>
80109d55:	8d 76 00             	lea    0x0(%esi),%esi
			moveFocusWindow(wm_mouse_pos.x - wm_last_mouse_pos.x,
80109d58:	a1 dc 9d 13 80       	mov    0x80139ddc,%eax
80109d5d:	8b 4d e4             	mov    -0x1c(%ebp),%ecx
80109d60:	83 ec 08             	sub    $0x8,%esp
			mouseShape = 1;
80109d63:	c7 05 ec 9d 13 80 01 	movl   $0x1,0x80139dec
80109d6a:	00 00 00 
			moveFocusWindow(wm_mouse_pos.x - wm_last_mouse_pos.x,
80109d6d:	29 c8                	sub    %ecx,%eax
80109d6f:	50                   	push   %eax
80109d70:	a1 d8 9d 13 80       	mov    0x80139dd8,%eax
80109d75:	29 f0                	sub    %esi,%eax
80109d77:	50                   	push   %eax
80109d78:	e8 93 f4 ff ff       	call   80109210 <moveFocusWindow>
80109d7d:	83 c4 10             	add    $0x10,%esp
80109d80:	e9 ba f8 ff ff       	jmp    8010963f <wmHandleMessage+0x6f>
80109d85:	8d 76 00             	lea    0x0(%esi),%esi
	if (buf->cnt >= MSG_BUF_SIZE)
80109d88:	8b 15 b8 a6 13 80    	mov    0x8013a6b8,%edx
			clickedOnPopup = 0;
80109d8e:	c7 05 e0 9d 13 80 00 	movl   $0x0,0x80139de0
80109d95:	00 00 00 
	if (buf->cnt >= MSG_BUF_SIZE)
80109d98:	83 fa 31             	cmp    $0x31,%edx
80109d9b:	0f 8f 79 f8 ff ff    	jg     8010961a <wmHandleMessage+0x4a>
	buf->data[buf->rear] = *msg;
80109da1:	8b 1d b4 a6 13 80    	mov    0x8013a6b4,%ebx
	++buf->cnt;
80109da7:	83 c2 01             	add    $0x1,%edx
80109daa:	89 15 b8 a6 13 80    	mov    %edx,0x8013a6b8
	buf->data[buf->rear] = *msg;
80109db0:	6b d3 2c             	imul   $0x2c,%ebx,%edx
80109db3:	89 82 18 9e 13 80    	mov    %eax,-0x7fec61e8(%edx)
				wm_mouse_pos.x - popupwindow.wnd.position.xmin;
80109db9:	a1 d8 9d 13 80       	mov    0x80139dd8,%eax
80109dbe:	2b 05 04 9e 13 80    	sub    0x80139e04,%eax
	buf->data[buf->rear] = *msg;
80109dc4:	c7 82 24 9e 13 80 00 	movl   $0x0,-0x7fec61dc(%edx)
80109dcb:	00 00 00 
				wm_mouse_pos.x - popupwindow.wnd.position.xmin;
80109dce:	89 82 1c 9e 13 80    	mov    %eax,-0x7fec61e4(%edx)
				wm_mouse_pos.y - popupwindow.wnd.position.ymin;
80109dd4:	a1 dc 9d 13 80       	mov    0x80139ddc,%eax
80109dd9:	2b 05 0c 9e 13 80    	sub    0x80139e0c,%eax
	buf->data[buf->rear] = *msg;
80109ddf:	c7 82 28 9e 13 80 00 	movl   $0x0,-0x7fec61d8(%edx)
80109de6:	00 00 00 
				wm_mouse_pos.y - popupwindow.wnd.position.ymin;
80109de9:	89 82 20 9e 13 80    	mov    %eax,-0x7fec61e0(%edx)
	if ((++buf->rear) >= MSG_BUF_SIZE)
80109def:	8d 43 01             	lea    0x1(%ebx),%eax
	buf->data[buf->rear] = *msg;
80109df2:	c7 82 2c 9e 13 80 00 	movl   $0x0,-0x7fec61d4(%edx)
80109df9:	00 00 00 
80109dfc:	c7 82 30 9e 13 80 00 	movl   $0x0,-0x7fec61d0(%edx)
80109e03:	00 00 00 
80109e06:	c7 82 34 9e 13 80 00 	movl   $0x0,-0x7fec61cc(%edx)
80109e0d:	00 00 00 
80109e10:	c7 82 38 9e 13 80 00 	movl   $0x0,-0x7fec61c8(%edx)
80109e17:	00 00 00 
80109e1a:	c7 82 3c 9e 13 80 00 	movl   $0x0,-0x7fec61c4(%edx)
80109e21:	00 00 00 
80109e24:	c7 82 40 9e 13 80 00 	movl   $0x0,-0x7fec61c0(%edx)
80109e2b:	00 00 00 
	if ((++buf->rear) >= MSG_BUF_SIZE)
80109e2e:	31 d2                	xor    %edx,%edx
80109e30:	83 f8 31             	cmp    $0x31,%eax
80109e33:	0f 4f c2             	cmovg  %edx,%eax
80109e36:	a3 b4 a6 13 80       	mov    %eax,0x8013a6b4
80109e3b:	e9 da f7 ff ff       	jmp    8010961a <wmHandleMessage+0x4a>
		if (wm_mouse_pos.x < 0)
80109e40:	85 c0                	test   %eax,%eax
80109e42:	0f 89 e4 f9 ff ff    	jns    8010982c <wmHandleMessage+0x25c>
			wm_mouse_pos.x = 0;
80109e48:	c7 05 d8 9d 13 80 00 	movl   $0x0,0x80139dd8
80109e4f:	00 00 00 
80109e52:	e9 d5 f9 ff ff       	jmp    8010982c <wmHandleMessage+0x25c>
80109e57:	2e 8d b4 26 00 00 00 	lea    %cs:0x0(%esi,%eiz,1),%esi
80109e5e:	00 
80109e5f:	90                   	nop
			wm_mouse_pos.y = SCREEN_HEIGHT;
80109e60:	89 0d dc 9d 13 80    	mov    %ecx,0x80139ddc
		if (wm_mouse_pos.x < 0)
80109e66:	e9 cf f9 ff ff       	jmp    8010983a <wmHandleMessage+0x26a>
80109e6b:	2e 8d 74 26 00       	lea    %cs:0x0(%esi,%eiz,1),%esi
			if (isInRect(win->position.xmin, win->position.ymin,
80109e70:	8b 45 e0             	mov    -0x20(%ebp),%eax
80109e73:	01 f0                	add    %esi,%eax
80109e75:	c1 e0 08             	shl    $0x8,%eax
80109e78:	8b 80 30 a7 13 80    	mov    -0x7fec58d0(%eax),%eax
	return (x >= xmin && x <= xmax && y >= ymin && y <= ymax);
80109e7e:	e9 dc fc ff ff       	jmp    80109b5f <wmHandleMessage+0x58f>
80109e83:	2e 8d 74 26 00       	lea    %cs:0x0(%esi,%eiz,1),%esi
			if (msg->params[1] > -SCREEN_HEIGHT &&
80109e88:	89 cf                	mov    %ecx,%edi
80109e8a:	8b 5b 08             	mov    0x8(%ebx),%ebx
80109e8d:	f7 df                	neg    %edi
80109e8f:	39 fb                	cmp    %edi,%ebx
80109e91:	0f 8e 7a f9 ff ff    	jle    80109811 <wmHandleMessage+0x241>
80109e97:	39 c8                	cmp    %ecx,%eax
80109e99:	0f 8d 72 f9 ff ff    	jge    80109811 <wmHandleMessage+0x241>
				wm_mouse_pos.y +=
80109e9f:	8b 7d e4             	mov    -0x1c(%ebp),%edi
				wm_mouse_pos.x +=
80109ea2:	01 f0                	add    %esi,%eax
80109ea4:	a3 d8 9d 13 80       	mov    %eax,0x80139dd8
				wm_mouse_pos.y +=
80109ea9:	29 df                	sub    %ebx,%edi
80109eab:	89 3d dc 9d 13 80    	mov    %edi,0x80139ddc
80109eb1:	e9 60 f9 ff ff       	jmp    80109816 <wmHandleMessage+0x246>
80109eb6:	2e 8d b4 26 00 00 00 	lea    %cs:0x0(%esi,%eiz,1),%esi
80109ebd:	00 
80109ebe:	66 90                	xchg   %ax,%ax
	if (buf->cnt >= MSG_BUF_SIZE)
80109ec0:	8b 90 b8 08 00 00    	mov    0x8b8(%eax),%edx
80109ec6:	83 fa 31             	cmp    $0x31,%edx
80109ec9:	0f 8f 8d fc ff ff    	jg     80109b5c <wmHandleMessage+0x58c>
	buf->data[buf->rear] = *msg;
80109ecf:	8b 98 b4 08 00 00    	mov    0x8b4(%eax),%ebx
	++buf->cnt;
80109ed5:	83 c2 01             	add    $0x1,%edx
	buf->data[buf->rear] = *msg;
80109ed8:	8b 4d d4             	mov    -0x2c(%ebp),%ecx
	++buf->cnt;
80109edb:	89 90 b8 08 00 00    	mov    %edx,0x8b8(%eax)
	buf->data[buf->rear] = *msg;
80109ee1:	6b d3 2c             	imul   $0x2c,%ebx,%edx
80109ee4:	8d 94 11 20 a7 13 80 	lea    -0x7fec58e0(%ecx,%edx,1),%edx
80109eeb:	c7 42 18 64 00 00 00 	movl   $0x64,0x18(%edx)
80109ef2:	8d 4b 01             	lea    0x1(%ebx),%ecx
80109ef5:	c7 42 1c 00 00 00 00 	movl   $0x0,0x1c(%edx)
80109efc:	6b d9 2c             	imul   $0x2c,%ecx,%ebx
80109eff:	c7 42 20 00 00 00 00 	movl   $0x0,0x20(%edx)
80109f06:	c7 42 24 00 00 00 00 	movl   $0x0,0x24(%edx)
80109f0d:	c7 42 28 00 00 00 00 	movl   $0x0,0x28(%edx)
80109f14:	c7 42 2c 00 00 00 00 	movl   $0x0,0x2c(%edx)
80109f1b:	c7 42 30 00 00 00 00 	movl   $0x0,0x30(%edx)
80109f22:	c7 42 34 00 00 00 00 	movl   $0x0,0x34(%edx)
80109f29:	89 4d d0             	mov    %ecx,-0x30(%ebp)
80109f2c:	8b 4d d4             	mov    -0x2c(%ebp),%ecx
80109f2f:	c7 84 19 2c a7 13 80 	movl   $0x0,-0x7fec58d4(%ecx,%ebx,1)
80109f36:	00 00 00 00 
80109f3a:	c7 42 3c 00 00 00 00 	movl   $0x0,0x3c(%edx)
80109f41:	c7 42 40 00 00 00 00 	movl   $0x0,0x40(%edx)
	if ((++buf->rear) >= MSG_BUF_SIZE)
80109f48:	8b 4d d0             	mov    -0x30(%ebp),%ecx
80109f4b:	89 88 b4 08 00 00    	mov    %ecx,0x8b4(%eax)
80109f51:	83 f9 31             	cmp    $0x31,%ecx
80109f54:	0f 8e 02 fc ff ff    	jle    80109b5c <wmHandleMessage+0x58c>
		buf->rear = 0;
80109f5a:	c7 80 b4 08 00 00 00 	movl   $0x0,0x8b4(%eax)
80109f61:	00 00 00 
			if (isInRect(win->position.xmin, win->position.ymin,
80109f64:	8b 40 10             	mov    0x10(%eax),%eax
	return (x >= xmin && x <= xmax && y >= ymin && y <= ymax);
80109f67:	e9 f3 fb ff ff       	jmp    80109b5f <wmHandleMessage+0x58f>
	if (buf->cnt >= MSG_BUF_SIZE)
80109f6c:	8b 90 b8 08 00 00    	mov    0x8b8(%eax),%edx
80109f72:	83 fa 31             	cmp    $0x31,%edx
80109f75:	0f 8f e1 fb ff ff    	jg     80109b5c <wmHandleMessage+0x58c>
	buf->data[buf->rear] = *msg;
80109f7b:	8b 98 b4 08 00 00    	mov    0x8b4(%eax),%ebx
	++buf->cnt;
80109f81:	83 c2 01             	add    $0x1,%edx
	buf->data[buf->rear] = *msg;
80109f84:	8b 4d d4             	mov    -0x2c(%ebp),%ecx
	++buf->cnt;
80109f87:	89 90 b8 08 00 00    	mov    %edx,0x8b8(%eax)
	buf->data[buf->rear] = *msg;
80109f8d:	6b d3 2c             	imul   $0x2c,%ebx,%edx
80109f90:	8d 94 11 20 a7 13 80 	lea    -0x7fec58e0(%ecx,%edx,1),%edx
80109f97:	c7 42 18 65 00 00 00 	movl   $0x65,0x18(%edx)
80109f9e:	e9 4f ff ff ff       	jmp    80109ef2 <wmHandleMessage+0x922>
80109fa3:	2e 8d b4 26 00 00 00 	lea    %cs:0x0(%esi,%eiz,1),%esi
80109faa:	00 
80109fab:	2e 8d 74 26 00       	lea    %cs:0x0(%esi,%eiz,1),%esi

80109fb0 <drawWindowBar>:

void drawWindowBar(struct RGB *dst, kernel_window *win, struct RGBA barcolor) {
80109fb0:	55                   	push   %ebp
80109fb1:	89 e5                	mov    %esp,%ebp
80109fb3:	57                   	push   %edi
80109fb4:	56                   	push   %esi
80109fb5:	53                   	push   %ebx
80109fb6:	83 ec 24             	sub    $0x24,%esp
80109fb9:	8b 45 0c             	mov    0xc(%ebp),%eax
80109fbc:	8b 7d 08             	mov    0x8(%ebp),%edi
	int xmin = win->position.xmin;
	int xmax = win->position.xmax + 1;
80109fbf:	8b 70 04             	mov    0x4(%eax),%esi
	int ymin = win->position.ymin - TITLE_HEIGHT;
80109fc2:	8b 58 08             	mov    0x8(%eax),%ebx
	int xmin = win->position.xmin;
80109fc5:	8b 10                	mov    (%eax),%edx
	int ymax = win->position.ymin;

	drawRectByCoord(dst, xmin, ymin, xmax - 2 * TITLE_HEIGHT, ymax,
80109fc7:	ff 75 10             	push   0x10(%ebp)
	int ymin = win->position.ymin - TITLE_HEIGHT;
80109fca:	8d 43 e4             	lea    -0x1c(%ebx),%eax
	drawRectByCoord(dst, xmin, ymin, xmax - 2 * TITLE_HEIGHT, ymax,
80109fcd:	8d 4e c9             	lea    -0x37(%esi),%ecx
80109fd0:	53                   	push   %ebx
80109fd1:	51                   	push   %ecx
80109fd2:	89 45 e4             	mov    %eax,-0x1c(%ebp)
80109fd5:	89 4d d8             	mov    %ecx,-0x28(%ebp)
80109fd8:	50                   	push   %eax
80109fd9:	89 55 e0             	mov    %edx,-0x20(%ebp)
80109fdc:	52                   	push   %edx
80109fdd:	57                   	push   %edi
80109fde:	e8 7d e2 ff ff       	call   80108260 <drawRectByCoord>
			barcolor);

	drawRectByCoord(dst, xmax - 2 * TITLE_HEIGHT, ymin, xmax - TITLE_HEIGHT,
80109fe3:	83 c4 18             	add    $0x18,%esp
80109fe6:	8d 56 e5             	lea    -0x1b(%esi),%edx
80109fe9:	ff 35 bc 9d 13 80    	push   0x80139dbc
80109fef:	53                   	push   %ebx
80109ff0:	52                   	push   %edx
80109ff1:	89 55 dc             	mov    %edx,-0x24(%ebp)
80109ff4:	ff 75 e4             	push   -0x1c(%ebp)
80109ff7:	8b 4d d8             	mov    -0x28(%ebp),%ecx
80109ffa:	51                   	push   %ecx
80109ffb:	57                   	push   %edi
80109ffc:	e8 5f e2 ff ff       	call   80108260 <drawRectByCoord>
			ymax, minimizeColor);

	drawRectByCoord(dst, xmax - TITLE_HEIGHT, ymin, xmax, ymax, closeColor);
8010a001:	83 c4 18             	add    $0x18,%esp
	int xmax = win->position.xmax + 1;
8010a004:	8d 4e 01             	lea    0x1(%esi),%ecx
	drawRectByCoord(dst, xmax - TITLE_HEIGHT, ymin, xmax, ymax, closeColor);
8010a007:	ff 35 c4 9d 13 80    	push   0x80139dc4
8010a00d:	53                   	push   %ebx
8010a00e:	51                   	push   %ecx
8010a00f:	ff 75 e4             	push   -0x1c(%ebp)
8010a012:	8b 55 dc             	mov    -0x24(%ebp),%edx
8010a015:	52                   	push   %edx
8010a016:	57                   	push   %edi
8010a017:	e8 44 e2 ff ff       	call   80108260 <drawRectByCoord>

	drawString(dst, xmin + 8, ymin + 6, win->title, titleTextColor);
8010a01c:	83 c4 14             	add    $0x14,%esp
8010a01f:	ff 35 b4 9d 13 80    	push   0x80139db4
8010a025:	8b 45 0c             	mov    0xc(%ebp),%eax
8010a028:	05 b8 08 00 00       	add    $0x8b8,%eax
8010a02d:	50                   	push   %eax
8010a02e:	8d 43 ea             	lea    -0x16(%ebx),%eax

	drawIcon(dst, xmax - 2 * TITLE_HEIGHT - 1, ymin - 1, 1, iconColor);
8010a031:	83 eb 1d             	sub    $0x1d,%ebx
	drawString(dst, xmin + 8, ymin + 6, win->title, titleTextColor);
8010a034:	50                   	push   %eax
8010a035:	8b 55 e0             	mov    -0x20(%ebp),%edx
8010a038:	8d 42 08             	lea    0x8(%edx),%eax
8010a03b:	50                   	push   %eax
8010a03c:	57                   	push   %edi
8010a03d:	e8 ee da ff ff       	call   80107b30 <drawString>
	drawIcon(dst, xmax - 2 * TITLE_HEIGHT - 1, ymin - 1, 1, iconColor);
8010a042:	83 c4 14             	add    $0x14,%esp
8010a045:	8d 46 c8             	lea    -0x38(%esi),%eax
8010a048:	ff 35 b8 9d 13 80    	push   0x80139db8
8010a04e:	6a 01                	push   $0x1
	drawIcon(dst, xmax - TITLE_HEIGHT - 1, ymin - 1, 0, iconColor);
8010a050:	83 ee 1c             	sub    $0x1c,%esi
	drawIcon(dst, xmax - 2 * TITLE_HEIGHT - 1, ymin - 1, 1, iconColor);
8010a053:	53                   	push   %ebx
8010a054:	50                   	push   %eax
8010a055:	57                   	push   %edi
8010a056:	e8 05 da ff ff       	call   80107a60 <drawIcon>
	drawIcon(dst, xmax - TITLE_HEIGHT - 1, ymin - 1, 0, iconColor);
8010a05b:	83 c4 14             	add    $0x14,%esp
8010a05e:	ff 35 b8 9d 13 80    	push   0x80139db8
8010a064:	6a 00                	push   $0x0
8010a066:	53                   	push   %ebx
8010a067:	56                   	push   %esi
8010a068:	57                   	push   %edi
8010a069:	e8 f2 d9 ff ff       	call   80107a60 <drawIcon>
}
8010a06e:	83 c4 20             	add    $0x20,%esp
8010a071:	8d 65 f4             	lea    -0xc(%ebp),%esp
8010a074:	5b                   	pop    %ebx
8010a075:	5e                   	pop    %esi
8010a076:	5f                   	pop    %edi
8010a077:	5d                   	pop    %ebp
8010a078:	c3                   	ret
8010a079:	8d b4 26 00 00 00 00 	lea    0x0(%esi,%eiz,1),%esi

8010a080 <drawWindow>:

void drawWindow(kernel_window *win) {
8010a080:	55                   	push   %ebp
8010a081:	89 e5                	mov    %esp,%ebp
8010a083:	57                   	push   %edi
8010a084:	56                   	push   %esi
8010a085:	53                   	push   %ebx
8010a086:	83 ec 24             	sub    $0x24,%esp
8010a089:	8b 5d 08             	mov    0x8(%ebp),%ebx
	int width = win->position.xmax - win->position.xmin;
	int height = win->position.ymax - win->position.ymin;
8010a08c:	8b 53 08             	mov    0x8(%ebx),%edx
	int width = win->position.xmax - win->position.xmin;
8010a08f:	8b 03                	mov    (%ebx),%eax
8010a091:	8b 73 04             	mov    0x4(%ebx),%esi
	int height = win->position.ymax - win->position.ymin;
8010a094:	8b 7b 0c             	mov    0xc(%ebx),%edi
	int width = win->position.xmax - win->position.xmin;
8010a097:	29 c6                	sub    %eax,%esi
	int height = win->position.ymax - win->position.ymin;
8010a099:	29 d7                	sub    %edx,%edi

	draw24ImagePart(screen_buf, win->window_buf, win->position.xmin,
8010a09b:	57                   	push   %edi
8010a09c:	56                   	push   %esi
8010a09d:	6a 00                	push   $0x0
8010a09f:	6a 00                	push   $0x0
8010a0a1:	57                   	push   %edi
8010a0a2:	56                   	push   %esi
8010a0a3:	52                   	push   %edx
8010a0a4:	50                   	push   %eax
8010a0a5:	ff 73 10             	push   0x10(%ebx)
8010a0a8:	ff 35 c8 9c 13 80    	push   0x80139cc8
8010a0ae:	e8 1d dd ff ff       	call   80107dd0 <draw24ImagePart>

	RGB borderColor;
	borderColor.R = 60;
	borderColor.G = 68;
	borderColor.B = 82;
	drawRectBorder(screen_buf, borderColor, win->position.xmin,
8010a0b3:	83 c4 28             	add    $0x28,%esp
	borderColor.B = 82;
8010a0b6:	b8 52 44 00 00       	mov    $0x4452,%eax
8010a0bb:	66 89 45 e4          	mov    %ax,-0x1c(%ebp)
	drawRectBorder(screen_buf, borderColor, win->position.xmin,
8010a0bf:	57                   	push   %edi
8010a0c0:	56                   	push   %esi
8010a0c1:	ff 73 08             	push   0x8(%ebx)
8010a0c4:	ff 33                	push   (%ebx)
8010a0c6:	0f b7 45 e4          	movzwl -0x1c(%ebp),%eax
8010a0ca:	83 ec 04             	sub    $0x4,%esp
8010a0cd:	66 89 04 24          	mov    %ax,(%esp)
8010a0d1:	c6 44 24 02 3c       	movb   $0x3c,0x2(%esp)
8010a0d6:	ff 35 c8 9c 13 80    	push   0x80139cc8
8010a0dc:	e8 6f df ff ff       	call   80108050 <drawRectBorder>
		       win->position.ymin, width, height);

	if (win->hasTitleBar) {
8010a0e1:	8b 93 f0 08 00 00    	mov    0x8f0(%ebx),%edx
8010a0e7:	83 c4 20             	add    $0x20,%esp
8010a0ea:	85 d2                	test   %edx,%edx
8010a0ec:	75 12                	jne    8010a100 <drawWindow+0x80>
		drawWindowBar(screen_buf, win, titleBarColor);
	}
}
8010a0ee:	8d 65 f4             	lea    -0xc(%ebp),%esp
8010a0f1:	5b                   	pop    %ebx
8010a0f2:	5e                   	pop    %esi
8010a0f3:	5f                   	pop    %edi
8010a0f4:	5d                   	pop    %ebp
8010a0f5:	c3                   	ret
8010a0f6:	2e 8d b4 26 00 00 00 	lea    %cs:0x0(%esi,%eiz,1),%esi
8010a0fd:	00 
8010a0fe:	66 90                	xchg   %ax,%ax
		drawWindowBar(screen_buf, win, titleBarColor);
8010a100:	83 ec 04             	sub    $0x4,%esp
8010a103:	ff 35 cc 9d 13 80    	push   0x80139dcc
8010a109:	53                   	push   %ebx
8010a10a:	ff 35 c8 9c 13 80    	push   0x80139cc8
8010a110:	e8 9b fe ff ff       	call   80109fb0 <drawWindowBar>
8010a115:	83 c4 10             	add    $0x10,%esp
}
8010a118:	8d 65 f4             	lea    -0xc(%ebp),%esp
8010a11b:	5b                   	pop    %ebx
8010a11c:	5e                   	pop    %esi
8010a11d:	5f                   	pop    %edi
8010a11e:	5d                   	pop    %ebp
8010a11f:	c3                   	ret

8010a120 <drawClock>:

// TAMBAH: Fungsi drawClock untuk menampilkan jam di dock
void drawClock(struct RGB *dst) {
8010a120:	55                   	push   %ebp
8010a121:	89 e5                	mov    %esp,%ebp
8010a123:	53                   	push   %ebx
	int hours, minutes, seconds;
	rtc_read_time(&hours, &minutes, &seconds);
8010a124:	8d 45 ec             	lea    -0x14(%ebp),%eax
void drawClock(struct RGB *dst) {
8010a127:	83 ec 28             	sub    $0x28,%esp
	rtc_read_time(&hours, &minutes, &seconds);
8010a12a:	50                   	push   %eax
8010a12b:	8d 45 e8             	lea    -0x18(%ebp),%eax
8010a12e:	50                   	push   %eax
8010a12f:	8d 45 e4             	lea    -0x1c(%ebp),%eax
8010a132:	50                   	push   %eax
8010a133:	e8 08 0f 00 00       	call   8010b040 <rtc_read_time>

	char timeStr[6];
	timeStr[0] = '0' + (hours / 10);
8010a138:	8b 5d e4             	mov    -0x1c(%ebp),%ebx
8010a13b:	b9 67 66 66 66       	mov    $0x66666667,%ecx
	timeStr[1] = '0' + (hours % 10);
	timeStr[2] = ':';
8010a140:	c6 45 f4 3a          	movb   $0x3a,-0xc(%ebp)
	timeStr[3] = '0' + (minutes / 10);
	timeStr[4] = '0' + (minutes % 10);
	timeStr[5] = '\0';
8010a144:	c6 45 f7 00          	movb   $0x0,-0x9(%ebp)
	timeStr[0] = '0' + (hours / 10);
8010a148:	89 d8                	mov    %ebx,%eax
8010a14a:	f7 e9                	imul   %ecx
8010a14c:	89 d8                	mov    %ebx,%eax
8010a14e:	c1 f8 1f             	sar    $0x1f,%eax
8010a151:	c1 fa 02             	sar    $0x2,%edx
8010a154:	29 c2                	sub    %eax,%edx
8010a156:	8d 42 30             	lea    0x30(%edx),%eax
8010a159:	88 45 f2             	mov    %al,-0xe(%ebp)
	timeStr[1] = '0' + (hours % 10);
8010a15c:	8d 04 92             	lea    (%edx,%edx,4),%eax
8010a15f:	01 c0                	add    %eax,%eax
8010a161:	29 c3                	sub    %eax,%ebx
8010a163:	83 c3 30             	add    $0x30,%ebx
8010a166:	88 5d f3             	mov    %bl,-0xd(%ebp)
	timeStr[3] = '0' + (minutes / 10);
8010a169:	8b 5d e8             	mov    -0x18(%ebp),%ebx
8010a16c:	89 d8                	mov    %ebx,%eax
8010a16e:	f7 e9                	imul   %ecx
8010a170:	89 d8                	mov    %ebx,%eax
8010a172:	c1 f8 1f             	sar    $0x1f,%eax
8010a175:	c1 fa 02             	sar    $0x2,%edx
8010a178:	29 c2                	sub    %eax,%edx
8010a17a:	8d 42 30             	lea    0x30(%edx),%eax
8010a17d:	88 45 f5             	mov    %al,-0xb(%ebp)
	timeStr[4] = '0' + (minutes % 10);
8010a180:	8d 04 92             	lea    (%edx,%edx,4),%eax
8010a183:	01 c0                	add    %eax,%eax
8010a185:	29 c3                	sub    %eax,%ebx

	int clockWidth = 5 * 9;
	int clockX = SCREEN_WIDTH - SHOW_DESKTOP_ICON_WIDTH - clockWidth - 15;
	int clockY = SCREEN_HEIGHT - DOCK_HEIGHT + 10;

	drawString(dst, clockX, clockY, timeStr, txtColor);
8010a187:	58                   	pop    %eax
8010a188:	8d 45 f2             	lea    -0xe(%ebp),%eax
8010a18b:	ff 35 c0 9d 13 80    	push   0x80139dc0
8010a191:	50                   	push   %eax
	timeStr[4] = '0' + (minutes % 10);
8010a192:	83 c3 30             	add    $0x30,%ebx
	int clockY = SCREEN_HEIGHT - DOCK_HEIGHT + 10;
8010a195:	0f b7 05 d4 9c 13 80 	movzwl 0x80139cd4,%eax
	timeStr[4] = '0' + (minutes % 10);
8010a19c:	88 5d f6             	mov    %bl,-0xa(%ebp)
	int clockY = SCREEN_HEIGHT - DOCK_HEIGHT + 10;
8010a19f:	83 e8 1a             	sub    $0x1a,%eax
	drawString(dst, clockX, clockY, timeStr, txtColor);
8010a1a2:	50                   	push   %eax
	int clockX = SCREEN_WIDTH - SHOW_DESKTOP_ICON_WIDTH - clockWidth - 15;
8010a1a3:	0f b7 05 d6 9c 13 80 	movzwl 0x80139cd6,%eax
8010a1aa:	83 e8 46             	sub    $0x46,%eax
	drawString(dst, clockX, clockY, timeStr, txtColor);
8010a1ad:	50                   	push   %eax
8010a1ae:	ff 75 08             	push   0x8(%ebp)
8010a1b1:	e8 7a d9 ff ff       	call   80107b30 <drawString>
}
8010a1b6:	8b 5d fc             	mov    -0x4(%ebp),%ebx
8010a1b9:	83 c4 20             	add    $0x20,%esp
8010a1bc:	c9                   	leave
8010a1bd:	c3                   	ret
8010a1be:	66 90                	xchg   %ax,%ax

8010a1c0 <drawDesktopDock>:

void drawDesktopDock(struct RGB *dst) {
8010a1c0:	55                   	push   %ebp
8010a1c1:	89 e5                	mov    %esp,%ebp
8010a1c3:	57                   	push   %edi
8010a1c4:	56                   	push   %esi
8010a1c5:	53                   	push   %ebx
8010a1c6:	83 ec 34             	sub    $0x34,%esp
	drawRectByCoord(dst, 0, SCREEN_HEIGHT - DOCK_HEIGHT, SCREEN_WIDTH,
8010a1c9:	0f b7 05 d4 9c 13 80 	movzwl 0x80139cd4,%eax
8010a1d0:	ff 35 c8 9d 13 80    	push   0x80139dc8
8010a1d6:	50                   	push   %eax
8010a1d7:	0f b7 15 d6 9c 13 80 	movzwl 0x80139cd6,%edx
8010a1de:	83 e8 24             	sub    $0x24,%eax
8010a1e1:	52                   	push   %edx
8010a1e2:	50                   	push   %eax
8010a1e3:	6a 00                	push   $0x0
8010a1e5:	ff 75 08             	push   0x8(%ebp)
8010a1e8:	e8 73 e0 ff ff       	call   80108260 <drawRectByCoord>
	for (int p = windowlisthead; p != -1; p = windowlist[p].next) {
8010a1ed:	a1 00 a7 13 80       	mov    0x8013a700,%eax
8010a1f2:	83 c4 20             	add    $0x20,%esp
8010a1f5:	83 f8 ff             	cmp    $0xffffffff,%eax
8010a1f8:	0f 84 a2 01 00 00    	je     8010a3a0 <drawDesktopDock+0x1e0>
		if (p != desktopId) {
8010a1fe:	8b 15 7c 22 11 80    	mov    0x8011227c,%edx
	int windowCount = 0;
8010a204:	31 db                	xor    %ebx,%ebx
8010a206:	2e 8d b4 26 00 00 00 	lea    %cs:0x0(%esi,%eiz,1),%esi
8010a20d:	00 
8010a20e:	66 90                	xchg   %ax,%ax
			windowCount++;
8010a210:	31 c9                	xor    %ecx,%ecx
8010a212:	39 c2                	cmp    %eax,%edx
	for (int p = windowlisthead; p != -1; p = windowlist[p].next) {
8010a214:	8d 04 c0             	lea    (%eax,%eax,8),%eax
			windowCount++;
8010a217:	0f 95 c1             	setne  %cl
	for (int p = windowlisthead; p != -1; p = windowlist[p].next) {
8010a21a:	c1 e0 08             	shl    $0x8,%eax
8010a21d:	8b 80 18 b0 13 80    	mov    -0x7fec4fe8(%eax),%eax
			windowCount++;
8010a223:	01 cb                	add    %ecx,%ebx
	for (int p = windowlisthead; p != -1; p = windowlist[p].next) {
8010a225:	83 f8 ff             	cmp    $0xffffffff,%eax
8010a228:	75 e6                	jne    8010a210 <drawDesktopDock+0x50>
	startBtnColor.R = 66;
	startBtnColor.G = 135;
	startBtnColor.B = 245;
	startBtnColor.A = 255;

	drawRectByCoord(dst, 0, SCREEN_HEIGHT - DOCK_HEIGHT, START_ICON_WIDTH,
8010a22a:	0f b7 05 d4 9c 13 80 	movzwl 0x80139cd4,%eax
8010a231:	83 ec 08             	sub    $0x8,%esp
	startBtnColor.A = 255;
8010a234:	be ff f5 87 42       	mov    $0x4287f5ff,%esi
	drawRectByCoord(dst, 0, SCREEN_HEIGHT - DOCK_HEIGHT, START_ICON_WIDTH,
8010a239:	68 ff f5 87 42       	push   $0x4287f5ff
8010a23e:	50                   	push   %eax
8010a23f:	83 e8 24             	sub    $0x24,%eax
8010a242:	6a 48                	push   $0x48
8010a244:	50                   	push   %eax
8010a245:	6a 00                	push   $0x0
8010a247:	ff 75 08             	push   0x8(%ebp)
8010a24a:	e8 11 e0 ff ff       	call   80108260 <drawRectByCoord>
			SCREEN_HEIGHT, startBtnColor);

	if (windowCount > 0) {
8010a24f:	83 c4 20             	add    $0x20,%esp
8010a252:	85 db                	test   %ebx,%ebx
8010a254:	0f 8e e9 00 00 00    	jle    8010a343 <drawDesktopDock+0x183>
		int xStart = START_ICON_WIDTH + 5;
		int barWidth = min((SCREEN_WIDTH - START_ICON_WIDTH -
				    SHOW_DESKTOP_ICON_WIDTH - 90) /
8010a25a:	0f b7 05 d6 9c 13 80 	movzwl 0x80139cd6,%eax
					   (windowCount + 1),
8010a261:	83 c3 01             	add    $0x1,%ebx
				    SHOW_DESKTOP_ICON_WIDTH - 90) /
8010a264:	2d ac 00 00 00       	sub    $0xac,%eax
		int barWidth = min((SCREEN_WIDTH - START_ICON_WIDTH -
8010a269:	99                   	cltd
8010a26a:	f7 fb                	idiv   %ebx
				   DOCK_PROGRAM_NORMAL_WIDTH);
		for (p = windowlisthead; p != -1; p = windowlist[p].next) {
8010a26c:	8b 1d 00 a7 13 80    	mov    0x8013a700,%ebx
int min(int x, int y) { return x < y ? x : y; }
8010a272:	ba a0 00 00 00       	mov    $0xa0,%edx
8010a277:	39 d0                	cmp    %edx,%eax
8010a279:	0f 4f c2             	cmovg  %edx,%eax
		for (p = windowlisthead; p != -1; p = windowlist[p].next) {
8010a27c:	83 fb ff             	cmp    $0xffffffff,%ebx
8010a27f:	0f 84 be 00 00 00    	je     8010a343 <drawDesktopDock+0x183>
			if (p != desktopId) {
				drawStringWithMaxWidth(
8010a285:	8d 48 fe             	lea    -0x2(%eax),%ecx
8010a288:	89 45 d8             	mov    %eax,-0x28(%ebp)
		int xStart = START_ICON_WIDTH + 5;
8010a28b:	bf 4d 00 00 00       	mov    $0x4d,%edi
				drawStringWithMaxWidth(
8010a290:	89 4d dc             	mov    %ecx,-0x24(%ebp)
8010a293:	89 75 d4             	mov    %esi,-0x2c(%ebp)
8010a296:	2e 8d b4 26 00 00 00 	lea    %cs:0x0(%esi,%eiz,1),%esi
8010a29d:	00 
8010a29e:	66 90                	xchg   %ax,%ax
			if (p != desktopId) {
8010a2a0:	8d 34 dd 00 00 00 00 	lea    0x0(,%ebx,8),%esi
8010a2a7:	39 1d 7c 22 11 80    	cmp    %ebx,0x8011227c
8010a2ad:	74 7d                	je     8010a32c <drawDesktopDock+0x16c>
					dst, xStart + 5,
					SCREEN_HEIGHT - DOCK_HEIGHT * 0.7,
					barWidth - 2, windowlist[p].wnd.title,
8010a2af:	8d 14 1e             	lea    (%esi,%ebx,1),%edx
				drawStringWithMaxWidth(
8010a2b2:	83 ec 08             	sub    $0x8,%esp
8010a2b5:	ff 35 c0 9d 13 80    	push   0x80139dc0
					barWidth - 2, windowlist[p].wnd.title,
8010a2bb:	c1 e2 08             	shl    $0x8,%edx
8010a2be:	81 c2 dc af 13 80    	add    $0x8013afdc,%edx
				drawStringWithMaxWidth(
8010a2c4:	52                   	push   %edx
8010a2c5:	ff 75 dc             	push   -0x24(%ebp)
					SCREEN_HEIGHT - DOCK_HEIGHT * 0.7,
8010a2c8:	0f b7 15 d4 9c 13 80 	movzwl 0x80139cd4,%edx
				drawStringWithMaxWidth(
8010a2cf:	d9 7d e6             	fnstcw -0x1a(%ebp)
					SCREEN_HEIGHT - DOCK_HEIGHT * 0.7,
8010a2d2:	89 55 e0             	mov    %edx,-0x20(%ebp)
8010a2d5:	db 45 e0             	fildl  -0x20(%ebp)
				drawStringWithMaxWidth(
8010a2d8:	0f b7 55 e6          	movzwl -0x1a(%ebp),%edx
					SCREEN_HEIGHT - DOCK_HEIGHT * 0.7,
8010a2dc:	dc 25 b8 be 10 80    	fsubl  0x8010beb8
				drawStringWithMaxWidth(
8010a2e2:	80 ce 0c             	or     $0xc,%dh
8010a2e5:	66 89 55 e4          	mov    %dx,-0x1c(%ebp)
8010a2e9:	d9 6d e4             	fldcw  -0x1c(%ebp)
8010a2ec:	db 5d e0             	fistpl -0x20(%ebp)
8010a2ef:	d9 6d e6             	fldcw  -0x1a(%ebp)
8010a2f2:	8b 55 e0             	mov    -0x20(%ebp),%edx
8010a2f5:	52                   	push   %edx
8010a2f6:	8d 57 05             	lea    0x5(%edi),%edx
8010a2f9:	52                   	push   %edx
8010a2fa:	ff 75 08             	push   0x8(%ebp)
8010a2fd:	e8 7e d8 ff ff       	call   80107b80 <drawStringWithMaxWidth>
					txtColor);
				drawRectByCoord(dst, xStart + barWidth - 2,
8010a302:	0f b7 15 d4 9c 13 80 	movzwl 0x80139cd4,%edx
8010a309:	8b 45 d8             	mov    -0x28(%ebp),%eax
8010a30c:	83 c4 18             	add    $0x18,%esp
8010a30f:	ff 35 c0 9d 13 80    	push   0x80139dc0
8010a315:	01 c7                	add    %eax,%edi
8010a317:	52                   	push   %edx
8010a318:	83 ea 24             	sub    $0x24,%edx
8010a31b:	57                   	push   %edi
8010a31c:	52                   	push   %edx
8010a31d:	8d 57 fe             	lea    -0x2(%edi),%edx
8010a320:	52                   	push   %edx
8010a321:	ff 75 08             	push   0x8(%ebp)
8010a324:	e8 37 df ff ff       	call   80108260 <drawRectByCoord>
8010a329:	83 c4 20             	add    $0x20,%esp
		for (p = windowlisthead; p != -1; p = windowlist[p].next) {
8010a32c:	01 de                	add    %ebx,%esi
8010a32e:	c1 e6 08             	shl    $0x8,%esi
8010a331:	8b 9e 18 b0 13 80    	mov    -0x7fec4fe8(%esi),%ebx
8010a337:	83 fb ff             	cmp    $0xffffffff,%ebx
8010a33a:	0f 85 60 ff ff ff    	jne    8010a2a0 <drawDesktopDock+0xe0>
8010a340:	8b 75 d4             	mov    -0x2c(%ebp),%esi
			}
		}
	}

	// TAMBAH: Gambar jam sebelum show desktop button
	drawClock(dst);
8010a343:	83 ec 0c             	sub    $0xc,%esp
8010a346:	ff 75 08             	push   0x8(%ebp)
8010a349:	e8 d2 fd ff ff       	call   8010a120 <drawClock>

	drawRectByCoord(dst, SCREEN_WIDTH - SHOW_DESKTOP_ICON_WIDTH,
8010a34e:	0f b7 15 d4 9c 13 80 	movzwl 0x80139cd4,%edx
8010a355:	0f b7 05 d6 9c 13 80 	movzwl 0x80139cd6,%eax
8010a35c:	59                   	pop    %ecx
8010a35d:	5b                   	pop    %ebx
8010a35e:	56                   	push   %esi
8010a35f:	52                   	push   %edx
8010a360:	83 ea 24             	sub    $0x24,%edx
8010a363:	50                   	push   %eax
8010a364:	83 e8 0a             	sub    $0xa,%eax
8010a367:	52                   	push   %edx
8010a368:	50                   	push   %eax
8010a369:	ff 75 08             	push   0x8(%ebp)
8010a36c:	e8 ef de ff ff       	call   80108260 <drawRectByCoord>
			SCREEN_HEIGHT - DOCK_HEIGHT, SCREEN_WIDTH,
			SCREEN_HEIGHT, startBtnColor);
	drawIcon(dst, START_ICON_WIDTH / 2 - 15,
8010a371:	83 c4 14             	add    $0x14,%esp
8010a374:	ff 35 b8 9d 13 80    	push   0x80139db8
8010a37a:	6a 02                	push   $0x2
8010a37c:	0f b7 05 d4 9c 13 80 	movzwl 0x80139cd4,%eax
8010a383:	83 e8 21             	sub    $0x21,%eax
8010a386:	50                   	push   %eax
8010a387:	6a 15                	push   $0x15
8010a389:	ff 75 08             	push   0x8(%ebp)
8010a38c:	e8 cf d6 ff ff       	call   80107a60 <drawIcon>
		 SCREEN_HEIGHT - DOCK_HEIGHT + 3, 2, iconColor);
}
8010a391:	8d 65 f4             	lea    -0xc(%ebp),%esp
8010a394:	5b                   	pop    %ebx
8010a395:	5e                   	pop    %esi
8010a396:	5f                   	pop    %edi
8010a397:	5d                   	pop    %ebp
8010a398:	c3                   	ret
8010a399:	8d b4 26 00 00 00 00 	lea    0x0(%esi,%eiz,1),%esi
	drawRectByCoord(dst, 0, SCREEN_HEIGHT - DOCK_HEIGHT, START_ICON_WIDTH,
8010a3a0:	0f b7 05 d4 9c 13 80 	movzwl 0x80139cd4,%eax
8010a3a7:	83 ec 08             	sub    $0x8,%esp
	startBtnColor.A = 255;
8010a3aa:	be ff f5 87 42       	mov    $0x4287f5ff,%esi
	drawRectByCoord(dst, 0, SCREEN_HEIGHT - DOCK_HEIGHT, START_ICON_WIDTH,
8010a3af:	68 ff f5 87 42       	push   $0x4287f5ff
8010a3b4:	50                   	push   %eax
8010a3b5:	83 e8 24             	sub    $0x24,%eax
8010a3b8:	6a 48                	push   $0x48
8010a3ba:	50                   	push   %eax
8010a3bb:	6a 00                	push   $0x0
8010a3bd:	ff 75 08             	push   0x8(%ebp)
8010a3c0:	e8 9b de ff ff       	call   80108260 <drawRectByCoord>
8010a3c5:	83 c4 20             	add    $0x20,%esp
8010a3c8:	e9 76 ff ff ff       	jmp    8010a343 <drawDesktopDock+0x183>
8010a3cd:	8d 76 00             	lea    0x0(%esi),%esi

8010a3d0 <updateScreen>:

void updateScreen() {
8010a3d0:	55                   	push   %ebp
8010a3d1:	89 e5                	mov    %esp,%ebp
8010a3d3:	57                   	push   %edi
8010a3d4:	56                   	push   %esi
8010a3d5:	53                   	push   %ebx
8010a3d6:	83 ec 18             	sub    $0x18,%esp
	acquire(&wmlock);
8010a3d9:	68 80 9d 13 80       	push   $0x80139d80
8010a3de:	e8 8d b1 ff ff       	call   80105570 <acquire>
	if (myproc() != windowlist[desktopId].proc) {
8010a3e3:	e8 08 a5 ff ff       	call   801048f0 <myproc>
8010a3e8:	83 c4 10             	add    $0x10,%esp
8010a3eb:	89 c2                	mov    %eax,%edx
8010a3ed:	a1 7c 22 11 80       	mov    0x8011227c,%eax
8010a3f2:	8d 04 c0             	lea    (%eax,%eax,8),%eax
8010a3f5:	c1 e0 08             	shl    $0x8,%eax
8010a3f8:	39 90 20 a7 13 80    	cmp    %edx,-0x7fec58e0(%eax)
8010a3fe:	0f 85 53 01 00 00    	jne    8010a557 <updateScreen+0x187>
		panic("Update screen called by non desktop process");
		release(&wmlock);
		return;
	}

	memset(screen_buf, 255, screen_size);
8010a404:	83 ec 04             	sub    $0x4,%esp
8010a407:	ff 35 d0 9c 13 80    	push   0x80139cd0
8010a40d:	68 ff 00 00 00       	push   $0xff
8010a412:	ff 35 c8 9c 13 80    	push   0x80139cc8
8010a418:	e8 53 b2 ff ff       	call   80105670 <memset>
	drawWindow(&windowlist[desktopId].wnd);
8010a41d:	a1 7c 22 11 80       	mov    0x8011227c,%eax
8010a422:	8d 04 c0             	lea    (%eax,%eax,8),%eax
8010a425:	c1 e0 08             	shl    $0x8,%eax
8010a428:	05 24 a7 13 80       	add    $0x8013a724,%eax
8010a42d:	89 04 24             	mov    %eax,(%esp)
8010a430:	e8 4b fc ff ff       	call   8010a080 <drawWindow>
	drawDesktopDock(screen_buf);
8010a435:	5a                   	pop    %edx
8010a436:	ff 35 c8 9c 13 80    	push   0x80139cc8
8010a43c:	e8 7f fd ff ff       	call   8010a1c0 <drawDesktopDock>

	int p;
	for (p = windowlisthead; p != -1; p = windowlist[p].next) {
8010a441:	8b 35 00 a7 13 80    	mov    0x8013a700,%esi
8010a447:	83 c4 10             	add    $0x10,%esp
8010a44a:	83 fe ff             	cmp    $0xffffffff,%esi
8010a44d:	75 19                	jne    8010a468 <updateScreen+0x98>
8010a44f:	eb 6f                	jmp    8010a4c0 <updateScreen+0xf0>
8010a451:	8d b4 26 00 00 00 00 	lea    0x0(%esi,%eiz,1),%esi
8010a458:	01 f3                	add    %esi,%ebx
8010a45a:	c1 e3 08             	shl    $0x8,%ebx
8010a45d:	8b b3 18 b0 13 80    	mov    -0x7fec4fe8(%ebx),%esi
8010a463:	83 fe ff             	cmp    $0xffffffff,%esi
8010a466:	74 58                	je     8010a4c0 <updateScreen+0xf0>
		if (p != desktopId && windowlist[p].wnd.minimized == 0) {
8010a468:	8d 1c f5 00 00 00 00 	lea    0x0(,%esi,8),%ebx
8010a46f:	39 35 7c 22 11 80    	cmp    %esi,0x8011227c
8010a475:	74 e1                	je     8010a458 <updateScreen+0x88>
8010a477:	8d 3c 33             	lea    (%ebx,%esi,1),%edi
8010a47a:	c1 e7 08             	shl    $0x8,%edi
8010a47d:	8b 87 10 b0 13 80    	mov    -0x7fec4ff0(%edi),%eax
8010a483:	85 c0                	test   %eax,%eax
8010a485:	75 d1                	jne    8010a458 <updateScreen+0x88>
			switchuvm(windowlist[p].proc);
8010a487:	83 ec 0c             	sub    $0xc,%esp
8010a48a:	ff b7 20 a7 13 80    	push   -0x7fec58e0(%edi)
			drawWindow(&windowlist[p].wnd);
8010a490:	81 c7 24 a7 13 80    	add    $0x8013a724,%edi
	for (p = windowlisthead; p != -1; p = windowlist[p].next) {
8010a496:	01 f3                	add    %esi,%ebx
8010a498:	c1 e3 08             	shl    $0x8,%ebx
			switchuvm(windowlist[p].proc);
8010a49b:	e8 10 cc ff ff       	call   801070b0 <switchuvm>
			drawWindow(&windowlist[p].wnd);
8010a4a0:	89 3c 24             	mov    %edi,(%esp)
8010a4a3:	e8 d8 fb ff ff       	call   8010a080 <drawWindow>
	for (p = windowlisthead; p != -1; p = windowlist[p].next) {
8010a4a8:	8b b3 18 b0 13 80    	mov    -0x7fec4fe8(%ebx),%esi
			drawWindow(&windowlist[p].wnd);
8010a4ae:	83 c4 10             	add    $0x10,%esp
	for (p = windowlisthead; p != -1; p = windowlist[p].next) {
8010a4b1:	83 fe ff             	cmp    $0xffffffff,%esi
8010a4b4:	75 b2                	jne    8010a468 <updateScreen+0x98>
8010a4b6:	2e 8d b4 26 00 00 00 	lea    %cs:0x0(%esi,%eiz,1),%esi
8010a4bd:	00 
8010a4be:	66 90                	xchg   %ax,%ax
		}
	}

	if (popupwindow.caller != -1) {
8010a4c0:	83 3d f8 a6 13 80 ff 	cmpl   $0xffffffff,0x8013a6f8
8010a4c7:	74 1d                	je     8010a4e6 <updateScreen+0x116>
		switchuvm(popupwindow.proc);
8010a4c9:	83 ec 0c             	sub    $0xc,%esp
8010a4cc:	ff 35 00 9e 13 80    	push   0x80139e00
8010a4d2:	e8 d9 cb ff ff       	call   801070b0 <switchuvm>
		drawWindow(&popupwindow.wnd);
8010a4d7:	c7 04 24 04 9e 13 80 	movl   $0x80139e04,(%esp)
8010a4de:	e8 9d fb ff ff       	call   8010a080 <drawWindow>
8010a4e3:	83 c4 10             	add    $0x10,%esp
	}

	if (myproc() == 0)
8010a4e6:	e8 05 a4 ff ff       	call   801048f0 <myproc>
8010a4eb:	85 c0                	test   %eax,%eax
8010a4ed:	74 61                	je     8010a550 <updateScreen+0x180>
		switchkvm();
	else
		switchuvm(myproc());
8010a4ef:	e8 fc a3 ff ff       	call   801048f0 <myproc>
8010a4f4:	83 ec 0c             	sub    $0xc,%esp
8010a4f7:	50                   	push   %eax
8010a4f8:	e8 b3 cb ff ff       	call   801070b0 <switchuvm>
8010a4fd:	83 c4 10             	add    $0x10,%esp

	drawMouse(screen_buf, mouseShape, wm_mouse_pos.x, wm_mouse_pos.y);
8010a500:	ff 35 dc 9d 13 80    	push   0x80139ddc
8010a506:	ff 35 d8 9d 13 80    	push   0x80139dd8
8010a50c:	ff 35 ec 9d 13 80    	push   0x80139dec
8010a512:	ff 35 c8 9c 13 80    	push   0x80139cc8
8010a518:	e8 53 de ff ff       	call   80108370 <drawMouse>
	memmove(screen, screen_buf, screen_size);
8010a51d:	83 c4 0c             	add    $0xc,%esp
8010a520:	ff 35 d0 9c 13 80    	push   0x80139cd0
8010a526:	ff 35 c8 9c 13 80    	push   0x80139cc8
8010a52c:	ff 35 cc 9c 13 80    	push   0x80139ccc
8010a532:	e8 c9 b1 ff ff       	call   80105700 <memmove>

	release(&wmlock);
8010a537:	c7 04 24 80 9d 13 80 	movl   $0x80139d80,(%esp)
8010a53e:	e8 cd af ff ff       	call   80105510 <release>
8010a543:	83 c4 10             	add    $0x10,%esp
}
8010a546:	8d 65 f4             	lea    -0xc(%ebp),%esp
8010a549:	5b                   	pop    %ebx
8010a54a:	5e                   	pop    %esi
8010a54b:	5f                   	pop    %edi
8010a54c:	5d                   	pop    %ebp
8010a54d:	c3                   	ret
8010a54e:	66 90                	xchg   %ax,%ax
		switchkvm();
8010a550:	e8 4b cb ff ff       	call   801070a0 <switchkvm>
8010a555:	eb a9                	jmp    8010a500 <updateScreen+0x130>
		panic("Update screen called by non desktop process");
8010a557:	83 ec 0c             	sub    $0xc,%esp
8010a55a:	68 d8 ba 10 80       	push   $0x8010bad8
8010a55f:	e8 8c 68 ff ff       	call   80100df0 <panic>
8010a564:	2e 8d b4 26 00 00 00 	lea    %cs:0x0(%esi,%eiz,1),%esi
8010a56b:	00 
8010a56c:	8d 74 26 00          	lea    0x0(%esi,%eiz,1),%esi

8010a570 <createWindow>:

int createWindow(window_p window, char *title) {
8010a570:	55                   	push   %ebp
8010a571:	89 e5                	mov    %esp,%ebp
8010a573:	57                   	push   %edi
8010a574:	56                   	push   %esi
8010a575:	53                   	push   %ebx
8010a576:	83 ec 38             	sub    $0x38,%esp
8010a579:	8b 7d 08             	mov    0x8(%ebp),%edi
	acquire(&wmlock);
8010a57c:	68 80 9d 13 80       	push   $0x80139d80
8010a581:	e8 ea af ff ff       	call   80105570 <acquire>
	for (int i = 0; i < MAX_WINDOW_CNT; i++) {
8010a586:	b9 18 b0 13 80       	mov    $0x8013b018,%ecx
8010a58b:	83 c4 10             	add    $0x10,%esp
8010a58e:	31 d2                	xor    %edx,%edx
8010a590:	eb 18                	jmp    8010a5aa <createWindow+0x3a>
8010a592:	8d b6 00 00 00 00    	lea    0x0(%esi),%esi
8010a598:	83 c2 01             	add    $0x1,%edx
8010a59b:	81 c1 00 09 00 00    	add    $0x900,%ecx
8010a5a1:	83 fa 32             	cmp    $0x32,%edx
8010a5a4:	0f 84 f6 01 00 00    	je     8010a7a0 <createWindow+0x230>
		if (windowlist[i].prev == i && windowlist[i].next == i) {
8010a5aa:	3b 51 04             	cmp    0x4(%ecx),%edx
8010a5ad:	75 e9                	jne    8010a598 <createWindow+0x28>
8010a5af:	8b 01                	mov    (%ecx),%eax
8010a5b1:	39 c2                	cmp    %eax,%edx
8010a5b3:	75 e3                	jne    8010a598 <createWindow+0x28>
	if (winId == -1) {
		release(&wmlock);
		return 1;
	}

	if (windowlisthead == -1) {
8010a5b5:	83 3d 00 a7 13 80 ff 	cmpl   $0xffffffff,0x8013a700
8010a5bc:	75 05                	jne    8010a5c3 <createWindow+0x53>
		windowlisthead = winId;
8010a5be:	a3 00 a7 13 80       	mov    %eax,0x8013a700
	windowlist[idx].prev = windowlisttail;
8010a5c3:	8d 1c c5 00 00 00 00 	lea    0x0(,%eax,8),%ebx
8010a5ca:	8b 0d fc a6 13 80    	mov    0x8013a6fc,%ecx
8010a5d0:	8d 14 03             	lea    (%ebx,%eax,1),%edx
8010a5d3:	89 5d cc             	mov    %ebx,-0x34(%ebp)
8010a5d6:	c1 e2 08             	shl    $0x8,%edx
8010a5d9:	89 8a 1c b0 13 80    	mov    %ecx,-0x7fec4fe4(%edx)
	windowlist[idx].next = -1;
8010a5df:	c7 82 18 b0 13 80 ff 	movl   $0xffffffff,-0x7fec4fe8(%edx)
8010a5e6:	ff ff ff 
	if (windowlisttail != -1)
8010a5e9:	83 f9 ff             	cmp    $0xffffffff,%ecx
8010a5ec:	74 0c                	je     8010a5fa <createWindow+0x8a>
		windowlist[windowlisttail].next = idx;
8010a5ee:	8d 14 c9             	lea    (%ecx,%ecx,8),%edx
8010a5f1:	c1 e2 08             	shl    $0x8,%edx
8010a5f4:	89 82 18 b0 13 80    	mov    %eax,-0x7fec4fe8(%edx)
	}

	addToWindowList(winId);

	if (desktopId == -1) {
8010a5fa:	83 3d 7c 22 11 80 ff 	cmpl   $0xffffffff,0x8011227c
	windowlisttail = idx;
8010a601:	a3 fc a6 13 80       	mov    %eax,0x8013a6fc
	if (desktopId == -1) {
8010a606:	75 05                	jne    8010a60d <createWindow+0x9d>
		desktopId = winId;
8010a608:	a3 7c 22 11 80       	mov    %eax,0x8011227c
	int xmax = window->initialPosition.xmax;
	int ymin = window->initialPosition.ymin;
	int ymax = window->initialPosition.ymax;

	if (xmin >= 0 && xmax <= SCREEN_WIDTH && ymin >= 0 &&
	    ymax <= SCREEN_HEIGHT && xmax - xmin == window->width &&
8010a60d:	8b 5f 18             	mov    0x18(%edi),%ebx
8010a610:	0f b7 35 d4 9c 13 80 	movzwl 0x80139cd4,%esi
	int xmin = window->initialPosition.xmin;
8010a617:	8b 17                	mov    (%edi),%edx
	if (xmin >= 0 && xmax <= SCREEN_WIDTH && ymin >= 0 &&
8010a619:	0f b7 0d d6 9c 13 80 	movzwl 0x80139cd6,%ecx
	    ymax <= SCREEN_HEIGHT && xmax - xmin == window->width &&
8010a620:	89 5d d4             	mov    %ebx,-0x2c(%ebp)
	    ymax - ymin == window->height) {
8010a623:	8b 5f 1c             	mov    0x1c(%edi),%ebx
	    ymax <= SCREEN_HEIGHT && xmax - xmin == window->width &&
8010a626:	66 89 75 da          	mov    %si,-0x26(%ebp)
	    ymax - ymin == window->height) {
8010a62a:	89 5d d0             	mov    %ebx,-0x30(%ebp)
	if (xmin >= 0 && xmax <= SCREEN_WIDTH && ymin >= 0 &&
8010a62d:	85 d2                	test   %edx,%edx
8010a62f:	78 21                	js     8010a652 <createWindow+0xe2>
	int xmax = window->initialPosition.xmax;
8010a631:	8b 77 04             	mov    0x4(%edi),%esi
	int ymin = window->initialPosition.ymin;
8010a634:	8b 5f 08             	mov    0x8(%edi),%ebx
	int xmax = window->initialPosition.xmax;
8010a637:	89 75 e0             	mov    %esi,-0x20(%ebp)
	int ymin = window->initialPosition.ymin;
8010a63a:	89 5d e4             	mov    %ebx,-0x1c(%ebp)
	if (xmin >= 0 && xmax <= SCREEN_WIDTH && ymin >= 0 &&
8010a63d:	85 db                	test   %ebx,%ebx
8010a63f:	78 11                	js     8010a652 <createWindow+0xe2>
8010a641:	0f b7 d9             	movzwl %cx,%ebx
8010a644:	89 5d dc             	mov    %ebx,-0x24(%ebp)
8010a647:	89 f3                	mov    %esi,%ebx
8010a649:	39 75 dc             	cmp    %esi,-0x24(%ebp)
8010a64c:	0f 8d 04 01 00 00    	jge    8010a756 <createWindow+0x1e6>
	} else {
		createRectByCoord(&windowlist[winId].wnd.position,
				  SCREEN_WIDTH / 2 - window->width / 2,
				  SCREEN_HEIGHT / 2 - window->height / 2,
				  SCREEN_WIDTH / 2 + window->width / 2,
				  SCREEN_HEIGHT / 2 + window->height / 2);
8010a652:	0f b7 75 da          	movzwl -0x26(%ebp),%esi
8010a656:	8b 5d d0             	mov    -0x30(%ebp),%ebx
				  SCREEN_WIDTH / 2 + window->width / 2,
8010a659:	66 d1 e9             	shr    $1,%cx
8010a65c:	0f b7 c9             	movzwl %cx,%ecx
				  SCREEN_HEIGHT / 2 + window->height / 2);
8010a65f:	66 d1 ee             	shr    $1,%si
8010a662:	0f b7 d6             	movzwl %si,%edx
8010a665:	89 de                	mov    %ebx,%esi
8010a667:	c1 ee 1f             	shr    $0x1f,%esi
		createRectByCoord(&windowlist[winId].wnd.position,
8010a66a:	89 55 e4             	mov    %edx,-0x1c(%ebp)
				  SCREEN_HEIGHT / 2 + window->height / 2);
8010a66d:	01 de                	add    %ebx,%esi
8010a66f:	d1 fe                	sar    $1,%esi
		createRectByCoord(&windowlist[winId].wnd.position,
8010a671:	8d 1c 32             	lea    (%edx,%esi,1),%ebx
				  SCREEN_WIDTH / 2 + window->width / 2,
8010a674:	8b 55 d4             	mov    -0x2c(%ebp),%edx
		createRectByCoord(&windowlist[winId].wnd.position,
8010a677:	89 5d dc             	mov    %ebx,-0x24(%ebp)
				  SCREEN_WIDTH / 2 + window->width / 2,
8010a67a:	89 d3                	mov    %edx,%ebx
8010a67c:	c1 eb 1f             	shr    $0x1f,%ebx
8010a67f:	01 d3                	add    %edx,%ebx
8010a681:	d1 fb                	sar    $1,%ebx
		createRectByCoord(&windowlist[winId].wnd.position,
8010a683:	8d 14 19             	lea    (%ecx,%ebx,1),%edx
8010a686:	29 d9                	sub    %ebx,%ecx
8010a688:	89 55 e0             	mov    %edx,-0x20(%ebp)
8010a68b:	8b 55 e4             	mov    -0x1c(%ebp),%edx
8010a68e:	29 f2                	sub    %esi,%edx
8010a690:	89 55 e4             	mov    %edx,-0x1c(%ebp)
8010a693:	89 ca                	mov    %ecx,%edx
	rect->xmin = xmin;
8010a695:	8b 5d cc             	mov    -0x34(%ebp),%ebx
	rect->xmax = xmax;
8010a698:	8b 4d e0             	mov    -0x20(%ebp),%ecx
	rect->xmin = xmin;
8010a69b:	01 c3                	add    %eax,%ebx
8010a69d:	c1 e3 08             	shl    $0x8,%ebx
	rect->xmax = xmax;
8010a6a0:	89 8b 28 a7 13 80    	mov    %ecx,-0x7fec58d8(%ebx)
	rect->ymin = ymin;
8010a6a6:	8b 4d e4             	mov    -0x1c(%ebp),%ecx
	rect->xmin = xmin;
8010a6a9:	89 93 24 a7 13 80    	mov    %edx,-0x7fec58dc(%ebx)
	rect->ymin = ymin;
8010a6af:	89 8b 2c a7 13 80    	mov    %ecx,-0x7fec58d4(%ebx)
	rect->ymax = ymax;
8010a6b5:	8b 4d dc             	mov    -0x24(%ebp),%ecx
8010a6b8:	89 8b 30 a7 13 80    	mov    %ecx,-0x7fec58d0(%ebx)
	}

	windowlist[winId].wnd.window_buf = window->window_buf;
8010a6be:	8b 57 14             	mov    0x14(%edi),%edx
8010a6c1:	89 93 34 a7 13 80    	mov    %edx,-0x7fec58cc(%ebx)
	window->handler = winId;
8010a6c7:	89 47 28             	mov    %eax,0x28(%edi)
	windowlist[winId].proc = myproc();
8010a6ca:	e8 21 a2 ff ff       	call   801048f0 <myproc>
	windowlist[winId].wnd.minimized = 0;
	windowlist[winId].wnd.hasTitleBar = window->hasTitleBar;

	initMessageQueue(&windowlist[winId].wnd.msg_buf);

	int len = strlen(title);
8010a6cf:	83 ec 0c             	sub    $0xc,%esp
	windowlist[winId].wnd.minimized = 0;
8010a6d2:	c7 83 10 b0 13 80 00 	movl   $0x0,-0x7fec4ff0(%ebx)
8010a6d9:	00 00 00 
	windowlist[winId].proc = myproc();
8010a6dc:	89 83 20 a7 13 80    	mov    %eax,-0x7fec58e0(%ebx)
	windowlist[winId].wnd.hasTitleBar = window->hasTitleBar;
8010a6e2:	8b 47 10             	mov    0x10(%edi),%eax
void initMessageQueue(msg_buf *buf) { buf->front = buf->rear = buf->cnt = 0; }
8010a6e5:	c7 83 d8 af 13 80 00 	movl   $0x0,-0x7fec5028(%ebx)
8010a6ec:	00 00 00 
	windowlist[winId].wnd.hasTitleBar = window->hasTitleBar;
8010a6ef:	89 83 14 b0 13 80    	mov    %eax,-0x7fec4fec(%ebx)
void initMessageQueue(msg_buf *buf) { buf->front = buf->rear = buf->cnt = 0; }
8010a6f5:	c7 83 d4 af 13 80 00 	movl   $0x0,-0x7fec502c(%ebx)
8010a6fc:	00 00 00 
8010a6ff:	c7 83 d0 af 13 80 00 	movl   $0x0,-0x7fec5030(%ebx)
8010a706:	00 00 00 
	if (len >= MAX_TITLE_LEN) {
		len = MAX_TITLE_LEN - 1;
	}
	memset(windowlist[winId].wnd.title, 0, MAX_TITLE_LEN);
8010a709:	81 c3 dc af 13 80    	add    $0x8013afdc,%ebx
	int len = strlen(title);
8010a70f:	ff 75 0c             	push   0xc(%ebp)
8010a712:	e8 49 b1 ff ff       	call   80105860 <strlen>
	memset(windowlist[winId].wnd.title, 0, MAX_TITLE_LEN);
8010a717:	83 c4 0c             	add    $0xc,%esp
8010a71a:	6a 32                	push   $0x32
	int len = strlen(title);
8010a71c:	89 c6                	mov    %eax,%esi
	memset(windowlist[winId].wnd.title, 0, MAX_TITLE_LEN);
8010a71e:	6a 00                	push   $0x0
8010a720:	53                   	push   %ebx
8010a721:	e8 4a af ff ff       	call   80105670 <memset>
	if (len >= MAX_TITLE_LEN) {
8010a726:	b8 31 00 00 00       	mov    $0x31,%eax
	memmove(windowlist[winId].wnd.title, title, len);
8010a72b:	83 c4 0c             	add    $0xc,%esp
	if (len >= MAX_TITLE_LEN) {
8010a72e:	39 c6                	cmp    %eax,%esi
8010a730:	0f 4f f0             	cmovg  %eax,%esi
	memmove(windowlist[winId].wnd.title, title, len);
8010a733:	56                   	push   %esi
8010a734:	ff 75 0c             	push   0xc(%ebp)
8010a737:	53                   	push   %ebx
8010a738:	e8 c3 af ff ff       	call   80105700 <memmove>

	release(&wmlock);
8010a73d:	c7 04 24 80 9d 13 80 	movl   $0x80139d80,(%esp)
8010a744:	e8 c7 ad ff ff       	call   80105510 <release>

	return 0;
8010a749:	83 c4 10             	add    $0x10,%esp
}
8010a74c:	8d 65 f4             	lea    -0xc(%ebp),%esp
	return 0;
8010a74f:	31 c0                	xor    %eax,%eax
}
8010a751:	5b                   	pop    %ebx
8010a752:	5e                   	pop    %esi
8010a753:	5f                   	pop    %edi
8010a754:	5d                   	pop    %ebp
8010a755:	c3                   	ret
	int ymax = window->initialPosition.ymax;
8010a756:	8b 77 0c             	mov    0xc(%edi),%esi
8010a759:	89 75 dc             	mov    %esi,-0x24(%ebp)
	    ymax <= SCREEN_HEIGHT && xmax - xmin == window->width &&
8010a75c:	0f b7 75 da          	movzwl -0x26(%ebp),%esi
	if (xmin >= 0 && xmax <= SCREEN_WIDTH && ymin >= 0 &&
8010a760:	89 75 c8             	mov    %esi,-0x38(%ebp)
8010a763:	8b 75 dc             	mov    -0x24(%ebp),%esi
8010a766:	39 75 c8             	cmp    %esi,-0x38(%ebp)
8010a769:	0f 8c e3 fe ff ff    	jl     8010a652 <createWindow+0xe2>
	    ymax <= SCREEN_HEIGHT && xmax - xmin == window->width &&
8010a76f:	29 d3                	sub    %edx,%ebx
8010a771:	89 de                	mov    %ebx,%esi
8010a773:	8b 5d d4             	mov    -0x2c(%ebp),%ebx
8010a776:	39 de                	cmp    %ebx,%esi
8010a778:	0f 85 d4 fe ff ff    	jne    8010a652 <createWindow+0xe2>
	    ymax - ymin == window->height) {
8010a77e:	8b 5d e4             	mov    -0x1c(%ebp),%ebx
8010a781:	8b 75 dc             	mov    -0x24(%ebp),%esi
8010a784:	29 de                	sub    %ebx,%esi
	    ymax <= SCREEN_HEIGHT && xmax - xmin == window->width &&
8010a786:	8b 5d d0             	mov    -0x30(%ebp),%ebx
8010a789:	39 de                	cmp    %ebx,%esi
8010a78b:	0f 85 c1 fe ff ff    	jne    8010a652 <createWindow+0xe2>
8010a791:	e9 ff fe ff ff       	jmp    8010a695 <createWindow+0x125>
8010a796:	2e 8d b4 26 00 00 00 	lea    %cs:0x0(%esi,%eiz,1),%esi
8010a79d:	00 
8010a79e:	66 90                	xchg   %ax,%ax
		release(&wmlock);
8010a7a0:	83 ec 0c             	sub    $0xc,%esp
8010a7a3:	68 80 9d 13 80       	push   $0x80139d80
8010a7a8:	e8 63 ad ff ff       	call   80105510 <release>
		return 1;
8010a7ad:	83 c4 10             	add    $0x10,%esp
}
8010a7b0:	8d 65 f4             	lea    -0xc(%ebp),%esp
		return 1;
8010a7b3:	b8 01 00 00 00       	mov    $0x1,%eax
}
8010a7b8:	5b                   	pop    %ebx
8010a7b9:	5e                   	pop    %esi
8010a7ba:	5f                   	pop    %edi
8010a7bb:	5d                   	pop    %ebp
8010a7bc:	c3                   	ret
8010a7bd:	8d 76 00             	lea    0x0(%esi),%esi

8010a7c0 <createPopupWindow>:

int createPopupWindow(window_p window, int caller) {
8010a7c0:	55                   	push   %ebp
8010a7c1:	89 e5                	mov    %esp,%ebp
8010a7c3:	57                   	push   %edi
8010a7c4:	56                   	push   %esi
8010a7c5:	53                   	push   %ebx
8010a7c6:	83 ec 28             	sub    $0x28,%esp
8010a7c9:	8b 5d 08             	mov    0x8(%ebp),%ebx
8010a7cc:	8b 75 0c             	mov    0xc(%ebp),%esi
	acquire(&wmlock);
8010a7cf:	68 80 9d 13 80       	push   $0x80139d80
8010a7d4:	e8 97 ad ff ff       	call   80105570 <acquire>

	if (popupwindow.caller != -1) {
8010a7d9:	83 c4 10             	add    $0x10,%esp
8010a7dc:	83 3d f8 a6 13 80 ff 	cmpl   $0xffffffff,0x8013a6f8
8010a7e3:	0f 85 87 00 00 00    	jne    8010a870 <createPopupWindow+0xb0>
		release(&wmlock);
		return 1;
	}

	int xmin = window->initialPosition.xmin;
8010a7e9:	8b 03                	mov    (%ebx),%eax
	int xmax = window->initialPosition.xmax;
	int ymin = window->initialPosition.ymin;
	int ymax = window->initialPosition.ymax;

	if (xmin >= 0 && xmax <= SCREEN_WIDTH && ymin >= 0 &&
8010a7eb:	85 c0                	test   %eax,%eax
8010a7ed:	78 19                	js     8010a808 <createPopupWindow+0x48>
	int xmax = window->initialPosition.xmax;
8010a7ef:	8b 53 04             	mov    0x4(%ebx),%edx
	if (xmin >= 0 && xmax <= SCREEN_WIDTH && ymin >= 0 &&
8010a7f2:	0f b7 3d d6 9c 13 80 	movzwl 0x80139cd6,%edi
	int ymin = window->initialPosition.ymin;
8010a7f9:	8b 4b 08             	mov    0x8(%ebx),%ecx
	if (xmin >= 0 && xmax <= SCREEN_WIDTH && ymin >= 0 &&
8010a7fc:	39 fa                	cmp    %edi,%edx
8010a7fe:	7f 08                	jg     8010a808 <createPopupWindow+0x48>
8010a800:	85 c9                	test   %ecx,%ecx
8010a802:	0f 89 88 00 00 00    	jns    8010a890 <createPopupWindow+0xd0>
	    ymax - ymin == window->height) {
		createRectByCoord(&popupwindow.wnd.position, xmin, ymin, xmax,
				  ymax);
	}

	popupwindow.wnd.window_buf = window->window_buf;
8010a808:	8b 43 14             	mov    0x14(%ebx),%eax
	popupwindow.caller = caller;
8010a80b:	89 35 f8 a6 13 80    	mov    %esi,0x8013a6f8
	window->handler = caller;
8010a811:	89 73 28             	mov    %esi,0x28(%ebx)
	popupwindow.wnd.window_buf = window->window_buf;
8010a814:	a3 14 9e 13 80       	mov    %eax,0x80139e14
	popupwindow.proc = myproc();
8010a819:	e8 d2 a0 ff ff       	call   801048f0 <myproc>
	popupwindow.wnd.minimized = 0;
	popupwindow.wnd.hasTitleBar = window->hasTitleBar;
	initMessageQueue(&popupwindow.wnd.msg_buf);

	release(&wmlock);
8010a81e:	83 ec 0c             	sub    $0xc,%esp
	popupwindow.wnd.minimized = 0;
8010a821:	c7 05 f0 a6 13 80 00 	movl   $0x0,0x8013a6f0
8010a828:	00 00 00 
	popupwindow.proc = myproc();
8010a82b:	a3 00 9e 13 80       	mov    %eax,0x80139e00
	popupwindow.wnd.hasTitleBar = window->hasTitleBar;
8010a830:	8b 43 10             	mov    0x10(%ebx),%eax
void initMessageQueue(msg_buf *buf) { buf->front = buf->rear = buf->cnt = 0; }
8010a833:	c7 05 b8 a6 13 80 00 	movl   $0x0,0x8013a6b8
8010a83a:	00 00 00 
	popupwindow.wnd.hasTitleBar = window->hasTitleBar;
8010a83d:	a3 f4 a6 13 80       	mov    %eax,0x8013a6f4
void initMessageQueue(msg_buf *buf) { buf->front = buf->rear = buf->cnt = 0; }
8010a842:	c7 05 b4 a6 13 80 00 	movl   $0x0,0x8013a6b4
8010a849:	00 00 00 
8010a84c:	c7 05 b0 a6 13 80 00 	movl   $0x0,0x8013a6b0
8010a853:	00 00 00 
	release(&wmlock);
8010a856:	68 80 9d 13 80       	push   $0x80139d80
8010a85b:	e8 b0 ac ff ff       	call   80105510 <release>
8010a860:	83 c4 10             	add    $0x10,%esp
	return 0;
}
8010a863:	8d 65 f4             	lea    -0xc(%ebp),%esp
	release(&wmlock);
8010a866:	31 c0                	xor    %eax,%eax
}
8010a868:	5b                   	pop    %ebx
8010a869:	5e                   	pop    %esi
8010a86a:	5f                   	pop    %edi
8010a86b:	5d                   	pop    %ebp
8010a86c:	c3                   	ret
8010a86d:	8d 76 00             	lea    0x0(%esi),%esi
		release(&wmlock);
8010a870:	83 ec 0c             	sub    $0xc,%esp
8010a873:	68 80 9d 13 80       	push   $0x80139d80
8010a878:	e8 93 ac ff ff       	call   80105510 <release>
		return 1;
8010a87d:	83 c4 10             	add    $0x10,%esp
}
8010a880:	8d 65 f4             	lea    -0xc(%ebp),%esp
		return 1;
8010a883:	b8 01 00 00 00       	mov    $0x1,%eax
}
8010a888:	5b                   	pop    %ebx
8010a889:	5e                   	pop    %esi
8010a88a:	5f                   	pop    %edi
8010a88b:	5d                   	pop    %ebp
8010a88c:	c3                   	ret
8010a88d:	8d 76 00             	lea    0x0(%esi),%esi
	int ymax = window->initialPosition.ymax;
8010a890:	8b 7b 0c             	mov    0xc(%ebx),%edi
8010a893:	89 7d e4             	mov    %edi,-0x1c(%ebp)
	    ymax <= SCREEN_HEIGHT && xmax - xmin == window->width &&
8010a896:	0f b7 3d d4 9c 13 80 	movzwl 0x80139cd4,%edi
	if (xmin >= 0 && xmax <= SCREEN_WIDTH && ymin >= 0 &&
8010a89d:	39 7d e4             	cmp    %edi,-0x1c(%ebp)
8010a8a0:	0f 8f 62 ff ff ff    	jg     8010a808 <createPopupWindow+0x48>
	    ymax <= SCREEN_HEIGHT && xmax - xmin == window->width &&
8010a8a6:	89 d7                	mov    %edx,%edi
8010a8a8:	29 c7                	sub    %eax,%edi
8010a8aa:	3b 7b 18             	cmp    0x18(%ebx),%edi
8010a8ad:	0f 85 55 ff ff ff    	jne    8010a808 <createPopupWindow+0x48>
	    ymax - ymin == window->height) {
8010a8b3:	8b 7d e4             	mov    -0x1c(%ebp),%edi
8010a8b6:	29 cf                	sub    %ecx,%edi
	    ymax <= SCREEN_HEIGHT && xmax - xmin == window->width &&
8010a8b8:	3b 7b 1c             	cmp    0x1c(%ebx),%edi
8010a8bb:	0f 85 47 ff ff ff    	jne    8010a808 <createPopupWindow+0x48>
	rect->xmin = xmin;
8010a8c1:	a3 04 9e 13 80       	mov    %eax,0x80139e04
	rect->ymax = ymax;
8010a8c6:	8b 45 e4             	mov    -0x1c(%ebp),%eax
	rect->xmax = xmax;
8010a8c9:	89 15 08 9e 13 80    	mov    %edx,0x80139e08
	rect->ymin = ymin;
8010a8cf:	89 0d 0c 9e 13 80    	mov    %ecx,0x80139e0c
	rect->ymax = ymax;
8010a8d5:	a3 10 9e 13 80       	mov    %eax,0x80139e10
}
8010a8da:	e9 29 ff ff ff       	jmp    8010a808 <createPopupWindow+0x48>
8010a8df:	90                   	nop

8010a8e0 <closePopupWindow>:

int closePopupWindow(window_p window) {
8010a8e0:	55                   	push   %ebp
8010a8e1:	89 e5                	mov    %esp,%ebp
8010a8e3:	83 ec 14             	sub    $0x14,%esp
	acquire(&wmlock);
8010a8e6:	68 80 9d 13 80       	push   $0x80139d80
8010a8eb:	e8 80 ac ff ff       	call   80105570 <acquire>

	popupwindow.caller = -1;
	initMessageQueue(&popupwindow.wnd.msg_buf);
	window->handler = -1;
8010a8f0:	8b 45 08             	mov    0x8(%ebp),%eax
	memset(popupwindow.wnd.title, 0, MAX_TITLE_LEN);
8010a8f3:	83 c4 0c             	add    $0xc,%esp
	popupwindow.caller = -1;
8010a8f6:	c7 05 f8 a6 13 80 ff 	movl   $0xffffffff,0x8013a6f8
8010a8fd:	ff ff ff 
void initMessageQueue(msg_buf *buf) { buf->front = buf->rear = buf->cnt = 0; }
8010a900:	c7 05 b8 a6 13 80 00 	movl   $0x0,0x8013a6b8
8010a907:	00 00 00 
8010a90a:	c7 05 b4 a6 13 80 00 	movl   $0x0,0x8013a6b4
8010a911:	00 00 00 
8010a914:	c7 05 b0 a6 13 80 00 	movl   $0x0,0x8013a6b0
8010a91b:	00 00 00 
	window->handler = -1;
8010a91e:	c7 40 28 ff ff ff ff 	movl   $0xffffffff,0x28(%eax)
	memset(popupwindow.wnd.title, 0, MAX_TITLE_LEN);
8010a925:	6a 32                	push   $0x32
8010a927:	6a 00                	push   $0x0
8010a929:	68 bc a6 13 80       	push   $0x8013a6bc
8010a92e:	e8 3d ad ff ff       	call   80105670 <memset>

	release(&wmlock);
8010a933:	c7 04 24 80 9d 13 80 	movl   $0x80139d80,(%esp)
8010a93a:	e8 d1 ab ff ff       	call   80105510 <release>

	return 0;
}
8010a93f:	31 c0                	xor    %eax,%eax
8010a941:	c9                   	leave
8010a942:	c3                   	ret
8010a943:	2e 8d b4 26 00 00 00 	lea    %cs:0x0(%esi,%eiz,1),%esi
8010a94a:	00 
8010a94b:	2e 8d 74 26 00       	lea    %cs:0x0(%esi,%eiz,1),%esi

8010a950 <closeWindow>:

int closeWindow(window_p window) {
8010a950:	55                   	push   %ebp
8010a951:	89 e5                	mov    %esp,%ebp
8010a953:	57                   	push   %edi
8010a954:	56                   	push   %esi
8010a955:	53                   	push   %ebx
8010a956:	83 ec 18             	sub    $0x18,%esp
8010a959:	8b 75 08             	mov    0x8(%ebp),%esi
	acquire(&wmlock);
8010a95c:	68 80 9d 13 80       	push   $0x80139d80
8010a961:	e8 0a ac ff ff       	call   80105570 <acquire>

	int winId = window->handler;
8010a966:	8b 5e 28             	mov    0x28(%esi),%ebx
	removeFromWindowList(winId);
8010a969:	89 1c 24             	mov    %ebx,(%esp)
8010a96c:	e8 ff e3 ff ff       	call   80108d70 <removeFromWindowList>
	windowlist[winId].prev = winId;
8010a971:	8d 04 db             	lea    (%ebx,%ebx,8),%eax
	windowlist[winId].next = winId;

	initMessageQueue(&windowlist[winId].wnd.msg_buf);
	memset(windowlist[winId].wnd.title, 0, MAX_TITLE_LEN);
8010a974:	83 c4 0c             	add    $0xc,%esp
	windowlist[winId].prev = winId;
8010a977:	c1 e0 08             	shl    $0x8,%eax
8010a97a:	89 98 1c b0 13 80    	mov    %ebx,-0x7fec4fe4(%eax)
8010a980:	8d b8 20 a7 13 80    	lea    -0x7fec58e0(%eax),%edi
	windowlist[winId].next = winId;
8010a986:	89 98 18 b0 13 80    	mov    %ebx,-0x7fec4fe8(%eax)
void initMessageQueue(msg_buf *buf) { buf->front = buf->rear = buf->cnt = 0; }
8010a98c:	c7 80 d8 af 13 80 00 	movl   $0x0,-0x7fec5028(%eax)
8010a993:	00 00 00 
8010a996:	c7 80 d4 af 13 80 00 	movl   $0x0,-0x7fec502c(%eax)
8010a99d:	00 00 00 
8010a9a0:	c7 80 d0 af 13 80 00 	movl   $0x0,-0x7fec5030(%eax)
8010a9a7:	00 00 00 
	memset(windowlist[winId].wnd.title, 0, MAX_TITLE_LEN);
8010a9aa:	05 dc af 13 80       	add    $0x8013afdc,%eax
8010a9af:	6a 32                	push   $0x32
8010a9b1:	6a 00                	push   $0x0
8010a9b3:	50                   	push   %eax
8010a9b4:	e8 b7 ac ff ff       	call   80105670 <memset>

	if (winId == windowlisttail) {
8010a9b9:	83 c4 10             	add    $0x10,%esp
8010a9bc:	39 1d fc a6 13 80    	cmp    %ebx,0x8013a6fc
8010a9c2:	74 24                	je     8010a9e8 <closeWindow+0x98>
		focusWindow(windowlist[winId].prev);
	}

	window->handler = -1;

	release(&wmlock);
8010a9c4:	83 ec 0c             	sub    $0xc,%esp
	window->handler = -1;
8010a9c7:	c7 46 28 ff ff ff ff 	movl   $0xffffffff,0x28(%esi)
	release(&wmlock);
8010a9ce:	68 80 9d 13 80       	push   $0x80139d80
8010a9d3:	e8 38 ab ff ff       	call   80105510 <release>

	return 0;
}
8010a9d8:	8d 65 f4             	lea    -0xc(%ebp),%esp
8010a9db:	31 c0                	xor    %eax,%eax
8010a9dd:	5b                   	pop    %ebx
8010a9de:	5e                   	pop    %esi
8010a9df:	5f                   	pop    %edi
8010a9e0:	5d                   	pop    %ebp
8010a9e1:	c3                   	ret
8010a9e2:	8d b6 00 00 00 00    	lea    0x0(%esi),%esi
		focusWindow(windowlist[winId].prev);
8010a9e8:	83 ec 0c             	sub    $0xc,%esp
8010a9eb:	ff b7 fc 08 00 00    	push   0x8fc(%edi)
8010a9f1:	e8 6a e7 ff ff       	call   80109160 <focusWindow>
8010a9f6:	83 c4 10             	add    $0x10,%esp
8010a9f9:	eb c9                	jmp    8010a9c4 <closeWindow+0x74>
8010a9fb:	2e 8d 74 26 00       	lea    %cs:0x0(%esi,%eiz,1),%esi

8010aa00 <minimizeWindow>:

int minimizeWindow(window_p window) {
8010aa00:	55                   	push   %ebp
8010aa01:	89 e5                	mov    %esp,%ebp
8010aa03:	83 ec 14             	sub    $0x14,%esp
	acquire(&wmlock);
8010aa06:	68 80 9d 13 80       	push   $0x80139d80
8010aa0b:	e8 60 ab ff ff       	call   80105570 <acquire>

	int winId = window->handler;
8010aa10:	8b 45 08             	mov    0x8(%ebp),%eax

	windowlist[winId].wnd.minimized = 1;
	if (winId == windowlisttail) {
8010aa13:	83 c4 10             	add    $0x10,%esp
	int winId = window->handler;
8010aa16:	8b 50 28             	mov    0x28(%eax),%edx
	windowlist[winId].wnd.minimized = 1;
8010aa19:	8d 04 d2             	lea    (%edx,%edx,8),%eax
8010aa1c:	c1 e0 08             	shl    $0x8,%eax
8010aa1f:	c7 80 10 b0 13 80 01 	movl   $0x1,-0x7fec4ff0(%eax)
8010aa26:	00 00 00 
8010aa29:	05 20 a7 13 80       	add    $0x8013a720,%eax
	if (winId == windowlisttail) {
8010aa2e:	39 15 fc a6 13 80    	cmp    %edx,0x8013a6fc
8010aa34:	74 1a                	je     8010aa50 <minimizeWindow+0x50>
		focusWindow(windowlist[winId].prev);
	}

	release(&wmlock);
8010aa36:	83 ec 0c             	sub    $0xc,%esp
8010aa39:	68 80 9d 13 80       	push   $0x80139d80
8010aa3e:	e8 cd aa ff ff       	call   80105510 <release>

	return 0;
}
8010aa43:	31 c0                	xor    %eax,%eax
8010aa45:	c9                   	leave
8010aa46:	c3                   	ret
8010aa47:	2e 8d b4 26 00 00 00 	lea    %cs:0x0(%esi,%eiz,1),%esi
8010aa4e:	00 
8010aa4f:	90                   	nop
		focusWindow(windowlist[winId].prev);
8010aa50:	83 ec 0c             	sub    $0xc,%esp
8010aa53:	ff b0 fc 08 00 00    	push   0x8fc(%eax)
8010aa59:	e8 02 e7 ff ff       	call   80109160 <focusWindow>
8010aa5e:	83 c4 10             	add    $0x10,%esp
8010aa61:	eb d3                	jmp    8010aa36 <minimizeWindow+0x36>
8010aa63:	2e 8d b4 26 00 00 00 	lea    %cs:0x0(%esi,%eiz,1),%esi
8010aa6a:	00 
8010aa6b:	2e 8d 74 26 00       	lea    %cs:0x0(%esi,%eiz,1),%esi

8010aa70 <maximizeWindow>:

int maximizeWindow(window_p window) {
8010aa70:	55                   	push   %ebp
8010aa71:	89 e5                	mov    %esp,%ebp
8010aa73:	83 ec 14             	sub    $0x14,%esp
	acquire(&wmlock);
8010aa76:	68 80 9d 13 80       	push   $0x80139d80
8010aa7b:	e8 f0 aa ff ff       	call   80105570 <acquire>

	int winId = window->handler;
8010aa80:	8b 45 08             	mov    0x8(%ebp),%eax
	if (winId == -1 || winId == windowlisttail)
8010aa83:	83 c4 10             	add    $0x10,%esp
	int winId = window->handler;
8010aa86:	8b 40 28             	mov    0x28(%eax),%eax

	windowlist[winId].wnd.minimized = 0;
8010aa89:	8d 14 c0             	lea    (%eax,%eax,8),%edx
8010aa8c:	c1 e2 08             	shl    $0x8,%edx
8010aa8f:	c7 82 10 b0 13 80 00 	movl   $0x0,-0x7fec4ff0(%edx)
8010aa96:	00 00 00 
	if (winId == -1 || winId == windowlisttail)
8010aa99:	83 f8 ff             	cmp    $0xffffffff,%eax
8010aa9c:	74 0d                	je     8010aaab <maximizeWindow+0x3b>
8010aa9e:	3b 05 fc a6 13 80    	cmp    0x8013a6fc,%eax
8010aaa4:	74 05                	je     8010aaab <maximizeWindow+0x3b>
8010aaa6:	e8 d5 e0 ff ff       	call   80108b80 <focusWindow.part.0>
	focusWindow(winId);

	release(&wmlock);
8010aaab:	83 ec 0c             	sub    $0xc,%esp
8010aaae:	68 80 9d 13 80       	push   $0x80139d80
8010aab3:	e8 58 aa ff ff       	call   80105510 <release>

	return 0;
}
8010aab8:	31 c0                	xor    %eax,%eax
8010aaba:	c9                   	leave
8010aabb:	c3                   	ret
8010aabc:	8d 74 26 00          	lea    0x0(%esi,%eiz,1),%esi

8010aac0 <turnoffScreen>:

int turnoffScreen() {
8010aac0:	55                   	push   %ebp
8010aac1:	89 e5                	mov    %esp,%ebp
8010aac3:	57                   	push   %edi
8010aac4:	56                   	push   %esi
8010aac5:	53                   	push   %ebx
8010aac6:	83 ec 28             	sub    $0x28,%esp
	acquire(&wmlock);
8010aac9:	68 80 9d 13 80       	push   $0x80139d80
8010aace:	e8 9d aa ff ff       	call   80105570 <acquire>

	for (int p = windowlisthead; p != -1; p = windowlist[p].next) {
8010aad3:	8b 3d 00 a7 13 80    	mov    0x8013a700,%edi
8010aad9:	83 c4 10             	add    $0x10,%esp
8010aadc:	83 ff ff             	cmp    $0xffffffff,%edi
8010aadf:	0f 84 b3 00 00 00    	je     8010ab98 <turnoffScreen+0xd8>
8010aae5:	8d 76 00             	lea    0x0(%esi),%esi
	if (buf->cnt >= MSG_BUF_SIZE)
8010aae8:	8d 04 fd 00 00 00 00 	lea    0x0(,%edi,8),%eax
8010aaef:	8d 0c 38             	lea    (%eax,%edi,1),%ecx
8010aaf2:	89 45 e4             	mov    %eax,-0x1c(%ebp)
8010aaf5:	c1 e1 08             	shl    $0x8,%ecx
8010aaf8:	8b 81 d8 af 13 80    	mov    -0x7fec5028(%ecx),%eax
8010aafe:	83 f8 31             	cmp    $0x31,%eax
8010ab01:	7f 7e                	jg     8010ab81 <turnoffScreen+0xc1>
	buf->data[buf->rear] = *msg;
8010ab03:	8b 91 d4 af 13 80    	mov    -0x7fec502c(%ecx),%edx
	++buf->cnt;
8010ab09:	83 c0 01             	add    $0x1,%eax
8010ab0c:	89 81 d8 af 13 80    	mov    %eax,-0x7fec5028(%ecx)
	buf->data[buf->rear] = *msg;
8010ab12:	6b c2 2c             	imul   $0x2c,%edx,%eax
8010ab15:	83 c2 01             	add    $0x1,%edx
8010ab18:	6b f2 2c             	imul   $0x2c,%edx,%esi
8010ab1b:	8d 84 01 20 a7 13 80 	lea    -0x7fec58e0(%ecx,%eax,1),%eax
8010ab22:	c7 40 18 64 00 00 00 	movl   $0x64,0x18(%eax)
8010ab29:	c7 40 1c 00 00 00 00 	movl   $0x0,0x1c(%eax)
8010ab30:	c7 40 20 00 00 00 00 	movl   $0x0,0x20(%eax)
8010ab37:	c7 40 24 00 00 00 00 	movl   $0x0,0x24(%eax)
8010ab3e:	c7 40 28 00 00 00 00 	movl   $0x0,0x28(%eax)
8010ab45:	c7 40 2c 00 00 00 00 	movl   $0x0,0x2c(%eax)
8010ab4c:	c7 40 30 00 00 00 00 	movl   $0x0,0x30(%eax)
8010ab53:	c7 40 34 00 00 00 00 	movl   $0x0,0x34(%eax)
8010ab5a:	c7 40 3c 00 00 00 00 	movl   $0x0,0x3c(%eax)
8010ab61:	c7 40 40 00 00 00 00 	movl   $0x0,0x40(%eax)
	if ((++buf->rear) >= MSG_BUF_SIZE)
8010ab68:	31 c0                	xor    %eax,%eax
8010ab6a:	83 fa 31             	cmp    $0x31,%edx
	buf->data[buf->rear] = *msg;
8010ab6d:	c7 84 31 2c a7 13 80 	movl   $0x0,-0x7fec58d4(%ecx,%esi,1)
8010ab74:	00 00 00 00 
	if ((++buf->rear) >= MSG_BUF_SIZE)
8010ab78:	0f 4f d0             	cmovg  %eax,%edx
8010ab7b:	89 91 d4 af 13 80    	mov    %edx,-0x7fec502c(%ecx)
	for (int p = windowlisthead; p != -1; p = windowlist[p].next) {
8010ab81:	8b 45 e4             	mov    -0x1c(%ebp),%eax
8010ab84:	01 f8                	add    %edi,%eax
8010ab86:	c1 e0 08             	shl    $0x8,%eax
8010ab89:	8b b8 18 b0 13 80    	mov    -0x7fec4fe8(%eax),%edi
8010ab8f:	83 ff ff             	cmp    $0xffffffff,%edi
8010ab92:	0f 85 50 ff ff ff    	jne    8010aae8 <turnoffScreen+0x28>
		message newmsg;
		newmsg.msg_type = WM_WINDOW_CLOSE;
		dispatchMessage(&windowlist[p].wnd.msg_buf, &newmsg);
	}
	memset(screen_buf, 255, screen_size);
8010ab98:	83 ec 04             	sub    $0x4,%esp
8010ab9b:	ff 35 d0 9c 13 80    	push   0x80139cd0
8010aba1:	68 ff 00 00 00       	push   $0xff
8010aba6:	ff 35 c8 9c 13 80    	push   0x80139cc8
8010abac:	e8 bf aa ff ff       	call   80105670 <memset>
	memmove(screen, screen_buf, screen_size);
8010abb1:	83 c4 0c             	add    $0xc,%esp
8010abb4:	ff 35 d0 9c 13 80    	push   0x80139cd0
8010abba:	ff 35 c8 9c 13 80    	push   0x80139cc8
8010abc0:	ff 35 cc 9c 13 80    	push   0x80139ccc
8010abc6:	e8 35 ab ff ff       	call   80105700 <memmove>

	release(&wmlock);
8010abcb:	c7 04 24 80 9d 13 80 	movl   $0x80139d80,(%esp)
8010abd2:	e8 39 a9 ff ff       	call   80105510 <release>

	return 0;
}
8010abd7:	8d 65 f4             	lea    -0xc(%ebp),%esp
8010abda:	31 c0                	xor    %eax,%eax
8010abdc:	5b                   	pop    %ebx
8010abdd:	5e                   	pop    %esi
8010abde:	5f                   	pop    %edi
8010abdf:	5d                   	pop    %ebp
8010abe0:	c3                   	ret
8010abe1:	2e 8d b4 26 00 00 00 	lea    %cs:0x0(%esi,%eiz,1),%esi
8010abe8:	00 
8010abe9:	8d b4 26 00 00 00 00 	lea    0x0(%esi,%eiz,1),%esi

8010abf0 <sys_GUI_createPopupWindow>:

int sys_GUI_createPopupWindow() {
8010abf0:	55                   	push   %ebp
8010abf1:	89 e5                	mov    %esp,%ebp
8010abf3:	83 ec 1c             	sub    $0x1c,%esp
	window *wnd;
	int caller;
	argptr(0, (char **)&wnd, sizeof(window));
8010abf6:	8d 45 f0             	lea    -0x10(%ebp),%eax
8010abf9:	68 0c 08 00 00       	push   $0x80c
8010abfe:	50                   	push   %eax
8010abff:	6a 00                	push   $0x0
8010ac01:	e8 6a ad ff ff       	call   80105970 <argptr>
	argint(1, &caller);
8010ac06:	58                   	pop    %eax
8010ac07:	8d 45 f4             	lea    -0xc(%ebp),%eax
8010ac0a:	5a                   	pop    %edx
8010ac0b:	50                   	push   %eax
8010ac0c:	6a 01                	push   $0x1
8010ac0e:	e8 0d ad ff ff       	call   80105920 <argint>
	return createPopupWindow(wnd, caller);
8010ac13:	59                   	pop    %ecx
8010ac14:	58                   	pop    %eax
8010ac15:	ff 75 f4             	push   -0xc(%ebp)
8010ac18:	ff 75 f0             	push   -0x10(%ebp)
8010ac1b:	e8 a0 fb ff ff       	call   8010a7c0 <createPopupWindow>
}
8010ac20:	c9                   	leave
8010ac21:	c3                   	ret
8010ac22:	2e 8d b4 26 00 00 00 	lea    %cs:0x0(%esi,%eiz,1),%esi
8010ac29:	00 
8010ac2a:	8d b6 00 00 00 00    	lea    0x0(%esi),%esi

8010ac30 <sys_GUI_closePopupWindow>:

int sys_GUI_closePopupWindow() {
8010ac30:	55                   	push   %ebp
8010ac31:	89 e5                	mov    %esp,%ebp
8010ac33:	53                   	push   %ebx
	window *wnd;
	argptr(0, (char **)&wnd, sizeof(window));
8010ac34:	8d 45 f4             	lea    -0xc(%ebp),%eax
int sys_GUI_closePopupWindow() {
8010ac37:	83 ec 18             	sub    $0x18,%esp
	argptr(0, (char **)&wnd, sizeof(window));
8010ac3a:	68 0c 08 00 00       	push   $0x80c
8010ac3f:	50                   	push   %eax
8010ac40:	6a 00                	push   $0x0
8010ac42:	e8 29 ad ff ff       	call   80105970 <argptr>
	return closePopupWindow(wnd);
8010ac47:	8b 5d f4             	mov    -0xc(%ebp),%ebx
	acquire(&wmlock);
8010ac4a:	c7 04 24 80 9d 13 80 	movl   $0x80139d80,(%esp)
8010ac51:	e8 1a a9 ff ff       	call   80105570 <acquire>
	memset(popupwindow.wnd.title, 0, MAX_TITLE_LEN);
8010ac56:	83 c4 0c             	add    $0xc,%esp
	popupwindow.caller = -1;
8010ac59:	c7 05 f8 a6 13 80 ff 	movl   $0xffffffff,0x8013a6f8
8010ac60:	ff ff ff 
void initMessageQueue(msg_buf *buf) { buf->front = buf->rear = buf->cnt = 0; }
8010ac63:	c7 05 b8 a6 13 80 00 	movl   $0x0,0x8013a6b8
8010ac6a:	00 00 00 
8010ac6d:	c7 05 b4 a6 13 80 00 	movl   $0x0,0x8013a6b4
8010ac74:	00 00 00 
8010ac77:	c7 05 b0 a6 13 80 00 	movl   $0x0,0x8013a6b0
8010ac7e:	00 00 00 
	window->handler = -1;
8010ac81:	c7 43 28 ff ff ff ff 	movl   $0xffffffff,0x28(%ebx)
	memset(popupwindow.wnd.title, 0, MAX_TITLE_LEN);
8010ac88:	6a 32                	push   $0x32
8010ac8a:	6a 00                	push   $0x0
8010ac8c:	68 bc a6 13 80       	push   $0x8013a6bc
8010ac91:	e8 da a9 ff ff       	call   80105670 <memset>
	release(&wmlock);
8010ac96:	c7 04 24 80 9d 13 80 	movl   $0x80139d80,(%esp)
8010ac9d:	e8 6e a8 ff ff       	call   80105510 <release>
}
8010aca2:	8b 5d fc             	mov    -0x4(%ebp),%ebx
8010aca5:	31 c0                	xor    %eax,%eax
8010aca7:	c9                   	leave
8010aca8:	c3                   	ret
8010aca9:	8d b4 26 00 00 00 00 	lea    0x0(%esi,%eiz,1),%esi

8010acb0 <sys_GUI_createWindow>:

int sys_GUI_createWindow() {
8010acb0:	55                   	push   %ebp
8010acb1:	89 e5                	mov    %esp,%ebp
8010acb3:	83 ec 1c             	sub    $0x1c,%esp
	window *wnd;
	char *title;
	argptr(0, (char **)&wnd, sizeof(window));
8010acb6:	8d 45 f0             	lea    -0x10(%ebp),%eax
8010acb9:	68 0c 08 00 00       	push   $0x80c
8010acbe:	50                   	push   %eax
8010acbf:	6a 00                	push   $0x0
8010acc1:	e8 aa ac ff ff       	call   80105970 <argptr>
	argstr(1, &title);
8010acc6:	58                   	pop    %eax
8010acc7:	8d 45 f4             	lea    -0xc(%ebp),%eax
8010acca:	5a                   	pop    %edx
8010accb:	50                   	push   %eax
8010accc:	6a 01                	push   $0x1
8010acce:	e8 0d ad ff ff       	call   801059e0 <argstr>
	return createWindow(wnd, title);
8010acd3:	59                   	pop    %ecx
8010acd4:	58                   	pop    %eax
8010acd5:	ff 75 f4             	push   -0xc(%ebp)
8010acd8:	ff 75 f0             	push   -0x10(%ebp)
8010acdb:	e8 90 f8 ff ff       	call   8010a570 <createWindow>
}
8010ace0:	c9                   	leave
8010ace1:	c3                   	ret
8010ace2:	2e 8d b4 26 00 00 00 	lea    %cs:0x0(%esi,%eiz,1),%esi
8010ace9:	00 
8010acea:	8d b6 00 00 00 00    	lea    0x0(%esi),%esi

8010acf0 <sys_GUI_closeWindow>:

int sys_GUI_closeWindow() {
8010acf0:	55                   	push   %ebp
8010acf1:	89 e5                	mov    %esp,%ebp
8010acf3:	83 ec 1c             	sub    $0x1c,%esp
	window *wnd;
	argptr(0, (char **)&wnd, sizeof(window));
8010acf6:	8d 45 f4             	lea    -0xc(%ebp),%eax
8010acf9:	68 0c 08 00 00       	push   $0x80c
8010acfe:	50                   	push   %eax
8010acff:	6a 00                	push   $0x0
8010ad01:	e8 6a ac ff ff       	call   80105970 <argptr>
	return closeWindow(wnd);
8010ad06:	58                   	pop    %eax
8010ad07:	ff 75 f4             	push   -0xc(%ebp)
8010ad0a:	e8 41 fc ff ff       	call   8010a950 <closeWindow>
}
8010ad0f:	c9                   	leave
8010ad10:	c3                   	ret
8010ad11:	2e 8d b4 26 00 00 00 	lea    %cs:0x0(%esi,%eiz,1),%esi
8010ad18:	00 
8010ad19:	8d b4 26 00 00 00 00 	lea    0x0(%esi,%eiz,1),%esi

8010ad20 <sys_GUI_minimizeWindow>:

int sys_GUI_minimizeWindow() {
8010ad20:	55                   	push   %ebp
8010ad21:	89 e5                	mov    %esp,%ebp
8010ad23:	53                   	push   %ebx
	window *wnd;
	argptr(0, (char **)&wnd, sizeof(window));
8010ad24:	8d 45 f4             	lea    -0xc(%ebp),%eax
int sys_GUI_minimizeWindow() {
8010ad27:	83 ec 18             	sub    $0x18,%esp
	argptr(0, (char **)&wnd, sizeof(window));
8010ad2a:	68 0c 08 00 00       	push   $0x80c
8010ad2f:	50                   	push   %eax
8010ad30:	6a 00                	push   $0x0
8010ad32:	e8 39 ac ff ff       	call   80105970 <argptr>
	return minimizeWindow(wnd);
8010ad37:	8b 5d f4             	mov    -0xc(%ebp),%ebx
	acquire(&wmlock);
8010ad3a:	c7 04 24 80 9d 13 80 	movl   $0x80139d80,(%esp)
8010ad41:	e8 2a a8 ff ff       	call   80105570 <acquire>
	if (winId == windowlisttail) {
8010ad46:	83 c4 10             	add    $0x10,%esp
	int winId = window->handler;
8010ad49:	8b 53 28             	mov    0x28(%ebx),%edx
	windowlist[winId].wnd.minimized = 1;
8010ad4c:	8d 04 d2             	lea    (%edx,%edx,8),%eax
8010ad4f:	c1 e0 08             	shl    $0x8,%eax
8010ad52:	c7 80 10 b0 13 80 01 	movl   $0x1,-0x7fec4ff0(%eax)
8010ad59:	00 00 00 
8010ad5c:	05 20 a7 13 80       	add    $0x8013a720,%eax
	if (winId == windowlisttail) {
8010ad61:	3b 15 fc a6 13 80    	cmp    0x8013a6fc,%edx
8010ad67:	74 17                	je     8010ad80 <sys_GUI_minimizeWindow+0x60>
	release(&wmlock);
8010ad69:	83 ec 0c             	sub    $0xc,%esp
8010ad6c:	68 80 9d 13 80       	push   $0x80139d80
8010ad71:	e8 9a a7 ff ff       	call   80105510 <release>
}
8010ad76:	8b 5d fc             	mov    -0x4(%ebp),%ebx
8010ad79:	31 c0                	xor    %eax,%eax
8010ad7b:	c9                   	leave
8010ad7c:	c3                   	ret
8010ad7d:	8d 76 00             	lea    0x0(%esi),%esi
		focusWindow(windowlist[winId].prev);
8010ad80:	83 ec 0c             	sub    $0xc,%esp
8010ad83:	ff b0 fc 08 00 00    	push   0x8fc(%eax)
8010ad89:	e8 d2 e3 ff ff       	call   80109160 <focusWindow>
8010ad8e:	83 c4 10             	add    $0x10,%esp
8010ad91:	eb d6                	jmp    8010ad69 <sys_GUI_minimizeWindow+0x49>
8010ad93:	2e 8d b4 26 00 00 00 	lea    %cs:0x0(%esi,%eiz,1),%esi
8010ad9a:	00 
8010ad9b:	2e 8d 74 26 00       	lea    %cs:0x0(%esi,%eiz,1),%esi

8010ada0 <sys_GUI_maximizeWindow>:

int sys_GUI_maximizeWindow() {
8010ada0:	55                   	push   %ebp
8010ada1:	89 e5                	mov    %esp,%ebp
8010ada3:	53                   	push   %ebx
	window *wnd;
	argptr(0, (char **)&wnd, sizeof(window));
8010ada4:	8d 45 f4             	lea    -0xc(%ebp),%eax
int sys_GUI_maximizeWindow() {
8010ada7:	83 ec 18             	sub    $0x18,%esp
	argptr(0, (char **)&wnd, sizeof(window));
8010adaa:	68 0c 08 00 00       	push   $0x80c
8010adaf:	50                   	push   %eax
8010adb0:	6a 00                	push   $0x0
8010adb2:	e8 b9 ab ff ff       	call   80105970 <argptr>
	return maximizeWindow(wnd);
8010adb7:	8b 5d f4             	mov    -0xc(%ebp),%ebx
	acquire(&wmlock);
8010adba:	c7 04 24 80 9d 13 80 	movl   $0x80139d80,(%esp)
8010adc1:	e8 aa a7 ff ff       	call   80105570 <acquire>
	if (winId == -1 || winId == windowlisttail)
8010adc6:	83 c4 10             	add    $0x10,%esp
	int winId = window->handler;
8010adc9:	8b 43 28             	mov    0x28(%ebx),%eax
	windowlist[winId].wnd.minimized = 0;
8010adcc:	8d 14 c0             	lea    (%eax,%eax,8),%edx
8010adcf:	c1 e2 08             	shl    $0x8,%edx
8010add2:	c7 82 10 b0 13 80 00 	movl   $0x0,-0x7fec4ff0(%edx)
8010add9:	00 00 00 
	if (winId == -1 || winId == windowlisttail)
8010addc:	83 f8 ff             	cmp    $0xffffffff,%eax
8010addf:	74 0d                	je     8010adee <sys_GUI_maximizeWindow+0x4e>
8010ade1:	3b 05 fc a6 13 80    	cmp    0x8013a6fc,%eax
8010ade7:	74 05                	je     8010adee <sys_GUI_maximizeWindow+0x4e>
8010ade9:	e8 92 dd ff ff       	call   80108b80 <focusWindow.part.0>
	release(&wmlock);
8010adee:	83 ec 0c             	sub    $0xc,%esp
8010adf1:	68 80 9d 13 80       	push   $0x80139d80
8010adf6:	e8 15 a7 ff ff       	call   80105510 <release>
}
8010adfb:	8b 5d fc             	mov    -0x4(%ebp),%ebx
8010adfe:	31 c0                	xor    %eax,%eax
8010ae00:	c9                   	leave
8010ae01:	c3                   	ret
8010ae02:	2e 8d b4 26 00 00 00 	lea    %cs:0x0(%esi,%eiz,1),%esi
8010ae09:	00 
8010ae0a:	8d b6 00 00 00 00    	lea    0x0(%esi),%esi

8010ae10 <sys_GUI_getMessage>:

int sys_GUI_getMessage() {
8010ae10:	55                   	push   %ebp
8010ae11:	89 e5                	mov    %esp,%ebp
8010ae13:	57                   	push   %edi
8010ae14:	56                   	push   %esi
	int h;
	message *res;
	argint(0, &h);
8010ae15:	8d 45 e0             	lea    -0x20(%ebp),%eax
int sys_GUI_getMessage() {
8010ae18:	53                   	push   %ebx
8010ae19:	83 ec 24             	sub    $0x24,%esp
	argint(0, &h);
8010ae1c:	50                   	push   %eax
8010ae1d:	6a 00                	push   $0x0
8010ae1f:	e8 fc aa ff ff       	call   80105920 <argint>
	argptr(1, (char **)(&res), sizeof(message));
8010ae24:	83 c4 0c             	add    $0xc,%esp
8010ae27:	8d 45 e4             	lea    -0x1c(%ebp),%eax
8010ae2a:	6a 2c                	push   $0x2c
8010ae2c:	50                   	push   %eax
8010ae2d:	6a 01                	push   $0x1
8010ae2f:	e8 3c ab ff ff       	call   80105970 <argptr>
	if (myproc() != windowlist[h].proc) {
8010ae34:	e8 b7 9a ff ff       	call   801048f0 <myproc>
8010ae39:	83 c4 10             	add    $0x10,%esp
8010ae3c:	89 c2                	mov    %eax,%edx
8010ae3e:	8b 45 e0             	mov    -0x20(%ebp),%eax
8010ae41:	8d 1c c0             	lea    (%eax,%eax,8),%ebx
		return 1;
8010ae44:	b8 01 00 00 00       	mov    $0x1,%eax
	if (myproc() != windowlist[h].proc) {
8010ae49:	c1 e3 08             	shl    $0x8,%ebx
8010ae4c:	39 93 20 a7 13 80    	cmp    %edx,-0x7fec58e0(%ebx)
8010ae52:	74 0c                	je     8010ae60 <sys_GUI_getMessage+0x50>
	}
	return getMessage(&windowlist[h].wnd.msg_buf, res);
}
8010ae54:	8d 65 f4             	lea    -0xc(%ebp),%esp
8010ae57:	5b                   	pop    %ebx
8010ae58:	5e                   	pop    %esi
8010ae59:	5f                   	pop    %edi
8010ae5a:	5d                   	pop    %ebp
8010ae5b:	c3                   	ret
8010ae5c:	8d 74 26 00          	lea    0x0(%esi,%eiz,1),%esi
	if (buf->cnt == 0)
8010ae60:	8b 93 d8 af 13 80    	mov    -0x7fec5028(%ebx),%edx
8010ae66:	85 d2                	test   %edx,%edx
8010ae68:	74 ea                	je     8010ae54 <sys_GUI_getMessage+0x44>
	acquire(&wmlock);
8010ae6a:	83 ec 0c             	sub    $0xc,%esp
	return getMessage(&windowlist[h].wnd.msg_buf, res);
8010ae6d:	8b 75 e4             	mov    -0x1c(%ebp),%esi
	acquire(&wmlock);
8010ae70:	8d bb 20 a7 13 80    	lea    -0x7fec58e0(%ebx),%edi
8010ae76:	68 80 9d 13 80       	push   $0x80139d80
8010ae7b:	e8 f0 a6 ff ff       	call   80105570 <acquire>
	*result = buf->data[buf->front];
8010ae80:	6b 83 d0 af 13 80 2c 	imul   $0x2c,-0x7fec5030(%ebx),%eax
8010ae87:	8d 84 03 30 a7 13 80 	lea    -0x7fec58d0(%ebx,%eax,1),%eax
8010ae8e:	8b 50 08             	mov    0x8(%eax),%edx
8010ae91:	89 16                	mov    %edx,(%esi)
8010ae93:	8b 50 0c             	mov    0xc(%eax),%edx
8010ae96:	89 56 04             	mov    %edx,0x4(%esi)
8010ae99:	8b 50 10             	mov    0x10(%eax),%edx
8010ae9c:	89 56 08             	mov    %edx,0x8(%esi)
8010ae9f:	8b 50 14             	mov    0x14(%eax),%edx
8010aea2:	89 56 0c             	mov    %edx,0xc(%esi)
8010aea5:	8b 50 18             	mov    0x18(%eax),%edx
8010aea8:	89 56 10             	mov    %edx,0x10(%esi)
8010aeab:	8b 50 1c             	mov    0x1c(%eax),%edx
8010aeae:	89 56 14             	mov    %edx,0x14(%esi)
8010aeb1:	8b 50 20             	mov    0x20(%eax),%edx
8010aeb4:	89 56 18             	mov    %edx,0x18(%esi)
8010aeb7:	8b 50 24             	mov    0x24(%eax),%edx
8010aeba:	89 56 1c             	mov    %edx,0x1c(%esi)
8010aebd:	8b 50 28             	mov    0x28(%eax),%edx
8010aec0:	89 56 20             	mov    %edx,0x20(%esi)
8010aec3:	8b 50 2c             	mov    0x2c(%eax),%edx
8010aec6:	89 56 24             	mov    %edx,0x24(%esi)
8010aec9:	8b 40 30             	mov    0x30(%eax),%eax
8010aecc:	89 46 28             	mov    %eax,0x28(%esi)
	buf->front = (buf->front + 1) % MSG_BUF_SIZE;
8010aecf:	8b 83 d0 af 13 80    	mov    -0x7fec5030(%ebx),%eax
	buf->cnt--;
8010aed5:	83 af b8 08 00 00 01 	subl   $0x1,0x8b8(%edi)
	buf->front = (buf->front + 1) % MSG_BUF_SIZE;
8010aedc:	8d 48 01             	lea    0x1(%eax),%ecx
8010aedf:	b8 1f 85 eb 51       	mov    $0x51eb851f,%eax
8010aee4:	f7 e9                	imul   %ecx
8010aee6:	89 c8                	mov    %ecx,%eax
8010aee8:	c1 f8 1f             	sar    $0x1f,%eax
8010aeeb:	c1 fa 04             	sar    $0x4,%edx
8010aeee:	29 c2                	sub    %eax,%edx
8010aef0:	6b d2 32             	imul   $0x32,%edx,%edx
8010aef3:	29 d1                	sub    %edx,%ecx
8010aef5:	89 8b d0 af 13 80    	mov    %ecx,-0x7fec5030(%ebx)
	release(&wmlock);
8010aefb:	c7 04 24 80 9d 13 80 	movl   $0x80139d80,(%esp)
8010af02:	e8 09 a6 ff ff       	call   80105510 <release>
8010af07:	83 c4 10             	add    $0x10,%esp
}
8010af0a:	8d 65 f4             	lea    -0xc(%ebp),%esp
	release(&wmlock);
8010af0d:	31 c0                	xor    %eax,%eax
}
8010af0f:	5b                   	pop    %ebx
8010af10:	5e                   	pop    %esi
8010af11:	5f                   	pop    %edi
8010af12:	5d                   	pop    %ebp
8010af13:	c3                   	ret
8010af14:	2e 8d b4 26 00 00 00 	lea    %cs:0x0(%esi,%eiz,1),%esi
8010af1b:	00 
8010af1c:	8d 74 26 00          	lea    0x0(%esi,%eiz,1),%esi

8010af20 <sys_GUI_getPopupMessage>:

int sys_GUI_getPopupMessage() {
8010af20:	55                   	push   %ebp
8010af21:	89 e5                	mov    %esp,%ebp
8010af23:	53                   	push   %ebx
	message *res;
	argptr(0, (char **)(&res), sizeof(message));
8010af24:	8d 45 f4             	lea    -0xc(%ebp),%eax
int sys_GUI_getPopupMessage() {
8010af27:	83 ec 18             	sub    $0x18,%esp
	argptr(0, (char **)(&res), sizeof(message));
8010af2a:	6a 2c                	push   $0x2c
8010af2c:	50                   	push   %eax
8010af2d:	6a 00                	push   $0x0
8010af2f:	e8 3c aa ff ff       	call   80105970 <argptr>
	if (popupwindow.caller == -1) {
8010af34:	83 c4 10             	add    $0x10,%esp
8010af37:	83 3d f8 a6 13 80 ff 	cmpl   $0xffffffff,0x8013a6f8
		return 1;
8010af3e:	b8 01 00 00 00       	mov    $0x1,%eax
	if (popupwindow.caller == -1) {
8010af43:	74 0a                	je     8010af4f <sys_GUI_getPopupMessage+0x2f>
	if (buf->cnt == 0)
8010af45:	8b 15 b8 a6 13 80    	mov    0x8013a6b8,%edx
8010af4b:	85 d2                	test   %edx,%edx
8010af4d:	75 09                	jne    8010af58 <sys_GUI_getPopupMessage+0x38>
	}
	return getMessage(&popupwindow.wnd.msg_buf, res);
}
8010af4f:	8b 5d fc             	mov    -0x4(%ebp),%ebx
8010af52:	c9                   	leave
8010af53:	c3                   	ret
8010af54:	8d 74 26 00          	lea    0x0(%esi,%eiz,1),%esi
	acquire(&wmlock);
8010af58:	83 ec 0c             	sub    $0xc,%esp
	return getMessage(&popupwindow.wnd.msg_buf, res);
8010af5b:	8b 5d f4             	mov    -0xc(%ebp),%ebx
	acquire(&wmlock);
8010af5e:	68 80 9d 13 80       	push   $0x80139d80
8010af63:	e8 08 a6 ff ff       	call   80105570 <acquire>
	*result = buf->data[buf->front];
8010af68:	6b 05 b0 a6 13 80 2c 	imul   $0x2c,0x8013a6b0,%eax
8010af6f:	8b 90 18 9e 13 80    	mov    -0x7fec61e8(%eax),%edx
8010af75:	89 13                	mov    %edx,(%ebx)
8010af77:	8b 90 1c 9e 13 80    	mov    -0x7fec61e4(%eax),%edx
8010af7d:	89 53 04             	mov    %edx,0x4(%ebx)
8010af80:	8b 90 20 9e 13 80    	mov    -0x7fec61e0(%eax),%edx
8010af86:	89 53 08             	mov    %edx,0x8(%ebx)
8010af89:	8b 90 24 9e 13 80    	mov    -0x7fec61dc(%eax),%edx
8010af8f:	89 53 0c             	mov    %edx,0xc(%ebx)
8010af92:	8b 90 28 9e 13 80    	mov    -0x7fec61d8(%eax),%edx
8010af98:	89 53 10             	mov    %edx,0x10(%ebx)
8010af9b:	8b 90 2c 9e 13 80    	mov    -0x7fec61d4(%eax),%edx
8010afa1:	89 53 14             	mov    %edx,0x14(%ebx)
8010afa4:	8b 90 30 9e 13 80    	mov    -0x7fec61d0(%eax),%edx
8010afaa:	89 53 18             	mov    %edx,0x18(%ebx)
8010afad:	8b 90 34 9e 13 80    	mov    -0x7fec61cc(%eax),%edx
8010afb3:	89 53 1c             	mov    %edx,0x1c(%ebx)
8010afb6:	8b 90 38 9e 13 80    	mov    -0x7fec61c8(%eax),%edx
8010afbc:	89 53 20             	mov    %edx,0x20(%ebx)
8010afbf:	8b 90 3c 9e 13 80    	mov    -0x7fec61c4(%eax),%edx
8010afc5:	05 00 9e 13 80       	add    $0x80139e00,%eax
8010afca:	89 53 24             	mov    %edx,0x24(%ebx)
8010afcd:	8b 40 40             	mov    0x40(%eax),%eax
8010afd0:	89 43 28             	mov    %eax,0x28(%ebx)
	buf->front = (buf->front + 1) % MSG_BUF_SIZE;
8010afd3:	a1 b0 a6 13 80       	mov    0x8013a6b0,%eax
	release(&wmlock);
8010afd8:	c7 04 24 80 9d 13 80 	movl   $0x80139d80,(%esp)
	buf->front = (buf->front + 1) % MSG_BUF_SIZE;
8010afdf:	8d 48 01             	lea    0x1(%eax),%ecx
8010afe2:	b8 1f 85 eb 51       	mov    $0x51eb851f,%eax
	buf->cnt--;
8010afe7:	83 2d b8 a6 13 80 01 	subl   $0x1,0x8013a6b8
	buf->front = (buf->front + 1) % MSG_BUF_SIZE;
8010afee:	f7 e9                	imul   %ecx
8010aff0:	89 c8                	mov    %ecx,%eax
8010aff2:	c1 f8 1f             	sar    $0x1f,%eax
8010aff5:	c1 fa 04             	sar    $0x4,%edx
8010aff8:	29 c2                	sub    %eax,%edx
8010affa:	6b d2 32             	imul   $0x32,%edx,%edx
8010affd:	29 d1                	sub    %edx,%ecx
8010afff:	89 0d b0 a6 13 80    	mov    %ecx,0x8013a6b0
	release(&wmlock);
8010b005:	e8 06 a5 ff ff       	call   80105510 <release>
}
8010b00a:	8b 5d fc             	mov    -0x4(%ebp),%ebx
	release(&wmlock);
8010b00d:	83 c4 10             	add    $0x10,%esp
8010b010:	31 c0                	xor    %eax,%eax
}
8010b012:	c9                   	leave
8010b013:	c3                   	ret
8010b014:	2e 8d b4 26 00 00 00 	lea    %cs:0x0(%esi,%eiz,1),%esi
8010b01b:	00 
8010b01c:	8d 74 26 00          	lea    0x0(%esi,%eiz,1),%esi

8010b020 <sys_GUI_updateScreen>:

int sys_GUI_updateScreen() {
8010b020:	55                   	push   %ebp
8010b021:	89 e5                	mov    %esp,%ebp
8010b023:	83 ec 08             	sub    $0x8,%esp
	updateScreen();
8010b026:	e8 a5 f3 ff ff       	call   8010a3d0 <updateScreen>
	return 0;
}
8010b02b:	31 c0                	xor    %eax,%eax
8010b02d:	c9                   	leave
8010b02e:	c3                   	ret
8010b02f:	90                   	nop

8010b030 <sys_GUI_turnoffScreen>:

int sys_GUI_turnoffScreen() {
8010b030:	55                   	push   %ebp
8010b031:	89 e5                	mov    %esp,%ebp
8010b033:	83 ec 08             	sub    $0x8,%esp
	turnoffScreen();
8010b036:	e8 85 fa ff ff       	call   8010aac0 <turnoffScreen>
	return 0;
8010b03b:	31 c0                	xor    %eax,%eax
8010b03d:	c9                   	leave
8010b03e:	c3                   	ret
8010b03f:	90                   	nop

8010b040 <rtc_read_time>:
static int is_update_in_progress() {
	outb(RTC_PORT_ADDR, RTC_STATUS_A);
	return (inb(RTC_PORT_DATA) & 0x80) != 0;
}

void rtc_read_time(int *hours, int *minutes, int *seconds) {
8010b040:	55                   	push   %ebp
8010b041:	89 e5                	mov    %esp,%ebp
8010b043:	56                   	push   %esi
	asm volatile("out %0,%1" : : "a"(data), "d"(port));
8010b044:	be 0a 00 00 00       	mov    $0xa,%esi
8010b049:	53                   	push   %ebx
8010b04a:	bb 70 00 00 00       	mov    $0x70,%ebx
8010b04f:	90                   	nop
8010b050:	89 f0                	mov    %esi,%eax
8010b052:	89 da                	mov    %ebx,%edx
8010b054:	ee                   	out    %al,(%dx)
	asm volatile("in %1,%0" : "=a"(data) : "d"(port));
8010b055:	b9 71 00 00 00       	mov    $0x71,%ecx
8010b05a:	89 ca                	mov    %ecx,%edx
8010b05c:	ec                   	in     (%dx),%al
	// Tunggu sampai tidak ada update yang berjalan
	while (is_update_in_progress())
8010b05d:	84 c0                	test   %al,%al
8010b05f:	78 ef                	js     8010b050 <rtc_read_time+0x10>
	asm volatile("out %0,%1" : : "a"(data), "d"(port));
8010b061:	b8 04 00 00 00       	mov    $0x4,%eax
8010b066:	89 da                	mov    %ebx,%edx
8010b068:	ee                   	out    %al,(%dx)
	asm volatile("in %1,%0" : "=a"(data) : "d"(port));
8010b069:	89 ca                	mov    %ecx,%edx
8010b06b:	ec                   	in     (%dx),%al
		;

	outb(RTC_PORT_ADDR, RTC_HOURS);
	*hours = bcd_to_bin(inb(RTC_PORT_DATA));
8010b06c:	0f b6 d0             	movzbl %al,%edx
static int bcd_to_bin(int bcd) { return ((bcd >> 4) * 10) + (bcd & 0x0F); }
8010b06f:	83 e0 0f             	and    $0xf,%eax
8010b072:	c1 fa 04             	sar    $0x4,%edx
8010b075:	8d 14 92             	lea    (%edx,%edx,4),%edx
8010b078:	8d 14 50             	lea    (%eax,%edx,2),%edx
8010b07b:	8b 45 08             	mov    0x8(%ebp),%eax
8010b07e:	89 10                	mov    %edx,(%eax)
	asm volatile("out %0,%1" : : "a"(data), "d"(port));
8010b080:	b8 02 00 00 00       	mov    $0x2,%eax
8010b085:	89 da                	mov    %ebx,%edx
8010b087:	ee                   	out    %al,(%dx)
	asm volatile("in %1,%0" : "=a"(data) : "d"(port));
8010b088:	89 ca                	mov    %ecx,%edx
8010b08a:	ec                   	in     (%dx),%al

	outb(RTC_PORT_ADDR, RTC_MINUTES);
	*minutes = bcd_to_bin(inb(RTC_PORT_DATA));
8010b08b:	0f b6 d0             	movzbl %al,%edx
static int bcd_to_bin(int bcd) { return ((bcd >> 4) * 10) + (bcd & 0x0F); }
8010b08e:	83 e0 0f             	and    $0xf,%eax
8010b091:	c1 fa 04             	sar    $0x4,%edx
8010b094:	8d 14 92             	lea    (%edx,%edx,4),%edx
8010b097:	8d 14 50             	lea    (%eax,%edx,2),%edx
8010b09a:	8b 45 0c             	mov    0xc(%ebp),%eax
8010b09d:	89 10                	mov    %edx,(%eax)
	asm volatile("out %0,%1" : : "a"(data), "d"(port));
8010b09f:	31 c0                	xor    %eax,%eax
8010b0a1:	89 da                	mov    %ebx,%edx
8010b0a3:	ee                   	out    %al,(%dx)
	asm volatile("in %1,%0" : "=a"(data) : "d"(port));
8010b0a4:	89 ca                	mov    %ecx,%edx
8010b0a6:	ec                   	in     (%dx),%al

	outb(RTC_PORT_ADDR, RTC_SECONDS);
	*seconds = bcd_to_bin(inb(RTC_PORT_DATA));
8010b0a7:	0f b6 d0             	movzbl %al,%edx
static int bcd_to_bin(int bcd) { return ((bcd >> 4) * 10) + (bcd & 0x0F); }
8010b0aa:	83 e0 0f             	and    $0xf,%eax
8010b0ad:	c1 fa 04             	sar    $0x4,%edx
8010b0b0:	8d 14 92             	lea    (%edx,%edx,4),%edx
8010b0b3:	8d 14 50             	lea    (%eax,%edx,2),%edx
8010b0b6:	8b 45 10             	mov    0x10(%ebp),%eax
8010b0b9:	89 10                	mov    %edx,(%eax)
}
8010b0bb:	5b                   	pop    %ebx
8010b0bc:	5e                   	pop    %esi
8010b0bd:	5d                   	pop    %ebp
8010b0be:	c3                   	ret
8010b0bf:	90                   	nop

8010b0c0 <rtc_read_date>:

void rtc_read_date(int *day, int *month, int *year) {
8010b0c0:	55                   	push   %ebp
8010b0c1:	89 e5                	mov    %esp,%ebp
8010b0c3:	56                   	push   %esi
	asm volatile("out %0,%1" : : "a"(data), "d"(port));
8010b0c4:	be 0a 00 00 00       	mov    $0xa,%esi
8010b0c9:	53                   	push   %ebx
8010b0ca:	bb 70 00 00 00       	mov    $0x70,%ebx
8010b0cf:	90                   	nop
8010b0d0:	89 f0                	mov    %esi,%eax
8010b0d2:	89 da                	mov    %ebx,%edx
8010b0d4:	ee                   	out    %al,(%dx)
	asm volatile("in %1,%0" : "=a"(data) : "d"(port));
8010b0d5:	b9 71 00 00 00       	mov    $0x71,%ecx
8010b0da:	89 ca                	mov    %ecx,%edx
8010b0dc:	ec                   	in     (%dx),%al
	while (is_update_in_progress())
8010b0dd:	84 c0                	test   %al,%al
8010b0df:	78 ef                	js     8010b0d0 <rtc_read_date+0x10>
	asm volatile("out %0,%1" : : "a"(data), "d"(port));
8010b0e1:	b8 07 00 00 00       	mov    $0x7,%eax
8010b0e6:	89 da                	mov    %ebx,%edx
8010b0e8:	ee                   	out    %al,(%dx)
	asm volatile("in %1,%0" : "=a"(data) : "d"(port));
8010b0e9:	89 ca                	mov    %ecx,%edx
8010b0eb:	ec                   	in     (%dx),%al
		;

	outb(RTC_PORT_ADDR, RTC_DAY);
	*day = bcd_to_bin(inb(RTC_PORT_DATA));
8010b0ec:	0f b6 d0             	movzbl %al,%edx
static int bcd_to_bin(int bcd) { return ((bcd >> 4) * 10) + (bcd & 0x0F); }
8010b0ef:	83 e0 0f             	and    $0xf,%eax
8010b0f2:	c1 fa 04             	sar    $0x4,%edx
8010b0f5:	8d 14 92             	lea    (%edx,%edx,4),%edx
8010b0f8:	8d 14 50             	lea    (%eax,%edx,2),%edx
8010b0fb:	8b 45 08             	mov    0x8(%ebp),%eax
8010b0fe:	89 10                	mov    %edx,(%eax)
	asm volatile("out %0,%1" : : "a"(data), "d"(port));
8010b100:	b8 08 00 00 00       	mov    $0x8,%eax
8010b105:	89 da                	mov    %ebx,%edx
8010b107:	ee                   	out    %al,(%dx)
	asm volatile("in %1,%0" : "=a"(data) : "d"(port));
8010b108:	89 ca                	mov    %ecx,%edx
8010b10a:	ec                   	in     (%dx),%al

	outb(RTC_PORT_ADDR, RTC_MONTH);
	*month = bcd_to_bin(inb(RTC_PORT_DATA));
8010b10b:	0f b6 d0             	movzbl %al,%edx
static int bcd_to_bin(int bcd) { return ((bcd >> 4) * 10) + (bcd & 0x0F); }
8010b10e:	83 e0 0f             	and    $0xf,%eax
8010b111:	c1 fa 04             	sar    $0x4,%edx
8010b114:	8d 14 92             	lea    (%edx,%edx,4),%edx
8010b117:	8d 14 50             	lea    (%eax,%edx,2),%edx
8010b11a:	8b 45 0c             	mov    0xc(%ebp),%eax
8010b11d:	89 10                	mov    %edx,(%eax)
	asm volatile("out %0,%1" : : "a"(data), "d"(port));
8010b11f:	b8 09 00 00 00       	mov    $0x9,%eax
8010b124:	89 da                	mov    %ebx,%edx
8010b126:	ee                   	out    %al,(%dx)
	asm volatile("in %1,%0" : "=a"(data) : "d"(port));
8010b127:	89 ca                	mov    %ecx,%edx
8010b129:	ec                   	in     (%dx),%al

	outb(RTC_PORT_ADDR, RTC_YEAR);
	*year = bcd_to_bin(inb(RTC_PORT_DATA)) + 2000; // Asumsi 2000+
8010b12a:	0f b6 d0             	movzbl %al,%edx
static int bcd_to_bin(int bcd) { return ((bcd >> 4) * 10) + (bcd & 0x0F); }
8010b12d:	83 e0 0f             	and    $0xf,%eax
8010b130:	c1 fa 04             	sar    $0x4,%edx
8010b133:	8d 14 92             	lea    (%edx,%edx,4),%edx
	*year = bcd_to_bin(inb(RTC_PORT_DATA)) + 2000; // Asumsi 2000+
8010b136:	8d 94 50 d0 07 00 00 	lea    0x7d0(%eax,%edx,2),%edx
8010b13d:	8b 45 10             	mov    0x10(%ebp),%eax
8010b140:	89 10                	mov    %edx,(%eax)
}
8010b142:	5b                   	pop    %ebx
8010b143:	5e                   	pop    %esi
8010b144:	5d                   	pop    %ebp
8010b145:	c3                   	ret
8010b146:	2e 8d b4 26 00 00 00 	lea    %cs:0x0(%esi,%eiz,1),%esi
8010b14d:	00 
8010b14e:	66 90                	xchg   %ax,%ax

8010b150 <rtc_init>:

8010b150:	55                   	push   %ebp
8010b151:	89 e5                	mov    %esp,%ebp
8010b153:	83 ec 14             	sub    $0x14,%esp
8010b156:	68 04 bb 10 80       	push   $0x8010bb04
8010b15b:	e8 c0 5f ff ff       	call   80101120 <cprintf>
8010b160:	83 c4 10             	add    $0x10,%esp
8010b163:	c9                   	leave
8010b164:	c3                   	ret
